///////////////////////////////////////////////////////////////////////////////
//
// IAR C/C++ Compiler V9.30.3.3983 for 8051               25/Apr/2017  12:03:25
// Copyright 2004-2016 IAR Systems AB.
// Standalone license - IAR Embedded Workbench for 8051
//
//    Core               =  plain
//    Code model         =  banked
//    Data model         =  large
//    Calling convention =  xdata reentrant
//    Constant location  =  data_rom
//    Dptr setup         =  1,16
//                          
//    Source file        =  
//        C:\Texas
//        Instruments\ZStack-CC2530-2.4.0-1.4.0\Projects\zstack\Samples\NetworkTopology-Star\Source\dht11.c
//    Command line       =  
//        -f "C:\Texas
//        Instruments\ZStack-CC2530-2.4.0-1.4.0\Projects\zstack\Samples\NetworkTopology-Star\CC2530DB\..\..\..\Tools\CC2530DB\f8wEndev.cfg"
//        (-DCPU32MHZ -DROOT=__near_func -DMAC_CFG_TX_DATA_MAX=3
//        -DMAC_CFG_TX_MAX=6 -DMAC_CFG_RX_MAX=3) -f "C:\Texas
//        Instruments\ZStack-CC2530-2.4.0-1.4.0\Projects\zstack\Samples\NetworkTopology-Star\CC2530DB\..\..\..\Tools\CC2530DB\f8wConfig-top.cfg"
//        (-DSECURE=0 -DZG_SECURE_DYNAMIC=0 -DREFLECTOR
//        -DDEFAULT_CHANLIST=0x00000800 -DZDAPP_CONFIG_PAN_ID=0x2100
//        -DNWK_START_DELAY=100 -DEXTENDED_JOINING_RANDOM_MASK=0x007F
//        -DBEACON_REQUEST_DELAY=100 -DBEACON_REQ_DELAY_MASK=0x00FF
//        -DLINK_STATUS_JITTER_MASK=0x007F -DROUTE_EXPIRY_TIME=30
//        -DAPSC_ACK_WAIT_DURATION_POLLED=3000 -DNWK_INDIRECT_MSG_TIMEOUT=7
//        -DMAX_RREQ_ENTRIES=8 -DAPSC_MAX_FRAME_RETRIES=3
//        -DNWK_MAX_DATA_RETRIES=2 -DMAX_POLL_FAILURE_RETRIES=2 -DMAX_BCAST=9
//        -DAPS_MAX_GROUPS=16 -DMAX_RTG_ENTRIES=40 -DNWK_MAX_BINDING_ENTRIES=4
//        -DMAX_BINDING_CLUSTER_IDS=4 "-DDEFAULT_KEY={0x01, 0x03, 0x05, 0x07,
//        0x09, 0x0B, 0x0D, 0x0F, 0x00, 0x02, 0x04, 0x06, 0x08, 0x0A, 0x0C,
//        0x0D}" -DMAC_MAX_FRAME_SIZE=116 -DZDNWKMGR_MIN_TRANSMISSIONS=20
//        "-DCONST=const __code" -DGENERIC=__generic -DRFD_RCVC_ALWAYS_ON=TRUE
//        -DPOLL_RATE=1000 -DQUEUED_POLL_RATE=100 -DRESPONSE_POLL_RATE=100)
//        -DREJOIN_POLL_RATE=440 "C:\Texas
//        Instruments\ZStack-CC2530-2.4.0-1.4.0\Projects\zstack\Samples\NetworkTopology-Star\Source\dht11.c"
//        -D NWK_AUTO_POLL -D HOLD_AUTO_START -D REFLECTOR -D xPOWER_SAVING -D
//        NV_INIT -D xNV_RESTORE -D xZTOOL_P1 -D xMT_TASK -D xMT_SYS_FUNC -D
//        xMT_SAPI_FUNC -D xMT_SAPI_CB_FUNC -D STARTEST -D LCD_USE -lC
//        "C:\Texas
//        Instruments\ZStack-CC2530-2.4.0-1.4.0\Projects\zstack\Samples\NetworkTopology-Star\CC2530DB\MPEndPoint\List"
//        -lA "C:\Texas
//        Instruments\ZStack-CC2530-2.4.0-1.4.0\Projects\zstack\Samples\NetworkTopology-Star\CC2530DB\MPEndPoint\List"
//        --diag_suppress Pe001,Pa010 -o "C:\Texas
//        Instruments\ZStack-CC2530-2.4.0-1.4.0\Projects\zstack\Samples\NetworkTopology-Star\CC2530DB\MPEndPoint\Obj"
//        -e --no_code_motion --debug --core=plain --dptr=16,1
//        --data_model=large --code_model=banked
//        --calling_convention=xdata_reentrant --place_constants=data_rom
//        --nr_virtual_regs 8 -I "C:\Texas
//        Instruments\ZStack-CC2530-2.4.0-1.4.0\Projects\zstack\Samples\NetworkTopology-Star\CC2530DB\"
//        -I "C:\Texas
//        Instruments\ZStack-CC2530-2.4.0-1.4.0\Projects\zstack\Samples\NetworkTopology-Star\CC2530DB\..\Source\"
//        -I "C:\Texas
//        Instruments\ZStack-CC2530-2.4.0-1.4.0\Projects\zstack\Samples\NetworkTopology-Star\CC2530DB\..\..\..\ZMain\TI2530DB\"
//        -I "C:\Texas
//        Instruments\ZStack-CC2530-2.4.0-1.4.0\Projects\zstack\Samples\NetworkTopology-Star\CC2530DB\..\..\..\..\..\Components\hal\include\"
//        -I "C:\Texas
//        Instruments\ZStack-CC2530-2.4.0-1.4.0\Projects\zstack\Samples\NetworkTopology-Star\CC2530DB\..\..\..\..\..\Components\hal\target\CC2530EB\"
//        -I "C:\Texas
//        Instruments\ZStack-CC2530-2.4.0-1.4.0\Projects\zstack\Samples\NetworkTopology-Star\CC2530DB\..\..\..\..\..\Components\mac\include\"
//        -I "C:\Texas
//        Instruments\ZStack-CC2530-2.4.0-1.4.0\Projects\zstack\Samples\NetworkTopology-Star\CC2530DB\..\..\..\..\..\Components\mac\high_level\"
//        -I "C:\Texas
//        Instruments\ZStack-CC2530-2.4.0-1.4.0\Projects\zstack\Samples\NetworkTopology-Star\CC2530DB\..\..\..\..\..\Components\mac\low_level\srf04\"
//        -I "C:\Texas
//        Instruments\ZStack-CC2530-2.4.0-1.4.0\Projects\zstack\Samples\NetworkTopology-Star\CC2530DB\..\..\..\..\..\Components\mac\low_level\srf04\single_chip\"
//        -I "C:\Texas
//        Instruments\ZStack-CC2530-2.4.0-1.4.0\Projects\zstack\Samples\NetworkTopology-Star\CC2530DB\..\..\..\..\..\Components\mt\"
//        -I "C:\Texas
//        Instruments\ZStack-CC2530-2.4.0-1.4.0\Projects\zstack\Samples\NetworkTopology-Star\CC2530DB\..\..\..\..\..\Components\osal\include\"
//        -I "C:\Texas
//        Instruments\ZStack-CC2530-2.4.0-1.4.0\Projects\zstack\Samples\NetworkTopology-Star\CC2530DB\..\..\..\..\..\Components\osal\mcu\ccsoc\"
//        -I "C:\Texas
//        Instruments\ZStack-CC2530-2.4.0-1.4.0\Projects\zstack\Samples\NetworkTopology-Star\CC2530DB\..\..\..\..\..\Components\services\saddr\"
//        -I "C:\Texas
//        Instruments\ZStack-CC2530-2.4.0-1.4.0\Projects\zstack\Samples\NetworkTopology-Star\CC2530DB\..\..\..\..\..\Components\services\sdata\"
//        -I "C:\Texas
//        Instruments\ZStack-CC2530-2.4.0-1.4.0\Projects\zstack\Samples\NetworkTopology-Star\CC2530DB\..\..\..\..\..\Components\stack\af\"
//        -I "C:\Texas
//        Instruments\ZStack-CC2530-2.4.0-1.4.0\Projects\zstack\Samples\NetworkTopology-Star\CC2530DB\..\..\..\..\..\Components\stack\nwk\"
//        -I "C:\Texas
//        Instruments\ZStack-CC2530-2.4.0-1.4.0\Projects\zstack\Samples\NetworkTopology-Star\CC2530DB\..\..\..\..\..\Components\stack\sapi\"
//        -I "C:\Texas
//        Instruments\ZStack-CC2530-2.4.0-1.4.0\Projects\zstack\Samples\NetworkTopology-Star\CC2530DB\..\..\..\..\..\Components\stack\sec\"
//        -I "C:\Texas
//        Instruments\ZStack-CC2530-2.4.0-1.4.0\Projects\zstack\Samples\NetworkTopology-Star\CC2530DB\..\..\..\..\..\Components\stack\sys\"
//        -I "C:\Texas
//        Instruments\ZStack-CC2530-2.4.0-1.4.0\Projects\zstack\Samples\NetworkTopology-Star\CC2530DB\..\..\..\..\..\Components\stack\zdo\"
//        -I "C:\Texas
//        Instruments\ZStack-CC2530-2.4.0-1.4.0\Projects\zstack\Samples\NetworkTopology-Star\CC2530DB\..\..\..\..\..\Components\zmac\"
//        -I "C:\Texas
//        Instruments\ZStack-CC2530-2.4.0-1.4.0\Projects\zstack\Samples\NetworkTopology-Star\CC2530DB\..\..\..\..\..\Components\zmac\f8w\"
//        -Ohz
//    List file          =  
//        C:\Texas
//        Instruments\ZStack-CC2530-2.4.0-1.4.0\Projects\zstack\Samples\NetworkTopology-Star\CC2530DB\MPEndPoint\List\dht11.s51
//
///////////////////////////////////////////////////////////////////////////////

        NAME dht11

        RTMODEL "__SystemLibrary", "CLib"
        RTMODEL "__calling_convention", "xdata_reentrant"
        RTMODEL "__code_model", "banked"
        RTMODEL "__core", "plain"
        RTMODEL "__data_model", "large"
        RTMODEL "__dptr_size", "16"
        RTMODEL "__extended_stack", "disabled"
        RTMODEL "__location_for_constants", "data"
        RTMODEL "__number_of_dptrs", "1"
        RTMODEL "__rt_version", "1"

        RSEG DOVERLAY:DATA:NOROOT(0)
        RSEG IOVERLAY:IDATA:NOROOT(0)
        RSEG ISTACK:IDATA:NOROOT(0)
        RSEG PSTACK:XDATA:NOROOT(0)
        RSEG XSTACK:XDATA:NOROOT(0)

        EXTERN ?V0
        EXTERN ?V1
        EXTERN ?V2
        EXTERN ?V3
        EXTERN ?BANKED_ENTER_XDATA
        EXTERN ?BANKED_LEAVE_XDATA
        EXTERN ?BDISPATCH
        EXTERN ?BRET
        EXTERN ?S_SHL
        EXTERN __INIT_XDATA_Z

        FUNCTION `??DelaymS::?relay`,0203H
        PUBLIC `??dht11_humidity::?relay`
        FUNCTION `??dht11_humidity::?relay`,0203H
        PUBLIC `??dht11_io_init::?relay`
        FUNCTION `??dht11_io_init::?relay`,0203H
        FUNCTION `??dht11_read_bit::?relay`,0203H
        FUNCTION `??dht11_read_byte::?relay`,0203H
        PUBLIC `??dht11_temp::?relay`
        FUNCTION `??dht11_temp::?relay`,0203H
        PUBLIC `??dht11_update::?relay`
        FUNCTION `??dht11_update::?relay`,0203H
        FUNCTION DelaymS,0203H
        ARGFRAME XSTACK, 9, STACK
        ARGFRAME IOVERLAY, 0, STATIC
        ARGFRAME DOVERLAY, 0, STATIC
        PUBWEAK P0DIR
        PUBWEAK P0SEL
        PUBWEAK _A_P0
        PUBLIC dht11_humidity
        FUNCTION dht11_humidity,0203H
        ARGFRAME XSTACK, 0, STACK
        LOCFRAME ISTACK, 2, STACK
        PUBLIC dht11_io_init
        FUNCTION dht11_io_init,0203H
        ARGFRAME XSTACK, 0, STACK
        FUNCTION dht11_read_bit,0203H
        ARGFRAME XSTACK, 12, STACK
        ARGFRAME IOVERLAY, 0, STATIC
        ARGFRAME DOVERLAY, 0, STATIC
        FUNCTION dht11_read_byte,0a1203H
        ARGFRAME XSTACK, 9, STACK
        ARGFRAME IOVERLAY, 0, STATIC
        ARGFRAME DOVERLAY, 0, STATIC
        LOCFRAME XSTACK, 12, STACK
        PUBLIC dht11_temp
        FUNCTION dht11_temp,0203H
        ARGFRAME XSTACK, 0, STACK
        LOCFRAME ISTACK, 2, STACK
        PUBLIC dht11_update
        FUNCTION dht11_update,0a1203H
        ARGFRAME XSTACK, 0, STACK
        LOCFRAME XSTACK, 9, STACK
        
          CFI Names cfiNames0
          CFI StackFrame CFA_SP SP IDATA
          CFI StackFrame CFA_PSP16 PSP16 XDATA
          CFI StackFrame CFA_XSP16 XSP16 XDATA
          CFI StaticOverlayFrame CFA_IOVERLAY IOVERLAY
          CFI StaticOverlayFrame CFA_DOVERLAY DOVERLAY
          CFI Resource `PSW.CY`:1, `B.BR0`:1, `B.BR1`:1, `B.BR2`:1, `B.BR3`:1
          CFI Resource `B.BR4`:1, `B.BR5`:1, `B.BR6`:1, `B.BR7`:1, `VB.BR8`:1
          CFI Resource `VB.BR9`:1, `VB.BR10`:1, `VB.BR11`:1, `VB.BR12`:1
          CFI Resource `VB.BR13`:1, `VB.BR14`:1, `VB.BR15`:1, VB:8, B:8, A:8
          CFI Resource PSW:8, DPL0:8, DPH0:8, R0:8, R1:8, R2:8, R3:8, R4:8, R5:8
          CFI Resource R6:8, R7:8, V0:8, V1:8, V2:8, V3:8, V4:8, V5:8, V6:8, V7:8
          CFI Resource SP:8, PSPH:8, PSPL:8, PSP16:16, XSPH:8, XSPL:8, XSP16:16
          CFI VirtualResource ?RET:24
          CFI Resource ?BRET_EXT:8
          CFI VirtualResource ?RET_HIGH:8, ?RET_LOW:8
          CFI ResourceParts PSP16 PSPH, PSPL
          CFI ResourceParts XSP16 XSPH, XSPL
          CFI ResourceParts ?RET ?BRET_EXT, ?RET_HIGH, ?RET_LOW
          CFI EndNames cfiNames0
        
          CFI Common cfiCommon0 Using cfiNames0
          CFI CodeAlign 1
          CFI DataAlign -1
          CFI ReturnAddress ?RET CODE
          CFI CFA_DOVERLAY Used
          CFI CFA_IOVERLAY Used
          CFI CFA_SP SP+-3
          CFI CFA_PSP16 PSP16+0
          CFI CFA_XSP16 XSP16+0
          CFI `PSW.CY` SameValue
          CFI `B.BR0` SameValue
          CFI `B.BR1` SameValue
          CFI `B.BR2` SameValue
          CFI `B.BR3` SameValue
          CFI `B.BR4` SameValue
          CFI `B.BR5` SameValue
          CFI `B.BR6` SameValue
          CFI `B.BR7` SameValue
          CFI `VB.BR8` SameValue
          CFI `VB.BR9` SameValue
          CFI `VB.BR10` SameValue
          CFI `VB.BR11` SameValue
          CFI `VB.BR12` SameValue
          CFI `VB.BR13` SameValue
          CFI `VB.BR14` SameValue
          CFI `VB.BR15` SameValue
          CFI VB SameValue
          CFI B Undefined
          CFI A Undefined
          CFI PSW SameValue
          CFI DPL0 SameValue
          CFI DPH0 SameValue
          CFI R0 Undefined
          CFI R1 Undefined
          CFI R2 Undefined
          CFI R3 Undefined
          CFI R4 Undefined
          CFI R5 Undefined
          CFI R6 SameValue
          CFI R7 SameValue
          CFI V0 SameValue
          CFI V1 SameValue
          CFI V2 SameValue
          CFI V3 SameValue
          CFI V4 SameValue
          CFI V5 SameValue
          CFI V6 SameValue
          CFI V7 SameValue
          CFI PSPH Undefined
          CFI PSPL Undefined
          CFI XSPH Undefined
          CFI XSPL Undefined
          CFI ?RET Concat
          CFI ?BRET_EXT Frame(CFA_SP, 3)
          CFI ?RET_HIGH Frame(CFA_SP, 2)
          CFI ?RET_LOW Frame(CFA_SP, 1)
          CFI EndCommon cfiCommon0
        
dht11_humidity      SYMBOL "dht11_humidity"
`??dht11_humidity::?relay` SYMBOL "?relay", dht11_humidity
dht11_io_init       SYMBOL "dht11_io_init"
`??dht11_io_init::?relay` SYMBOL "?relay", dht11_io_init
dht11_temp          SYMBOL "dht11_temp"
`??dht11_temp::?relay` SYMBOL "?relay", dht11_temp
dht11_update        SYMBOL "dht11_update"
`??dht11_update::?relay` SYMBOL "?relay", dht11_update

// C:\Texas Instruments\ZStack-CC2530-2.4.0-1.4.0\Projects\zstack\Samples\NetworkTopology-Star\Source\dht11.c
//    1 
//    2 #include <ioCC2530.h>

        ASEGN SFR_AN:DATA:NOROOT,080H
// union <unnamed> volatile __sfr _A_P0
_A_P0:
        DATA8
        DS 1

        ASEGN SFR_AN:DATA:NOROOT,0f3H
// unsigned char volatile __sfr P0SEL
P0SEL:
        DATA8
        DS 1

        ASEGN SFR_AN:DATA:NOROOT,0fdH
// unsigned char volatile __sfr P0DIR
P0DIR:
        DATA8
        DS 1
//    3 #include <stdio.h>
//    4 #include "dht11.h"
//    5 
//    6 #define       PIN_CFG     (P0SEL  &= ~0x20)
//    7 
//    8 #define       PIN_OUT       (P0DIR |= 0x20)
//    9 #define       PIN_IN        (P0DIR &= ~0x20)
//   10 #define       PIN_CLR       (P0_5 = 0)
//   11 #define       PIN_SET       (P0_5 = 1)
//   12 #define       PIN_R         (P0_5)
//   13 
//   14 #define       COM_IN          PIN_IN  
//   15 #define       COM_OUT         PIN_OUT
//   16 #define       COM_CLR         PIN_CLR
//   17 #define       COM_SET         PIN_SET
//   18 #define       COM_R           PIN_R
//   19 
//   20 
//   21 static void DelaymS (unsigned int dly);
//   22 

        RSEG XDATA_Z:XDATA:NOROOT(0)
        DATA8
//   23 static unsigned char sTemp;
sTemp:
        DS 1
        REQUIRE __INIT_XDATA_Z

        RSEG XDATA_Z:XDATA:NOROOT(0)
        DATA8
//   24 static unsigned char sHumidity;
sHumidity:
        DS 1
        REQUIRE __INIT_XDATA_Z
//   25 
//   26 
//   27 #pragma optimize=none      

        RSEG BANKED_CODE:HUGECODE:NOROOT(0)
//   28 static void DelaymS (unsigned int dly)                   
DelaymS:
          CFI Block cfiBlock0 Using cfiCommon0
          CFI Function DelaymS
        CODE
//   29 {
        ; Saved register size: 0
        ; Auto size: 0
//   30 	unsigned int i;
//   31 	for ( ; dly>0; dly--)
??DelaymS_0:
        MOV     A,R2
        ORL     A,R3
        JZ      ??DelaymS_1
//   32 	{
//   33 		for (i=0; i<1032; i++);        
        MOV     R0,#0x0
        MOV     R1,#0x0
??DelaymS_2:
        CLR     C
        MOV     A,R0
        SUBB    A,#0x8
        MOV     A,R1
        SUBB    A,#0x4
        JNC     ??DelaymS_3
        INC     R0
        MOV     A,R0
        JNZ     ??DelaymS_2
        INC     R1
        SJMP    ??DelaymS_2
//   34 	}
??DelaymS_3:
        MOV     A,R2
        ADD     A,#-0x1
        MOV     R2,A
        MOV     A,R3
        ADDC    A,#-0x1
        MOV     R3,A
        SJMP    ??DelaymS_0
//   35 }
??DelaymS_1:
        LJMP    ?BRET
          CFI EndBlock cfiBlock0
//   36 
//   37 #pragma optimize=none

        RSEG BANKED_CODE:HUGECODE:NOROOT(0)
//   38 static char dht11_read_bit(void)
dht11_read_bit:
          CFI Block cfiBlock1 Using cfiCommon0
          CFI Function dht11_read_bit
        CODE
//   39 {
        ; Saved register size: 0
        ; Auto size: 0
//   40   int i = 0;
        MOV     R2,#0x0
        MOV     R3,#0x0
//   41   
//   42   while (!COM_R);
??dht11_read_bit_0:
        MOV     C,0x80.5
        JNC     ??dht11_read_bit_0
//   43   for (i=0; i<200; i++) {
        MOV     R2,#0x0
        MOV     R3,#0x0
??dht11_read_bit_1:
        CLR     C
        MOV     A,R2
        SUBB    A,#-0x38
        MOV     A,R3
        SUBB    A,#0x0
        MOV     C,0xD0 /* PSW */.2
        XRL     A,PSW
        RLC     A
        JNC     ??dht11_read_bit_2
//   44     if (COM_R == 0) break;
        MOV     C,0x80.5
        JNC     ??dht11_read_bit_2
//   45   }
        INC     R2
        MOV     A,R2
        JNZ     ??dht11_read_bit_1
        INC     R3
        SJMP    ??dht11_read_bit_1
//   46   if (i<30)return 0;  //30us
??dht11_read_bit_2:
        CLR     C
        MOV     A,R2
        SUBB    A,#0x1e
        MOV     A,R3
        SUBB    A,#0x0
        MOV     C,0xD0 /* PSW */.2
        XRL     A,PSW
        RLC     A
        JNC     ??dht11_read_bit_3
        MOV     R1,#0x0
        SJMP    ??dht11_read_bit_4
//   47   return 1;
??dht11_read_bit_3:
        MOV     R1,#0x1
??dht11_read_bit_4:
        LJMP    ?BRET
          CFI EndBlock cfiBlock1
        REQUIRE _A_P0
//   48 }
//   49 
//   50 #pragma optimize=none

        RSEG BANKED_CODE:HUGECODE:NOROOT(0)
//   51 static unsigned char dht11_read_byte(void)
dht11_read_byte:
          CFI Block cfiBlock2 Using cfiCommon0
          CFI Function dht11_read_byte
        CODE
//   52 {
        FUNCALL dht11_read_byte, dht11_read_bit
        LOCFRAME ISTACK, 0, STACK
        LOCFRAME PSTACK, 0, STACK
        LOCFRAME XSTACK, 12, STACK
        LOCFRAME IOVERLAY, 0, STATIC
        LOCFRAME DOVERLAY, 0, STATIC
        ARGFRAME ISTACK, 0, STACK
        ARGFRAME PSTACK, 0, STACK
        ARGFRAME XSTACK, 12, STACK
        ARGFRAME IOVERLAY, 0, STATIC
        ARGFRAME DOVERLAY, 0, STATIC
        REQUIRE ?V0
        REQUIRE ?V1
        REQUIRE ?V2
        REQUIRE ?V3
        MOV     A,#-0xc
        LCALL   ?BANKED_ENTER_XDATA
          CFI DPH0 load(1, XDATA, add(CFA_XSP16, literal(-1)))
          CFI DPL0 load(1, XDATA, add(CFA_XSP16, literal(-2)))
          CFI ?BRET_EXT load(1, XDATA, add(CFA_XSP16, literal(-3)))
          CFI ?RET_HIGH load(1, XDATA, add(CFA_XSP16, literal(-4)))
          CFI ?RET_LOW load(1, XDATA, add(CFA_XSP16, literal(-5)))
          CFI R7 load(1, XDATA, add(CFA_XSP16, literal(-6)))
          CFI V3 load(1, XDATA, add(CFA_XSP16, literal(-7)))
          CFI V2 load(1, XDATA, add(CFA_XSP16, literal(-8)))
          CFI V1 load(1, XDATA, add(CFA_XSP16, literal(-9)))
          CFI V0 load(1, XDATA, add(CFA_XSP16, literal(-10)))
          CFI VB load(1, XDATA, add(CFA_XSP16, literal(-11)))
          CFI R6 load(1, XDATA, add(CFA_XSP16, literal(-12)))
          CFI CFA_SP SP+0
          CFI CFA_XSP16 add(XSP16, 12)
        ; Saved register size: 12
        ; Auto size: 0
//   53   unsigned char v = 0, b;
        MOV     ?V0,#0x0
//   54   int i;
//   55   for (i=7; i>=0; i--) {
        MOV     R6,#0x7
        MOV     R7,#0x0
??dht11_read_byte_0:
        CLR     C
        MOV     A,R6
        SUBB    A,#0x0
        MOV     A,R7
        SUBB    A,#0x0
        MOV     C,0xD0 /* PSW */.2
        XRL     A,PSW
        RLC     A
        JC      ??dht11_read_byte_1
//   56     b = dht11_read_bit();
        ; Setup parameters for call to function dht11_read_bit
        LCALL   `??dht11_read_bit::?relay`; Banked call to: dht11_read_bit
        MOV     A,R1
        MOV     ?V1,A
//   57     v |= b<<i;
        MOV     ?V2,?V1
        MOV     ?V3,#0x0
        MOV     A,R6
        MOV     R0,#?V2
        LCALL   ?S_SHL
        MOV     A,?V2
        ORL     ?V0,A
//   58   }
        MOV     A,R6
        ADD     A,#-0x1
        MOV     R6,A
        MOV     A,R7
        ADDC    A,#-0x1
        MOV     R7,A
        SJMP    ??dht11_read_byte_0
//   59   return v; 
??dht11_read_byte_1:
        MOV     R1,?V0
        MOV     R7,#0x4
        LJMP    ?BANKED_LEAVE_XDATA
//   60 }
          CFI EndBlock cfiBlock2
//   61 
//   62 
//   63 

        RSEG BANKED_CODE:HUGECODE:NOROOT(0)
//   64 void dht11_io_init(void)
dht11_io_init:
          CFI Block cfiBlock3 Using cfiCommon0
          CFI Function dht11_io_init
        CODE
//   65 {
        ; Saved register size: 0
        ; Auto size: 0
//   66     PIN_CFG;
        ANL     0xf3,#0xdf
//   67     COM_OUT;
        ORL     0xfd,#0x20
//   68     COM_SET;
        SETB    0x80.5
//   69     
//   70 }
        LJMP    ?BRET
          CFI EndBlock cfiBlock3
        REQUIRE P0SEL
        REQUIRE P0DIR
        REQUIRE _A_P0

        RSEG BANKED_CODE:HUGECODE:NOROOT(0)
//   71 unsigned char dht11_temp(void)
dht11_temp:
          CFI Block cfiBlock4 Using cfiCommon0
          CFI Function dht11_temp
        CODE
//   72 {
        PUSH    DPL
          CFI DPL0 Frame(CFA_SP, 4)
          CFI CFA_SP SP+-4
        PUSH    DPH
          CFI DPH0 Frame(CFA_SP, 5)
          CFI CFA_SP SP+-5
        ; Saved register size: 2
        ; Auto size: 0
//   73   return sTemp;
        MOV     DPTR,#sTemp
          CFI EndBlock cfiBlock4
        REQUIRE ?Subroutine0
        ; // Fall through to label ?Subroutine0
//   74 }

        RSEG BANKED_CODE:HUGECODE:NOROOT(0)
?Subroutine0:
          CFI Block cfiBlock5 Using cfiCommon0
          CFI NoFunction
          CFI CFA_SP SP+-5
          CFI DPL0 Frame(CFA_SP, 4)
          CFI DPH0 Frame(CFA_SP, 5)
        MOVX    A,@DPTR
        MOV     R1,A
        POP     DPH
          CFI CFA_SP SP+-4
          CFI DPH0 SameValue
        POP     DPL
          CFI CFA_SP SP+-3
          CFI DPL0 SameValue
        LJMP    ?BRET
          CFI EndBlock cfiBlock5

        RSEG BANKED_CODE:HUGECODE:NOROOT(0)
//   75 unsigned char dht11_humidity(void)
dht11_humidity:
          CFI Block cfiBlock6 Using cfiCommon0
          CFI Function dht11_humidity
        CODE
//   76 {
        PUSH    DPL
          CFI DPL0 Frame(CFA_SP, 4)
          CFI CFA_SP SP+-4
        PUSH    DPH
          CFI DPH0 Frame(CFA_SP, 5)
          CFI CFA_SP SP+-5
        ; Saved register size: 2
        ; Auto size: 0
//   77   return sHumidity;
        MOV     DPTR,#sHumidity
        SJMP    ?Subroutine0
//   78 }
          CFI EndBlock cfiBlock6
//   79 

        RSEG BANKED_CODE:HUGECODE:NOROOT(0)
//   80 void dht11_update(void)
dht11_update:
          CFI Block cfiBlock7 Using cfiCommon0
          CFI Function dht11_update
        CODE
//   81 {
        FUNCALL dht11_update, DelaymS
        LOCFRAME ISTACK, 0, STACK
        LOCFRAME PSTACK, 0, STACK
        LOCFRAME XSTACK, 9, STACK
        LOCFRAME IOVERLAY, 0, STATIC
        LOCFRAME DOVERLAY, 0, STATIC
        ARGFRAME ISTACK, 0, STACK
        ARGFRAME PSTACK, 0, STACK
        ARGFRAME XSTACK, 9, STACK
        ARGFRAME IOVERLAY, 0, STATIC
        ARGFRAME DOVERLAY, 0, STATIC
        FUNCALL dht11_update, dht11_read_byte
        LOCFRAME ISTACK, 0, STACK
        LOCFRAME PSTACK, 0, STACK
        LOCFRAME XSTACK, 9, STACK
        LOCFRAME IOVERLAY, 0, STATIC
        LOCFRAME DOVERLAY, 0, STATIC
        ARGFRAME ISTACK, 0, STACK
        ARGFRAME PSTACK, 0, STACK
        ARGFRAME XSTACK, 9, STACK
        ARGFRAME IOVERLAY, 0, STATIC
        ARGFRAME DOVERLAY, 0, STATIC
        FUNCALL dht11_update, dht11_read_byte
        LOCFRAME ISTACK, 0, STACK
        LOCFRAME PSTACK, 0, STACK
        LOCFRAME XSTACK, 9, STACK
        LOCFRAME IOVERLAY, 0, STATIC
        LOCFRAME DOVERLAY, 0, STATIC
        ARGFRAME ISTACK, 0, STACK
        ARGFRAME PSTACK, 0, STACK
        ARGFRAME XSTACK, 9, STACK
        ARGFRAME IOVERLAY, 0, STATIC
        ARGFRAME DOVERLAY, 0, STATIC
        FUNCALL dht11_update, dht11_read_byte
        LOCFRAME ISTACK, 0, STACK
        LOCFRAME PSTACK, 0, STACK
        LOCFRAME XSTACK, 9, STACK
        LOCFRAME IOVERLAY, 0, STATIC
        LOCFRAME DOVERLAY, 0, STATIC
        ARGFRAME ISTACK, 0, STACK
        ARGFRAME PSTACK, 0, STACK
        ARGFRAME XSTACK, 9, STACK
        ARGFRAME IOVERLAY, 0, STATIC
        ARGFRAME DOVERLAY, 0, STATIC
        FUNCALL dht11_update, dht11_read_byte
        LOCFRAME ISTACK, 0, STACK
        LOCFRAME PSTACK, 0, STACK
        LOCFRAME XSTACK, 9, STACK
        LOCFRAME IOVERLAY, 0, STATIC
        LOCFRAME DOVERLAY, 0, STATIC
        ARGFRAME ISTACK, 0, STACK
        ARGFRAME PSTACK, 0, STACK
        ARGFRAME XSTACK, 9, STACK
        ARGFRAME IOVERLAY, 0, STATIC
        ARGFRAME DOVERLAY, 0, STATIC
        FUNCALL dht11_update, dht11_read_byte
        LOCFRAME ISTACK, 0, STACK
        LOCFRAME PSTACK, 0, STACK
        LOCFRAME XSTACK, 9, STACK
        LOCFRAME IOVERLAY, 0, STATIC
        LOCFRAME DOVERLAY, 0, STATIC
        ARGFRAME ISTACK, 0, STACK
        ARGFRAME PSTACK, 0, STACK
        ARGFRAME XSTACK, 9, STACK
        ARGFRAME IOVERLAY, 0, STATIC
        ARGFRAME DOVERLAY, 0, STATIC
        REQUIRE ?V0
        MOV     A,#-0x9
        LCALL   ?BANKED_ENTER_XDATA
          CFI DPH0 load(1, XDATA, add(CFA_XSP16, literal(-1)))
          CFI DPL0 load(1, XDATA, add(CFA_XSP16, literal(-2)))
          CFI ?BRET_EXT load(1, XDATA, add(CFA_XSP16, literal(-3)))
          CFI ?RET_HIGH load(1, XDATA, add(CFA_XSP16, literal(-4)))
          CFI ?RET_LOW load(1, XDATA, add(CFA_XSP16, literal(-5)))
          CFI R7 load(1, XDATA, add(CFA_XSP16, literal(-6)))
          CFI V0 load(1, XDATA, add(CFA_XSP16, literal(-7)))
          CFI VB load(1, XDATA, add(CFA_XSP16, literal(-8)))
          CFI R6 load(1, XDATA, add(CFA_XSP16, literal(-9)))
          CFI CFA_SP SP+0
          CFI CFA_XSP16 add(XSP16, 9)
        ; Saved register size: 9
        ; Auto size: 0
//   82               int flag = 1;
//   83             unsigned char dat1, dat2, dat3, dat4, dat5, ck;
//   84 	    //主机拉低18ms 
//   85             COM_CLR;
        CLR     0x80.5
//   86           
//   87 	    DelaymS(18);
        ; Setup parameters for call to function DelaymS
        MOV     R2,#0x12
        MOV     R3,#0x0
        LCALL   `??DelaymS::?relay`  ; Banked call to: DelaymS
//   88 	    //COM_IN;
//   89 	    COM_SET;
        SETB    0x80.5
//   90             flag = 0;
        MOV     R0,#0x0
        MOV     R1,#0x0
//   91 	    while (COM_R && ++flag);
??dht11_update_0:
        MOV     C,0x80.5
        JNC     ??dht11_update_1
        INC     R0
        MOV     A,R0
        JNZ     ??dht11_update_2
        INC     R1
??dht11_update_2:
        ORL     A,R1
        JZ      ??dht11_update_3
        SJMP    ??dht11_update_0
//   92             if (flag == 0) return;
??dht11_update_1:
        MOV     A,R0
        ORL     A,R1
        JZ      ??dht11_update_3
//   93             
//   94 	    //总线由上拉电阻拉高 主机延时20us
//   95 	    //主机设为输入 判断从机响应信号  
//   96 	    //判断从机是否有低电平响应信号 如不响应则跳出，响应则向下运行	  	    
//   97             flag = 0;
        MOV     R0,#0x0
        MOV     R1,#0x0
//   98              while (!COM_R && ++flag);
??dht11_update_4:
        MOV     C,0x80.5
        JC      ??dht11_update_5
        INC     R0
        MOV     A,R0
        JNZ     ??dht11_update_6
        INC     R1
??dht11_update_6:
        ORL     A,R1
        JZ      ??dht11_update_3
        SJMP    ??dht11_update_4
//   99              if (flag == 0) return;
??dht11_update_5:
        MOV     A,R0
        ORL     A,R1
        JZ      ??dht11_update_3
//  100              flag = 0;
        MOV     R0,#0x0
        MOV     R1,#0x0
//  101              while (COM_R && ++flag);
??dht11_update_7:
        MOV     C,0x80.5
        JNC     ??dht11_update_8
        INC     R0
        MOV     A,R0
        JNZ     ??dht11_update_9
        INC     R1
??dht11_update_9:
        ORL     A,R1
        JZ      ??dht11_update_3
        SJMP    ??dht11_update_7
//  102              if (flag == 0) return;
??dht11_update_8:
        MOV     A,R0
        ORL     A,R1
        JZ      ??dht11_update_3
//  103                   
//  104              
//  105              dat1 = dht11_read_byte();
        ; Setup parameters for call to function dht11_read_byte
        LCALL   `??dht11_read_byte::?relay`; Banked call to: dht11_read_byte
        MOV     A,R1
        MOV     ?V0,A
//  106 
//  107              dat2 = dht11_read_byte();
        ; Setup parameters for call to function dht11_read_byte
        LCALL   `??dht11_read_byte::?relay`; Banked call to: dht11_read_byte
        MOV     A,R1
        MOV     R7,A
//  108 
//  109              dat3 = dht11_read_byte();
        ; Setup parameters for call to function dht11_read_byte
        LCALL   `??dht11_read_byte::?relay`; Banked call to: dht11_read_byte
        MOV     A,R1
        MOV     R6,A
//  110               
//  111     
//  112              dat4 = dht11_read_byte();
        ; Setup parameters for call to function dht11_read_byte
        LCALL   `??dht11_read_byte::?relay`; Banked call to: dht11_read_byte
        MOV     A,R1
        MOV     R0,A
//  113               
//  114    
//  115              dat5 = dht11_read_byte();           
//  116                   
//  117               
//  118              ck = dat1 + dat2 + dat3 + dat4;
//  119               
//  120              if (ck == dat5) {
        MOV     A,?V0
        ADD     A,R7
        ADD     A,R6
        ADD     A,R1
        MOV     R7,A
        ; Setup parameters for call to function dht11_read_byte
        LCALL   `??dht11_read_byte::?relay`; Banked call to: dht11_read_byte
        MOV     A,R1
        XRL     A,R7
        JNZ     ??dht11_update_3
//  121                 sTemp = dat3;
        MOV     A,R6
        MOV     DPTR,#sTemp
        MOVX    @DPTR,A
//  122                 sHumidity = dat1;        
        MOV     A,?V0
        MOV     DPTR,#sHumidity
        MOVX    @DPTR,A
//  123              }
//  124              
//  125 #if 0
//  126              printf("%02x, %02x, %02x, %02x %02x\r\n", 
//  127                      dat1, dat2, dat3, dat4, dat5);
//  128 #endif	   
//  129 }
??dht11_update_3:
        MOV     R7,#0x1
        LJMP    ?BANKED_LEAVE_XDATA
          CFI EndBlock cfiBlock7
        REQUIRE _A_P0

        RSEG BANK_RELAYS:CODE:REORDER:NOROOT(0)
`??DelaymS::?relay`:
        CODE
        LCALL   ?BDISPATCH
        DATA24
        DC24    DelaymS

        RSEG BANK_RELAYS:CODE:REORDER:NOROOT(0)
`??dht11_read_bit::?relay`:
        CODE
        LCALL   ?BDISPATCH
        DATA24
        DC24    dht11_read_bit

        RSEG BANK_RELAYS:CODE:REORDER:NOROOT(0)
`??dht11_read_byte::?relay`:
        CODE
        LCALL   ?BDISPATCH
        DATA24
        DC24    dht11_read_byte

        RSEG BANK_RELAYS:CODE:REORDER:NOROOT(0)
`??dht11_io_init::?relay`:
        CODE
        LCALL   ?BDISPATCH
        DATA24
        DC24    dht11_io_init

        RSEG BANK_RELAYS:CODE:REORDER:NOROOT(0)
`??dht11_temp::?relay`:
        CODE
        LCALL   ?BDISPATCH
        DATA24
        DC24    dht11_temp

        RSEG BANK_RELAYS:CODE:REORDER:NOROOT(0)
`??dht11_humidity::?relay`:
        CODE
        LCALL   ?BDISPATCH
        DATA24
        DC24    dht11_humidity

        RSEG BANK_RELAYS:CODE:REORDER:NOROOT(0)
`??dht11_update::?relay`:
        CODE
        LCALL   ?BDISPATCH
        DATA24
        DC24    dht11_update

        END
// 
// 330 bytes in segment BANKED_CODE
//  42 bytes in segment BANK_RELAYS
//   3 bytes in segment SFR_AN
//   2 bytes in segment XDATA_Z
// 
//  42 bytes of CODE     memory
//   0 bytes of DATA     memory (+ 3 bytes shared)
// 330 bytes of HUGECODE memory
//   2 bytes of XDATA    memory
//
//Errors: none
//Warnings: none
