###############################################################################
#
# IAR C/C++ Compiler V9.30.3.3983 for 8051                25/Apr/2017  12:03:27
# Copyright 2004-2016 IAR Systems AB.
# Standalone license - IAR Embedded Workbench for 8051
#
#    Core               =  plain
#    Code model         =  banked
#    Data model         =  large
#    Calling convention =  xdata reentrant
#    Constant location  =  data_rom
#    Dptr setup         =  1,16
#                          
#    Source file        =  
#        C:\Texas
#        Instruments\ZStack-CC2530-2.4.0-1.4.0\Components\hal\target\CC2530EB\hal_sleep.c
#    Command line       =  
#        -f "C:\Texas
#        Instruments\ZStack-CC2530-2.4.0-1.4.0\Projects\zstack\Samples\NetworkTopology-Star\CC2530DB\..\..\..\Tools\CC2530DB\f8wEndev.cfg"
#        (-DCPU32MHZ -DROOT=__near_func -DMAC_CFG_TX_DATA_MAX=3
#        -DMAC_CFG_TX_MAX=6 -DMAC_CFG_RX_MAX=3) -f "C:\Texas
#        Instruments\ZStack-CC2530-2.4.0-1.4.0\Projects\zstack\Samples\NetworkTopology-Star\CC2530DB\..\..\..\Tools\CC2530DB\f8wConfig-top.cfg"
#        (-DSECURE=0 -DZG_SECURE_DYNAMIC=0 -DREFLECTOR
#        -DDEFAULT_CHANLIST=0x00000800 -DZDAPP_CONFIG_PAN_ID=0x2100
#        -DNWK_START_DELAY=100 -DEXTENDED_JOINING_RANDOM_MASK=0x007F
#        -DBEACON_REQUEST_DELAY=100 -DBEACON_REQ_DELAY_MASK=0x00FF
#        -DLINK_STATUS_JITTER_MASK=0x007F -DROUTE_EXPIRY_TIME=30
#        -DAPSC_ACK_WAIT_DURATION_POLLED=3000 -DNWK_INDIRECT_MSG_TIMEOUT=7
#        -DMAX_RREQ_ENTRIES=8 -DAPSC_MAX_FRAME_RETRIES=3
#        -DNWK_MAX_DATA_RETRIES=2 -DMAX_POLL_FAILURE_RETRIES=2 -DMAX_BCAST=9
#        -DAPS_MAX_GROUPS=16 -DMAX_RTG_ENTRIES=40 -DNWK_MAX_BINDING_ENTRIES=4
#        -DMAX_BINDING_CLUSTER_IDS=4 "-DDEFAULT_KEY={0x01, 0x03, 0x05, 0x07,
#        0x09, 0x0B, 0x0D, 0x0F, 0x00, 0x02, 0x04, 0x06, 0x08, 0x0A, 0x0C,
#        0x0D}" -DMAC_MAX_FRAME_SIZE=116 -DZDNWKMGR_MIN_TRANSMISSIONS=20
#        "-DCONST=const __code" -DGENERIC=__generic -DRFD_RCVC_ALWAYS_ON=TRUE
#        -DPOLL_RATE=1000 -DQUEUED_POLL_RATE=100 -DRESPONSE_POLL_RATE=100)
#        -DREJOIN_POLL_RATE=440 "C:\Texas
#        Instruments\ZStack-CC2530-2.4.0-1.4.0\Components\hal\target\CC2530EB\hal_sleep.c"
#        -D NWK_AUTO_POLL -D HOLD_AUTO_START -D REFLECTOR -D xPOWER_SAVING -D
#        NV_INIT -D xNV_RESTORE -D xZTOOL_P1 -D xMT_TASK -D xMT_SYS_FUNC -D
#        xMT_SAPI_FUNC -D xMT_SAPI_CB_FUNC -D STARTEST -D LCD_USE -lC "C:\Texas
#        Instruments\ZStack-CC2530-2.4.0-1.4.0\Projects\zstack\Samples\NetworkTopology-Star\CC2530DB\MPEndPoint\List"
#        -lA "C:\Texas
#        Instruments\ZStack-CC2530-2.4.0-1.4.0\Projects\zstack\Samples\NetworkTopology-Star\CC2530DB\MPEndPoint\List"
#        --diag_suppress Pe001,Pa010 -o "C:\Texas
#        Instruments\ZStack-CC2530-2.4.0-1.4.0\Projects\zstack\Samples\NetworkTopology-Star\CC2530DB\MPEndPoint\Obj"
#        -e --no_code_motion --debug --core=plain --dptr=16,1
#        --data_model=large --code_model=banked
#        --calling_convention=xdata_reentrant --place_constants=data_rom
#        --nr_virtual_regs 8 -I "C:\Texas
#        Instruments\ZStack-CC2530-2.4.0-1.4.0\Projects\zstack\Samples\NetworkTopology-Star\CC2530DB\"
#        -I "C:\Texas
#        Instruments\ZStack-CC2530-2.4.0-1.4.0\Projects\zstack\Samples\NetworkTopology-Star\CC2530DB\..\Source\"
#        -I "C:\Texas
#        Instruments\ZStack-CC2530-2.4.0-1.4.0\Projects\zstack\Samples\NetworkTopology-Star\CC2530DB\..\..\..\ZMain\TI2530DB\"
#        -I "C:\Texas
#        Instruments\ZStack-CC2530-2.4.0-1.4.0\Projects\zstack\Samples\NetworkTopology-Star\CC2530DB\..\..\..\..\..\Components\hal\include\"
#        -I "C:\Texas
#        Instruments\ZStack-CC2530-2.4.0-1.4.0\Projects\zstack\Samples\NetworkTopology-Star\CC2530DB\..\..\..\..\..\Components\hal\target\CC2530EB\"
#        -I "C:\Texas
#        Instruments\ZStack-CC2530-2.4.0-1.4.0\Projects\zstack\Samples\NetworkTopology-Star\CC2530DB\..\..\..\..\..\Components\mac\include\"
#        -I "C:\Texas
#        Instruments\ZStack-CC2530-2.4.0-1.4.0\Projects\zstack\Samples\NetworkTopology-Star\CC2530DB\..\..\..\..\..\Components\mac\high_level\"
#        -I "C:\Texas
#        Instruments\ZStack-CC2530-2.4.0-1.4.0\Projects\zstack\Samples\NetworkTopology-Star\CC2530DB\..\..\..\..\..\Components\mac\low_level\srf04\"
#        -I "C:\Texas
#        Instruments\ZStack-CC2530-2.4.0-1.4.0\Projects\zstack\Samples\NetworkTopology-Star\CC2530DB\..\..\..\..\..\Components\mac\low_level\srf04\single_chip\"
#        -I "C:\Texas
#        Instruments\ZStack-CC2530-2.4.0-1.4.0\Projects\zstack\Samples\NetworkTopology-Star\CC2530DB\..\..\..\..\..\Components\mt\"
#        -I "C:\Texas
#        Instruments\ZStack-CC2530-2.4.0-1.4.0\Projects\zstack\Samples\NetworkTopology-Star\CC2530DB\..\..\..\..\..\Components\osal\include\"
#        -I "C:\Texas
#        Instruments\ZStack-CC2530-2.4.0-1.4.0\Projects\zstack\Samples\NetworkTopology-Star\CC2530DB\..\..\..\..\..\Components\osal\mcu\ccsoc\"
#        -I "C:\Texas
#        Instruments\ZStack-CC2530-2.4.0-1.4.0\Projects\zstack\Samples\NetworkTopology-Star\CC2530DB\..\..\..\..\..\Components\services\saddr\"
#        -I "C:\Texas
#        Instruments\ZStack-CC2530-2.4.0-1.4.0\Projects\zstack\Samples\NetworkTopology-Star\CC2530DB\..\..\..\..\..\Components\services\sdata\"
#        -I "C:\Texas
#        Instruments\ZStack-CC2530-2.4.0-1.4.0\Projects\zstack\Samples\NetworkTopology-Star\CC2530DB\..\..\..\..\..\Components\stack\af\"
#        -I "C:\Texas
#        Instruments\ZStack-CC2530-2.4.0-1.4.0\Projects\zstack\Samples\NetworkTopology-Star\CC2530DB\..\..\..\..\..\Components\stack\nwk\"
#        -I "C:\Texas
#        Instruments\ZStack-CC2530-2.4.0-1.4.0\Projects\zstack\Samples\NetworkTopology-Star\CC2530DB\..\..\..\..\..\Components\stack\sapi\"
#        -I "C:\Texas
#        Instruments\ZStack-CC2530-2.4.0-1.4.0\Projects\zstack\Samples\NetworkTopology-Star\CC2530DB\..\..\..\..\..\Components\stack\sec\"
#        -I "C:\Texas
#        Instruments\ZStack-CC2530-2.4.0-1.4.0\Projects\zstack\Samples\NetworkTopology-Star\CC2530DB\..\..\..\..\..\Components\stack\sys\"
#        -I "C:\Texas
#        Instruments\ZStack-CC2530-2.4.0-1.4.0\Projects\zstack\Samples\NetworkTopology-Star\CC2530DB\..\..\..\..\..\Components\stack\zdo\"
#        -I "C:\Texas
#        Instruments\ZStack-CC2530-2.4.0-1.4.0\Projects\zstack\Samples\NetworkTopology-Star\CC2530DB\..\..\..\..\..\Components\zmac\"
#        -I "C:\Texas
#        Instruments\ZStack-CC2530-2.4.0-1.4.0\Projects\zstack\Samples\NetworkTopology-Star\CC2530DB\..\..\..\..\..\Components\zmac\f8w\"
#        -Ohz
#    List file          =  
#        C:\Texas
#        Instruments\ZStack-CC2530-2.4.0-1.4.0\Projects\zstack\Samples\NetworkTopology-Star\CC2530DB\MPEndPoint\List\hal_sleep.lst
#    Object file        =  
#        C:\Texas
#        Instruments\ZStack-CC2530-2.4.0-1.4.0\Projects\zstack\Samples\NetworkTopology-Star\CC2530DB\MPEndPoint\Obj\hal_sleep.r51
#
###############################################################################

C:\Texas Instruments\ZStack-CC2530-2.4.0-1.4.0\Components\hal\target\CC2530EB\hal_sleep.c
      1          /**************************************************************************************************
      2            Filename:       hal_sleep.c
      3            Revised:        $Date: 2010-10-21 11:11:55 -0700 (Thu, 21 Oct 2010) $
      4            Revision:       $Revision: 24165 $
      5          
      6            Description:    This module contains the HAL power management procedures for the CC2530.
      7          
      8          
      9            Copyright 2006-2010 Texas Instruments Incorporated. All rights reserved.
     10          
     11            IMPORTANT: Your use of this Software is limited to those specific rights
     12            granted under the terms of a software license agreement between the user
     13            who downloaded the software, his/her employer (which must be your employer)
     14            and Texas Instruments Incorporated (the "License").  You may not use this
     15            Software unless you agree to abide by the terms of the License. The License
     16            limits your use, and you acknowledge, that the Software may not be modified,
     17            copied or distributed unless embedded on a Texas Instruments microcontroller
     18            or used solely and exclusively in conjunction with a Texas Instruments radio
     19            frequency transceiver, which is integrated into your product.  Other than for
     20            the foregoing purpose, you may not use, reproduce, copy, prepare derivative
     21            works of, modify, distribute, perform, display or sell this Software and/or
     22            its documentation for any purpose.
     23          
     24            YOU FURTHER ACKNOWLEDGE AND AGREE THAT THE SOFTWARE AND DOCUMENTATION ARE
     25            PROVIDED “AS IS” WITHOUT WARRANTY OF ANY KIND, EITHER EXPRESS OR IMPLIED,
     26            INCLUDING WITHOUT LIMITATION, ANY WARRANTY OF MERCHANTABILITY, TITLE,
     27            NON-INFRINGEMENT AND FITNESS FOR A PARTICULAR PURPOSE. IN NO EVENT SHALL
     28            TEXAS INSTRUMENTS OR ITS LICENSORS BE LIABLE OR OBLIGATED UNDER CONTRACT,
     29            NEGLIGENCE, STRICT LIABILITY, CONTRIBUTION, BREACH OF WARRANTY, OR OTHER
     30            LEGAL EQUITABLE THEORY ANY DIRECT OR INDIRECT DAMAGES OR EXPENSES
     31            INCLUDING BUT NOT LIMITED TO ANY INCIDENTAL, SPECIAL, INDIRECT, PUNITIVE
     32            OR CONSEQUENTIAL DAMAGES, LOST PROFITS OR LOST DATA, COST OF PROCUREMENT
     33            OF SUBSTITUTE GOODS, TECHNOLOGY, SERVICES, OR ANY CLAIMS BY THIRD PARTIES
     34            (INCLUDING BUT NOT LIMITED TO ANY DEFENSE THEREOF), OR OTHER SIMILAR COSTS.
     35          
     36            Should you have any questions regarding your right to use this Software,
     37            contact Texas Instruments Incorporated at www.TI.com.
     38          **************************************************************************************************/
     39          
     40          /* ------------------------------------------------------------------------------------------------
     41           *                                          Includes
     42           * ------------------------------------------------------------------------------------------------
     43           */
     44          #include "hal_types.h"
     45          #include "hal_mcu.h"

   \                                 In  segment SFR_AN, at 0x87
   \   unsigned char volatile __sfr PCON
   \                     PCON:
   \   000000                DS 1

   \                                 In  segment SFR_AN, at 0x95
   \   unsigned char volatile __sfr ST0
   \                     ST0:
   \   000000                DS 1

   \                                 In  segment SFR_AN, at 0x96
   \   unsigned char volatile __sfr ST1
   \                     ST1:
   \   000000                DS 1

   \                                 In  segment SFR_AN, at 0x97
   \   unsigned char volatile __sfr ST2
   \                     ST2:
   \   000000                DS 1

   \                                 In  segment SFR_AN, at 0x9a
   \   unsigned char volatile __sfr IEN2
   \                     IEN2:
   \   000000                DS 1

   \                                 In  segment SFR_AN, at 0xa8
   \   union <unnamed> volatile __sfr _A_IEN0
   \                     _A_IEN0:
   \   000000                DS 1

   \                                 In  segment SFR_AN, at 0xad
   \   unsigned char volatile __sfr STLOAD
   \                     STLOAD:
   \   000000                DS 1

   \                                 In  segment SFR_AN, at 0xb8
   \   union <unnamed> volatile __sfr _A_IEN1
   \                     _A_IEN1:
   \   000000                DS 1

   \                                 In  segment SFR_AN, at 0xbe
   \   unsigned char volatile __sfr SLEEPCMD
   \                     SLEEPCMD:
   \   000000                DS 1

   \                                 In  segment SFR_AN, at 0xc0
   \   union <unnamed> volatile __sfr _A_IRCON
   \                     _A_IRCON:
   \   000000                DS 1
     46          #include "hal_board.h"
     47          #include "hal_sleep.h"
     48          #include "hal_led.h"
     49          #include "hal_key.h"
     50          #include "mac_api.h"
     51          #include "OSAL.h"
     52          #include "OSAL_Timers.h"
     53          #include "OSAL_Tasks.h"
     54          #include "OSAL_PwrMgr.h"
     55          #include "OnBoard.h"
     56          #include "hal_drivers.h"
     57          #include "hal_assert.h"
     58          #include "mac_mcu.h"
     59          
     60          #ifndef ZG_BUILD_ENDDEVICE_TYPE
     61          # define ZG_BUILD_ENDDEVICE_TYPE FALSE
     62          #endif
     63          
     64          #if ZG_BUILD_ENDDEVICE_TYPE && defined (NWK_AUTO_POLL)
     65          #include "nwk_globals.h"
     66          #include "ZGlobals.h"
     67          #endif
     68          
     69          /* ------------------------------------------------------------------------------------------------
     70           *                                           Macros
     71           * ------------------------------------------------------------------------------------------------
     72           */
     73          
     74          /* POWER CONSERVATION DEFINITIONS
     75           * Sleep mode H/W definitions (enabled with POWER_SAVING compile option)
     76           */
     77          #define CC2530_PM0            0  /* PM0, Clock oscillators on, voltage regulator on */
     78          #define CC2530_PM1            1  /* PM1, 32.768 kHz oscillators on, voltage regulator on */
     79          #define CC2530_PM2            2  /* PM2, 32.768 kHz oscillators on, voltage regulator off */
     80          #define CC2530_PM3            3  /* PM3, All clock oscillators off, voltage regulator off */
     81          
     82          /* HAL power management mode is set according to the power management state. The default
     83           * setting is HAL_SLEEP_OFF. The actual value is tailored to different HW platform. Both
     84           * HAL_SLEEP_TIMER and HAL_SLEEP_DEEP selections will:
     85           *   1. turn off the system clock, and
     86           *   2. halt the MCU.
     87           * HAL_SLEEP_TIMER can be woken up by sleep timer interrupt, I/O interrupt and reset.
     88           * HAL_SLEEP_DEEP can be woken up by I/O interrupt and reset.
     89           */
     90          #define HAL_SLEEP_OFF         CC2530_PM0
     91          #define HAL_SLEEP_TIMER       CC2530_PM2
     92          #define HAL_SLEEP_DEEP        CC2530_PM3
     93          
     94          /* MAX_SLEEP_TIME calculation:
     95           *   Sleep timer maximum duration = 0xFFFF7F / 32768 Hz = 511.996 seconds
     96           *   Round it to 510 seconds or 510000 ms
     97           */
     98          #define MAX_SLEEP_TIME                   510000             /* maximum time to sleep allowed by ST */
     99          
    100          
    101          /* minimum time to sleep, this macro is to:
    102           * 1. avoid thrashing in-and-out of sleep with short OSAL timer (~2ms)
    103           * 2. define minimum safe sleep period
    104           */
    105          #if !defined (PM_MIN_SLEEP_TIME)
    106          #define PM_MIN_SLEEP_TIME                14                 /* default to minimum safe sleep time minimum CAP */
    107          #endif
    108          
    109          /* The PCON instruction must be 4-byte aligned. The following code may cause excessive power
    110           * consumption if not aligned. See linker file ".xcl" for actual placement.
    111           */
    112          #pragma location = "SLEEP_CODE"
    113          void halSetSleepMode(void);
    114          
    115          /* This value is used to adjust the sleep timer compare value such that the sleep timer
    116           * compare takes into account the amount of processing time spent in function halSleep().
    117           * The first value is determined by measuring the number of sleep timer ticks it from
    118           * the beginning of the function to entering sleep mode or more precisely, when
    119           * MAC_PwrNextTimeout() is called.  The second value is determined by measuring the number
    120           * of sleep timer ticks from exit of sleep mode to the call to MAC_PwrOnReq() where the
    121           * MAC timer is restarted.
    122           */
    123          #define HAL_SLEEP_ADJ_TICKS   (11 + 12)
    124          
    125          /* Minimum idle time, this macro is to prevent negative wakeup time.
    126           * See halSleepSetTimer().
    127           */
    128          #define PM_MIN_IDLE_TIME      ((HAL_SLEEP_ADJ_TICKS * 64 / 671) + 1)
    129          
    130          #ifndef HAL_SLEEP_DEBUG_POWER_MODE
    131          /* set CC2530 power mode; always use PM2 */
    132          #define HAL_SLEEP_PREP_POWER_MODE(mode)     st( SLEEPCMD &= ~PMODE; /* clear mode bits */    \
    133                                                          SLEEPCMD |= mode;   /* set mode bits   */    \
    134                                                          while (!(STLOAD & LDRDY));                   \
    135                                                          halSleepPconValue = PCON_IDLE;               \
    136                                                        )
    137          #define HAL_SLEEP_PREP_IDLE_MODE()          st( SLEEPCMD &= ~PMODE; /* clear mode bits */    \
    138                                                          halSleepPconValue = PCON_IDLE;               \
    139                                                        )
    140          #define HAL_SLEEP_SET_POWER_MODE()          halSetSleepMode()
    141          #else
    142          /* Debug: don't set power mode, just block until sleep timer interrupt */
    143          #define HAL_SLEEP_PREP_POWER_MODE(mode)
    144          #define HAL_SLEEP_PREP_IDLE_MODE(mode)
    145          #define HAL_SLEEP_SET_POWER_MODE()          st( while(halSleepInt == FALSE); \
    146                                                          halSleepInt = FALSE;         \
    147                                                          HAL_DISABLE_INTERRUPTS();    \
    148                                                        )
    149          #endif
    150          
    151          /* sleep and external interrupt port masks */
    152          #define STIE_BV                             BV(5)
    153          #define P0IE_BV                             BV(5)
    154          #define P1IE_BV                             BV(4)
    155          #define P2IE_BV                             BV(1)
    156          
    157          /* sleep timer interrupt control */
    158          #define HAL_SLEEP_TIMER_ENABLE_INT()        st(IEN0 |= STIE_BV;)     /* enable sleep timer interrupt */
    159          #define HAL_SLEEP_TIMER_DISABLE_INT()       st(IEN0 &= ~STIE_BV;)    /* disable sleep timer interrupt */
    160          #define HAL_SLEEP_TIMER_CLEAR_INT()         st(STIF = 0;)            /* clear sleep interrupt flag */
    161          
    162          /* backup interrupt enable registers before sleep */
    163          #define HAL_SLEEP_IE_BACKUP_AND_DISABLE(ien0, ien1, ien2) st(ien0  = IEN0;    /* backup IEN0 register */ \
    164                                                                       ien1  = IEN1;    /* backup IEN1 register */ \
    165                                                                       ien2  = IEN2;    /* backup IEN2 register */ \
    166                                                                       IEN0 &= STIE_BV; /* disable IEN0 except STIE */ \
    167                                                                       IEN1 &= P0IE_BV; /* disable IEN1 except P0IE */ \
    168                                                                       IEN2 &= (P1IE_BV|P2IE_BV);) /* disable IEN2 except P1IE, P2IE */
    169          
    170          /* restore interrupt enable registers before sleep */
    171          #define HAL_SLEEP_IE_RESTORE(ien0, ien1, ien2) st(IEN0 = ien0;   /* restore IEN0 register */ \
    172                                                            IEN1 = ien1;   /* restore IEN1 register */ \
    173                                                            IEN2 = ien2;)  /* restore IEN2 register */
    174          
    175          /* convert msec to 320 usec units with round */
    176          #define HAL_SLEEP_MS_TO_320US(ms)           (((((uint32) (ms)) * 100) + 31) / 32)
    177          
    178          /* for optimized indexing of uint32's */
    179          #if HAL_MCU_LITTLE_ENDIAN()
    180          #define UINT32_NDX0   0
    181          #define UINT32_NDX1   1
    182          #define UINT32_NDX2   2
    183          #define UINT32_NDX3   3
    184          #else
    185          #define UINT32_NDX0   3
    186          #define UINT32_NDX1   2
    187          #define UINT32_NDX2   1
    188          #define UINT32_NDX3   0
    189          #endif
    190          
    191          /* ------------------------------------------------------------------------------------------------
    192           *                                        Global Variables
    193           * ------------------------------------------------------------------------------------------------
    194           */
    195          /* PCON register value to program when setting power mode */

   \                                 In  segment DATA_I, align 1, keep-with-next
    196          volatile __data uint8 halSleepPconValue = PCON_IDLE;
   \                     halSleepPconValue:
   \   000000                DS 1
   \   000001                REQUIRE `?<Initializer for halSleepPconValue>`
   \   000001                REQUIRE __INIT_DATA_I
    197          
    198          /* ------------------------------------------------------------------------------------------------
    199           *                                        Local Variables
    200           * ------------------------------------------------------------------------------------------------
    201           */
    202          
    203          /* HAL power management mode is set according to the power management state.
    204           */

   \                                 In  segment XDATA_Z, align 1, keep-with-next
    205          static uint8 halPwrMgtMode = HAL_SLEEP_OFF;
   \                     halPwrMgtMode:
   \   000000                DS 1
   \   000001                REQUIRE __INIT_XDATA_Z
    206          
    207          #ifdef HAL_SLEEP_DEBUG_POWER_MODE
    208          static bool halSleepInt = FALSE;
    209          #endif
    210          
    211          /* ------------------------------------------------------------------------------------------------
    212           *                                      Function Prototypes
    213           * ------------------------------------------------------------------------------------------------
    214           */
    215          
    216          void halSleepSetTimer(uint32 timeout);
    217          void halSleepEnterIdleMode(uint32 timeout);
    218          
    219          /**************************************************************************************************
    220           * @fn          halSleep
    221           *
    222           * @brief       This function put the CC2530 to sleep. The PCON instruction must be 4-byte aligned.
    223           *              The following code may cause excessive power consumption if not aligned. See linker
    224           *              file ".xcl" for actual placement.
    225           *
    226           * input parameters
    227           *
    228           * @param       None.
    229           *
    230           * output parameters
    231           *
    232           * None.
    233           *
    234           * @return      None.
    235           **************************************************************************************************
    236           */

   \                                 In  segment SLEEP_CODE, align 1, keep-with-next
    237          void halSetSleepMode(void)
   \                     halSetSleepMode:
    238          {
   \   000000                ; Saved register size: 0
   \   000000                ; Auto size: 0
    239            PCON = halSleepPconValue;
   \   000000   85..87       MOV     0x87,halSleepPconValue
    240            asm("NOP");
   \   000003   00           NOP
    241          }
   \   000004   02....       LJMP    ?BRET
   \   000007                REQUIRE PCON
    242          
    243          /**************************************************************************************************
    244           * @fn          halSleep
    245           *
    246           * @brief       This function is called from the OSAL task loop using and existing OSAL
    247           *              interface.  It sets the low power mode of the MAC and the CC2530.
    248           *
    249           * input parameters
    250           *
    251           * @param       osal_timeout - Next OSAL timer timeout.
    252           *
    253           * output parameters
    254           *
    255           * None.
    256           *
    257           * @return      None.
    258           **************************************************************************************************
    259           */

   \                                 In  segment BANKED_CODE, align 1, keep-with-next
    260          void halSleep( uint16 osal_timeout )
   \                     halSleep:
    261          {
   \   000000                REQUIRE ?V0
   \   000000                REQUIRE ?V1
   \   000000                REQUIRE ?V2
   \   000000                REQUIRE ?V3
   \   000000                REQUIRE ?V4
   \   000000                REQUIRE ?V5
   \   000000                REQUIRE ?V6
   \   000000                REQUIRE ?V7
   \   000000   74F0         MOV     A,#-0x10
   \   000002   12....       LCALL   ?BANKED_ENTER_XDATA
   \   000005                ; Saved register size: 16
   \   000005                ; Auto size: 0
    262            uint32        timeout;
    263            uint32        macTimeout = 0;
    264          
    265            /* get next OSAL timer expiration converted to 320 usec units */
    266            timeout = HAL_SLEEP_MS_TO_320US(osal_timeout);
   \   000005   8A..         MOV     ?V0,R2
   \   000007   8B..         MOV     ?V1,R3
   \   000009   E4           CLR     A
   \   00000A   F5..         MOV     ?V2,A
   \   00000C   F5..         MOV     ?V3,A
   \   00000E   90....       MOV     DPTR,#__Constant_64
   \   000011   78..         MOV     R0,#?V4
   \   000013   12....       LCALL   ?L_MOV_X
   \   000016   78..         MOV     R0,#?V0
   \   000018   79..         MOV     R1,#?V4
   \   00001A   12....       LCALL   ?L_MUL
   \   00001D   90....       MOV     DPTR,#__Constant_1f
   \   000020   78..         MOV     R0,#?V0
   \   000022   12....       LCALL   ?L_ADD_X
   \   000025   7405         MOV     A,#0x5
   \   000027   78..         MOV     R0,#?V0
   \   000029   12....       LCALL   ?UL_SHR
    267            if (timeout == 0)
   \   00002C   E5..         MOV     A,?V0
   \   00002E   12....       LCALL   ??Subroutine2_0 & 0xFFFF
   \                     ??CrossCallReturnLabel_2:
   \   000031   7010         JNZ     ??halSleep_0
    268            {
    269              timeout = MAC_PwrNextTimeout();
   \   000033                ; Setup parameters for call to function MAC_PwrNextTimeout
   \   000033   12....       LCALL   `??MAC_PwrNextTimeout::?relay`; Banked call to: MAC_PwrNextTimeout
   \   000036   12....       LCALL   ?Subroutine1 & 0xFFFF
    270            }
    271            else
    272            {
    273              /* get next MAC timer expiration */
    274              macTimeout = MAC_PwrNextTimeout();
    275          
    276              /* get lesser of two timeouts */
    277              if ((macTimeout != 0) && (macTimeout < timeout))
    278              {
    279                timeout = macTimeout;
    280              }
    281            }
    282          
    283            /* HAL_SLEEP_PM2 is entered only if the timeout is zero and
    284             * the device is a stimulated device.
    285             */
    286            halPwrMgtMode = (timeout == 0) ? HAL_SLEEP_DEEP : HAL_SLEEP_TIMER;
   \                     ??CrossCallReturnLabel_0:
   \   000039   702D         JNZ     ??halSleep_1
   \   00003B   90....       MOV     DPTR,#halPwrMgtMode
   \   00003E   7403         MOV     A,#0x3
   \   000040   F0           MOVX    @DPTR,A
   \   000041   803F         SJMP    ??halSleep_2
   \                     ??halSleep_0:
   \   000043                ; Setup parameters for call to function MAC_PwrNextTimeout
   \   000043   12....       LCALL   `??MAC_PwrNextTimeout::?relay`; Banked call to: MAC_PwrNextTimeout
   \   000046   8A..         MOV     ?V4,R2
   \   000048   8B..         MOV     ?V5,R3
   \   00004A   8C..         MOV     ?V6,R4
   \   00004C   8D..         MOV     ?V7,R5
   \   00004E   EA           MOV     A,R2
   \   00004F   45..         ORL     A,?V5
   \   000051   45..         ORL     A,?V6
   \   000053   45..         ORL     A,?V7
   \   000055   6011         JZ      ??halSleep_1
   \   000057   78..         MOV     R0,#?V0
   \   000059   79..         MOV     R1,#?V4
   \   00005B   12....       LCALL   ?UL_GT
   \   00005E   5008         JNC     ??halSleep_1
   \   000060   8A..         MOV     ?V0,R2
   \   000062   8B..         MOV     ?V1,R3
   \   000064   8C..         MOV     ?V2,R4
   \   000066   8D..         MOV     ?V3,R5
   \                     ??halSleep_1:
   \   000068   90....       MOV     DPTR,#halPwrMgtMode
   \   00006B   7402         MOV     A,#0x2
   \   00006D   F0           MOVX    @DPTR,A
    287          
    288            /* DEEP sleep can only be entered when zgPollRate == 0.
    289             * This is to eliminate any possibility of entering PM3 between
    290             * two network timers.
    291             */
    292          #if ZG_BUILD_ENDDEVICE_TYPE && defined (NWK_AUTO_POLL)
    293            if ((timeout > HAL_SLEEP_MS_TO_320US(PM_MIN_SLEEP_TIME)) ||
    294                (timeout == 0 && zgPollRate == 0))
    295          #else
    296            if ((timeout > HAL_SLEEP_MS_TO_320US(PM_MIN_SLEEP_TIME)) ||
    297                (timeout == 0))
   \   00006E   90....       MOV     DPTR,#__Constant_2d
   \   000071   78..         MOV     R0,#?V0
   \   000073   12....       LCALL   ?UL_GE_X
   \   000076   400A         JC      ??halSleep_2
   \   000078   E5..         MOV     A,?V0
   \   00007A   12....       LCALL   ??Subroutine2_0 & 0xFFFF
   \                     ??CrossCallReturnLabel_3:
   \   00007D   6003         JZ      $+5
   \   00007F   02....       LJMP    ??halSleep_3 & 0xFFFF
    298          #endif
    299            {
    300              halIntState_t ien0, ien1, ien2;
    301          
    302              HAL_ASSERT(HAL_INTERRUPTS_ARE_ENABLED());
   \                     ??halSleep_2:
   \   000082   A2AF         MOV     C,0xa8.7
   \   000084   4003         JC      ??halSleep_4
   \   000086                ; Setup parameters for call to function halAssertHandler
   \   000086   12....       LCALL   `??halAssertHandler::?relay`; Banked call to: halAssertHandler
    303              HAL_DISABLE_INTERRUPTS();
   \                     ??halSleep_4:
   \   000089   C2AF         CLR     0xa8.7
    304          
    305              /* always use "deep sleep" to turn off radio VREG on CC2530 */
    306              if (halSleepPconValue != 0 && MAC_PwrOffReq(MAC_PWR_SLEEP_DEEP) == MAC_SUCCESS)
   \   00008B   E5..         MOV     A,halSleepPconValue
   \   00008D   6078         JZ      ??halSleep_5
   \   00008F                ; Setup parameters for call to function MAC_PwrOffReq
   \   00008F   7902         MOV     R1,#0x2
   \   000091   12....       LCALL   `??MAC_PwrOffReq::?relay`; Banked call to: MAC_PwrOffReq
   \   000094   E9           MOV     A,R1
   \   000095   7070         JNZ     ??halSleep_5
    307              {
    308                /* The PCON value is not zero. There is no interrupt overriding the 
    309                 * sleep decision. Also, the radio granted the sleep request.
    310                 */
    311          
    312          #if ((defined HAL_KEY) && (HAL_KEY == TRUE))
    313                /* get peripherals ready for sleep */
    314                HalKeyEnterSleep();
   \   000097                ; Setup parameters for call to function HalKeyEnterSleep
   \   000097   12....       LCALL   `??HalKeyEnterSleep::?relay`; Banked call to: HalKeyEnterSleep
    315          #endif
    316          
    317          #ifdef HAL_SLEEP_DEBUG_LED
    318                HAL_TURN_OFF_LED3();
    319          #else
    320                /* use this to turn LEDs off during sleep */
    321                HalLedEnterSleep();
   \   00009A                ; Setup parameters for call to function HalLedEnterSleep
   \   00009A   12....       LCALL   `??HalLedEnterSleep::?relay`; Banked call to: HalLedEnterSleep
    322          #endif
    323          
    324                /* enable sleep timer interrupt */
    325                if (timeout != 0)
   \   00009D   E5..         MOV     A,?V0
   \   00009F   12....       LCALL   ??Subroutine2_0 & 0xFFFF
   \                     ??CrossCallReturnLabel_4:
   \   0000A2   6021         JZ      ??halSleep_6
    326                {
    327                  if (timeout > HAL_SLEEP_MS_TO_320US( MAX_SLEEP_TIME ))
   \   0000A4   90....       MOV     DPTR,#__Constant_185197
   \   0000A7   78..         MOV     R0,#?V0
   \   0000A9   12....       LCALL   ?UL_GE_X
   \   0000AC   5008         JNC     ??halSleep_7
    328                  {
    329                    timeout -= HAL_SLEEP_MS_TO_320US( MAX_SLEEP_TIME );
    330                    halSleepSetTimer(HAL_SLEEP_MS_TO_320US( MAX_SLEEP_TIME ));
   \   0000AE                ; Setup parameters for call to function halSleepSetTimer
   \   0000AE   90....       MOV     DPTR,#__Constant_185196
   \   0000B1   12....       LCALL   ?XLOAD_R2345
   \   0000B4   8008         SJMP    ??halSleep_8
    331                  }
    332                  else
    333                  {
    334                    /* set sleep timer */
    335                    halSleepSetTimer(timeout);
   \                     ??halSleep_7:
   \   0000B6                ; Setup parameters for call to function halSleepSetTimer
   \   0000B6   AA..         MOV     R2,?V0
   \   0000B8   AB..         MOV     R3,?V1
   \   0000BA   AC..         MOV     R4,?V2
   \   0000BC   AD..         MOV     R5,?V3
   \                     ??halSleep_8:
   \   0000BE   12....       LCALL   `??halSleepSetTimer::?relay`; Banked call to: halSleepSetTimer
    336                  }
    337          
    338                  /* set up sleep timer interrupt */
    339                  HAL_SLEEP_TIMER_CLEAR_INT();
   \   0000C1   C2C7         CLR     0xc0.7
    340                  HAL_SLEEP_TIMER_ENABLE_INT();
   \   0000C3   D2AD         SETB    0xa8.5
    341                }
    342          
    343          #ifdef HAL_SLEEP_DEBUG_LED
    344                if (halPwrMgtMode == CC2530_PM1)
    345                {
    346                  HAL_TURN_ON_LED1();
    347                }
    348                else
    349                {
    350                  HAL_TURN_OFF_LED1();
    351                }
    352          #endif
    353          
    354                /* Prep CC2530 power mode */
    355                HAL_SLEEP_PREP_POWER_MODE(halPwrMgtMode);
   \                     ??halSleep_6:
   \   0000C5   53BEFC       ANL     0xbe,#0xfc
   \   0000C8   90....       MOV     DPTR,#halPwrMgtMode
   \   0000CB   E0           MOVX    A,@DPTR
   \   0000CC   42BE         ORL     0xbe,A
   \                     ??halSleep_9:
   \   0000CE   E5AD         MOV     A,0xad
   \   0000D0   A2E0         MOV     C,0xE0 /* A   */.0
   \   0000D2   50FA         JNC     ??halSleep_9
   \   0000D4   75..01       MOV     halSleepPconValue,#0x1
    356          
    357                /* save interrupt enable registers and disable all interrupts */
    358                HAL_SLEEP_IE_BACKUP_AND_DISABLE(ien0, ien1, ien2);
   \   0000D7   85A8..       MOV     ?V0,0xa8+0x0
   \   0000DA   AFB8         MOV     R7,0xb8+0x0
   \   0000DC   AE9A         MOV     R6,0x9a+0x0
   \   0000DE   53A820       ANL     0xa8,#0x20
   \   0000E1   53B820       ANL     0xb8,#0x20
   \   0000E4   539A12       ANL     0x9a,#0x12
    359                HAL_ENABLE_INTERRUPTS();
   \   0000E7   D2AF         SETB    0xa8.7
    360          
    361                /* set CC2530 power mode, interrupt is disabled after this function
    362                 * Note that an ISR (that could wake up from power mode) which runs
    363                 * between the previous instruction enabling interrupts and before
    364                 * power mode is set would switch the halSleepPconValue so that
    365                 * power mode shall not be entered in such a case. 
    366                 */
    367                HAL_SLEEP_SET_POWER_MODE();
   \   0000E9                ; Setup parameters for call to function halSetSleepMode
   \   0000E9   12....       LCALL   `??halSetSleepMode::?relay`; Banked call to: halSetSleepMode
    368          
    369                /* Disable interrupt immediately */
    370                HAL_DISABLE_INTERRUPTS();
   \   0000EC   C2AF         CLR     0xa8.7
    371          
    372                /* restore interrupt enable registers */
    373                HAL_SLEEP_IE_RESTORE(ien0, ien1, ien2);
   \   0000EE   85..A8       MOV     0xa8,?V0
   \   0000F1   8FB8         MOV     0xb8,R7
   \   0000F3   8E9A         MOV     0x9a,R6
    374          
    375                /* disable sleep timer interrupt */
    376                HAL_SLEEP_TIMER_DISABLE_INT();
   \   0000F5   C2AD         CLR     0xa8.5
    377          
    378          #ifdef HAL_SLEEP_DEBUG_LED
    379                HAL_TURN_ON_LED3();
    380          #else
    381                /* use this to turn LEDs back on after sleep */
    382                HalLedExitSleep();
   \   0000F7                ; Setup parameters for call to function HalLedExitSleep
   \   0000F7   12....       LCALL   `??HalLedExitSleep::?relay`; Banked call to: HalLedExitSleep
    383          #endif
    384          
    385          #if ((defined HAL_KEY) && (HAL_KEY == TRUE))
    386                /* handle peripherals */
    387                (void)HalKeyExitSleep();
   \   0000FA                ; Setup parameters for call to function HalKeyExitSleep
   \   0000FA   12....       LCALL   `??HalKeyExitSleep::?relay`; Banked call to: HalKeyExitSleep
    388          #endif
    389          
    390                /* power on the MAC; blocks until completion */
    391                MAC_PwrOnReq();
   \   0000FD                ; Setup parameters for call to function MAC_PwrOnReq
   \   0000FD   12....       LCALL   `??MAC_PwrOnReq::?relay`; Banked call to: MAC_PwrOnReq
    392          
    393                HAL_ENABLE_INTERRUPTS();
   \   000100   D2AF         SETB    0xa8.7
    394          
    395                /* For CC2530, T2 interrupt won’t be generated when the current count is greater than
    396                 * the comparator. The interrupt is only generated when the current count is equal to
    397                 * the comparator. When the CC2530 is waking up from sleep, there is a small window
    398                 * that the count may be grater than the comparator, therefore, missing the interrupt.
    399                 * This workaround will call the T2 ISR when the current T2 count is greater than the
    400                 * comparator. The problem only occurs when POWER_SAVING is turned on, i.e. the 32KHz
    401                 * drives the chip in sleep and SYNC start is used.
    402                 */
    403                macMcuTimer2OverflowWorkaround();
   \   000102                ; Setup parameters for call to function macMcuTimer2OverflowWorkaround
   \   000102   12....       LCALL   `??macMcuTimer2OverflowWorkaround::?relay`; Banked call to: macMcuTimer2OverflowWorkaround
   \   000105   801F         SJMP    ??halSleep_10
    404              }
    405              else
    406              {
    407                /* Sleep request is not granted. Check PCON value to see why the sleep is not granted. */
    408                if (halSleepPconValue == 0)
   \                     ??halSleep_5:
   \   000107   E5..         MOV     A,halSleepPconValue
   \   000109   7010         JNZ     ??halSleep_11
    409                {
    410                  /* An interrupt may have changed the sleep decision. Do not sleep at all. Turn on 
    411                   * the interrupt, exit normally, and the next sleep will be allowed.
    412                   */
    413                  HAL_ENABLE_INTERRUPTS();
   \   00010B   D2AF         SETB    0xa8.7
   \   00010D   8017         SJMP    ??halSleep_10
    414                }
    415                else
    416                {
    417                  /* PCON value is okay but Radio cannot enter power mode hence just put CPU to idle mode.
    418                   * Interrupt will be enabled in halSleepEnterIdleMode().
    419                   */
    420                  halSleepEnterIdleMode(timeout);
    421                }
    422              }
    423            }
    424            else if (timeout > PM_MIN_IDLE_TIME)
   \                     ??halSleep_3:
   \   00010F   90....       MOV     DPTR,#__Constant_4
   \   000112   78..         MOV     R0,#?V0
   \   000114   12....       LCALL   ?UL_GE_X
   \   000117   500D         JNC     ??halSleep_10
    425            {
    426              /* Timeout is too close to enter power mode. Try idle mode. */
    427              HAL_DISABLE_INTERRUPTS();
   \   000119   C2AF         CLR     0xa8.7
    428          
    429              /* Interrupt will be enabled in halSleepEnterIdleMode(). */
    430              halSleepEnterIdleMode(timeout);
   \   00011B                ; Setup parameters for call to function halSleepEnterIdleMode
   \                     ??halSleep_11:
   \   00011B   AA..         MOV     R2,?V0
   \   00011D   AB..         MOV     R3,?V1
   \   00011F   AC..         MOV     R4,?V2
   \   000121   AD..         MOV     R5,?V3
   \   000123   12....       LCALL   `??halSleepEnterIdleMode::?relay`; Banked call to: halSleepEnterIdleMode
    431            }
    432          }
   \                     ??halSleep_10:
   \   000126                REQUIRE ?Subroutine0
   \   000126                REQUIRE _A_IEN0
   \   000126                REQUIRE _A_IRCON
   \   000126                REQUIRE SLEEPCMD
   \   000126                REQUIRE STLOAD
   \   000126                REQUIRE _A_IEN1
   \   000126                REQUIRE IEN2
   \   000126                ; // Fall through to label ?Subroutine0

   \                                 In  segment BANKED_CODE, align 1, keep-with-next
   \                     ?Subroutine0:
   \   000000   7F08         MOV     R7,#0x8
   \   000002   02....       LJMP    ?BANKED_LEAVE_XDATA

   \                                 In  segment BANKED_CODE, align 1, keep-with-next
   \                     ?Subroutine1:
   \   000000   8A..         MOV     ?V0,R2
   \   000002   8B..         MOV     ?V1,R3
   \   000004   8C..         MOV     ?V2,R4
   \   000006   8D..         MOV     ?V3,R5
   \   000008   EA           MOV     A,R2
   \   000009                REQUIRE ??Subroutine2_0
   \   000009                ; // Fall through to label ??Subroutine2_0

   \                                 In  segment BANKED_CODE, align 1, keep-with-next
   \                     ??Subroutine2_0:
   \   000000   45..         ORL     A,?V1
   \   000002   45..         ORL     A,?V2
   \   000004   45..         ORL     A,?V3
   \   000006   22           RET
    433          
    434          /**************************************************************************************************
    435           * @fn          halSleepSetTimer
    436           *
    437           * @brief       This function sets the CC2530 sleep timer compare value.  First it reads and
    438           *              stores the value of the sleep timer; this value is used later to update OSAL
    439           *              timers.  Then the timeout value is converted from 320 usec units to 32 kHz
    440           *              period units and the compare value is set to the timeout.
    441           *
    442           * input parameters
    443           *
    444           * @param       timeout - Timeout value in 320 usec units.  The sleep timer compare is set to
    445           *                        this value.
    446           *
    447           * output parameters
    448           *
    449           * None.
    450           *
    451           * @return      None.
    452           **************************************************************************************************
    453           */

   \                                 In  segment BANKED_CODE, align 1, keep-with-next
    454          void halSleepSetTimer(uint32 timeout)
   \                     halSleepSetTimer:
    455          {
   \   000000                REQUIRE ?V0
   \   000000                REQUIRE ?V1
   \   000000                REQUIRE ?V2
   \   000000                REQUIRE ?V3
   \   000000                REQUIRE ?V4
   \   000000                REQUIRE ?V5
   \   000000                REQUIRE ?V6
   \   000000                REQUIRE ?V7
   \   000000   74F0         MOV     A,#-0x10
   \   000002   12....       LCALL   ?BANKED_ENTER_XDATA
   \   000005                ; Saved register size: 16
   \   000005                ; Auto size: 4
   \   000005   74FC         MOV     A,#-0x4
   \   000007   12....       LCALL   ?ALLOC_XSTACK8
   \   00000A   8A..         MOV     ?V0,R2
   \   00000C   8B..         MOV     ?V1,R3
   \   00000E   8C..         MOV     ?V2,R4
   \   000010   8D..         MOV     ?V3,R5
    456            uint32 ticks;
    457          
    458            /* read the sleep timer; ST0 must be read first */
    459            ((uint8 *) &ticks)[UINT32_NDX0] = ST0;
   \   000012   E595         MOV     A,0x95
   \   000014   85..82       MOV     DPL,?XSP + 0
   \   000017   85..83       MOV     DPH,?XSP + 1
   \   00001A   F0           MOVX    @DPTR,A
    460            ((uint8 *) &ticks)[UINT32_NDX1] = ST1;
   \   00001B   E596         MOV     A,0x96
   \   00001D   C0E0         PUSH    A
   \   00001F   7401         MOV     A,#0x1
   \   000021   12....       LCALL   ?XSTACK_DISP0_8
   \   000024   D0E0         POP     A
   \   000026   F0           MOVX    @DPTR,A
    461            ((uint8 *) &ticks)[UINT32_NDX2] = ST2;
   \   000027   E597         MOV     A,0x97
   \   000029   C0E0         PUSH    A
   \   00002B   7402         MOV     A,#0x2
   \   00002D   12....       LCALL   ?XSTACK_DISP0_8
   \   000030   D0E0         POP     A
   \   000032   F0           MOVX    @DPTR,A
    462            ((uint8 *) &ticks)[UINT32_NDX3] = 0;
   \   000033   7403         MOV     A,#0x3
   \   000035   12....       LCALL   ?XSTACK_DISP0_8
   \   000038   E4           CLR     A
   \   000039   F0           MOVX    @DPTR,A
    463          
    464            /* Compute sleep timer compare value.  The ratio of 32 kHz ticks to 320 usec ticks
    465             * is 32768/3125 = 10.48576.  This is nearly 671/64 = 10.484375.
    466             */
    467            ticks += (timeout * 671) / 64;
    468          
    469            /* subtract the processing time spent in function halSleep() */
    470            ticks -= HAL_SLEEP_ADJ_TICKS;
   \   00003A   90....       MOV     DPTR,#__Constant_29f
   \   00003D   78..         MOV     R0,#?V4
   \   00003F   12....       LCALL   ?L_MOV_X
   \   000042   78..         MOV     R0,#?V0
   \   000044   79..         MOV     R1,#?V4
   \   000046   12....       LCALL   ?L_MUL
   \   000049   7406         MOV     A,#0x6
   \   00004B   78..         MOV     R0,#?V0
   \   00004D   12....       LCALL   ?UL_SHR
   \   000050   90....       MOV     DPTR,#__Constant_ffffffe9
   \   000053   78..         MOV     R0,#?V0
   \   000055   12....       LCALL   ?L_ADD_X
   \   000058   85..82       MOV     DPL,?XSP + 0
   \   00005B   85..83       MOV     DPH,?XSP + 1
   \   00005E   78..         MOV     R0,#?V0
   \   000060   12....       LCALL   ?L_ADD_TO_X
    471          
    472            /* set sleep timer compare; ST0 must be written last */
    473            ST2 = ((uint8 *) &ticks)[UINT32_NDX2];
   \   000063   7402         MOV     A,#0x2
   \   000065   12....       LCALL   ?XSTACK_DISP0_8
   \   000068   E0           MOVX    A,@DPTR
   \   000069   F597         MOV     0x97,A
    474            ST1 = ((uint8 *) &ticks)[UINT32_NDX1];
   \   00006B   7401         MOV     A,#0x1
   \   00006D   12....       LCALL   ?XSTACK_DISP0_8
   \   000070   E0           MOVX    A,@DPTR
   \   000071   F596         MOV     0x96,A
    475            ST0 = ((uint8 *) &ticks)[UINT32_NDX0];
   \   000073   85..82       MOV     DPL,?XSP + 0
   \   000076   85..83       MOV     DPH,?XSP + 1
   \   000079   E0           MOVX    A,@DPTR
   \   00007A   F595         MOV     0x95,A
    476          }
   \   00007C   7404         MOV     A,#0x4
   \   00007E   12....       LCALL   ?DEALLOC_XSTACK8
   \   000081   02....       LJMP    ?Subroutine0 & 0xFFFF
   \   000084                REQUIRE ST0
   \   000084                REQUIRE ST1
   \   000084                REQUIRE ST2
    477          
    478          /**************************************************************************************************
    479           * @fn          halSleepEnterIdleMode
    480           *
    481           * @brief       This function puts the device into idle mode.
    482           *              Note that interrupts must have been disabled before this function call.
    483           *
    484           * input parameters
    485           *
    486           * @param       timeout - Timeout value in 320 usec units.  The sleep timer compare is set to
    487           *                        this value.
    488           *
    489           * output parameters
    490           *
    491           * None.
    492           *
    493           * @return      None.
    494           **************************************************************************************************
    495           */

   \                                 In  segment BANKED_CODE, align 1, keep-with-next
    496          void halSleepEnterIdleMode(uint32 timeout)
   \                     halSleepEnterIdleMode:
    497          {
   \   000000                REQUIRE ?V0
   \   000000                REQUIRE ?V1
   \   000000                REQUIRE ?V2
   \   000000                REQUIRE ?V3
   \   000000   74F4         MOV     A,#-0xc
   \   000002   12....       LCALL   ?BANKED_ENTER_XDATA
   \   000005                ; Saved register size: 12
   \   000005                ; Auto size: 0
   \   000005   12....       LCALL   ?Subroutine1 & 0xFFFF
    498            /* enable sleep timer interrupt */
    499            if (timeout != 0)
   \                     ??CrossCallReturnLabel_1:
   \   000008   6025         JZ      ??halSleepEnterIdleMode_0
    500            {
    501              if (timeout > HAL_SLEEP_MS_TO_320US( MAX_SLEEP_TIME ))
   \   00000A   90....       MOV     DPTR,#__Constant_185197
   \   00000D   78..         MOV     R0,#?V0
   \   00000F   12....       LCALL   ?UL_GE_X
   \   000012   500C         JNC     ??halSleepEnterIdleMode_1
    502              {
    503                timeout = HAL_SLEEP_MS_TO_320US( MAX_SLEEP_TIME );
   \   000014   75..96       MOV     ?V0,#-0x6a
   \   000017   75..51       MOV     ?V1,#0x51
   \   00001A   75..18       MOV     ?V2,#0x18
   \   00001D   75..00       MOV     ?V3,#0x0
    504              }
    505              /* set sleep timer */
    506              halSleepSetTimer(timeout);
   \                     ??halSleepEnterIdleMode_1:
   \   000020                ; Setup parameters for call to function halSleepSetTimer
   \   000020   AA..         MOV     R2,?V0
   \   000022   AB..         MOV     R3,?V1
   \   000024   AC..         MOV     R4,?V2
   \   000026   AD..         MOV     R5,?V3
   \   000028   12....       LCALL   `??halSleepSetTimer::?relay`; Banked call to: halSleepSetTimer
    507              
    508              /* set up sleep timer interrupt */
    509              HAL_SLEEP_TIMER_CLEAR_INT();
   \   00002B   C2C7         CLR     0xc0.7
    510              HAL_SLEEP_TIMER_ENABLE_INT();
   \   00002D   D2AD         SETB    0xa8.5
    511            }
    512            HAL_SLEEP_PREP_IDLE_MODE();
   \                     ??halSleepEnterIdleMode_0:
   \   00002F   53BEFC       ANL     0xbe,#0xfc
   \   000032   75..01       MOV     halSleepPconValue,#0x1
    513            HAL_ENABLE_INTERRUPTS();
   \   000035   D2AF         SETB    0xa8.7
    514            HAL_SLEEP_SET_POWER_MODE();
   \   000037                ; Setup parameters for call to function halSetSleepMode
   \   000037   12....       LCALL   `??halSetSleepMode::?relay`; Banked call to: halSetSleepMode
    515          }
   \   00003A   7F04         MOV     R7,#0x4
   \   00003C   02....       LJMP    ?BANKED_LEAVE_XDATA
   \   00003F                REQUIRE _A_IRCON
   \   00003F                REQUIRE _A_IEN0
   \   00003F                REQUIRE SLEEPCMD
    516          
    517          /**************************************************************************************************
    518           * @fn          TimerElapsed
    519           *
    520           * @brief       Determine the number of OSAL timer ticks elapsed during sleep.
    521           *              Deprecated for CC2530 and CC2430 SoC.
    522           *
    523           * input parameters
    524           *
    525           * @param       None.
    526           *
    527           * output parameters
    528           *
    529           * None.
    530           *
    531           * @return      Number of timer ticks elapsed during sleep.
    532           **************************************************************************************************
    533           */

   \                                 In  segment BANKED_CODE, align 1, keep-with-next
    534          uint32 TimerElapsed( void )
   \                     TimerElapsed:
    535          {
   \   000000                ; Saved register size: 0
   \   000000                ; Auto size: 0
    536            /* Stubs */
    537            return (0);
   \   000000   7A00         MOV     R2,#0x0
   \   000002   7B00         MOV     R3,#0x0
   \   000004   7C00         MOV     R4,#0x0
   \   000006   7D00         MOV     R5,#0x0
   \   000008   02....       LJMP    ?BRET
    538          }
    539          
    540          /**************************************************************************************************
    541           * @fn          halRestoreSleepLevel
    542           *
    543           * @brief       Restore the deepest timer sleep level.
    544           *
    545           * input parameters
    546           *
    547           * @param       None
    548           *
    549           * output parameters
    550           *
    551           *              None.
    552           *
    553           * @return      None.
    554           **************************************************************************************************
    555           */

   \                                 In  segment BANKED_CODE, align 1, keep-with-next
    556          void halRestoreSleepLevel( void )
   \                     halRestoreSleepLevel:
    557          {
   \   000000                ; Saved register size: 0
   \   000000                ; Auto size: 0
    558            /* Stubs */
    559          }
   \   000000   02....       LJMP    ?BRET
    560          
    561          /**************************************************************************************************
    562           * @fn          halSleepTimerIsr
    563           *
    564           * @brief       Sleep timer ISR.
    565           *
    566           * input parameters
    567           *
    568           * None.
    569           *
    570           * output parameters
    571           *
    572           * None.
    573           *
    574           * @return      None.
    575           **************************************************************************************************
    576           */

   \                                 In  segment NEAR_CODE, align 1, keep-with-next
    577          HAL_ISR_FUNCTION(halSleepTimerIsr, ST_VECTOR)
   \                     halSleepTimerIsr:
    578          {
   \   000000   C0E0         PUSH    A
   \   000002   C0D0         PUSH    PSW
   \   000004   E8           MOV     A,R0
   \   000005   C0E0         PUSH    A
   \   000007   E9           MOV     A,R1
   \   000008   C0E0         PUSH    A
   \   00000A                ; Saved register size: 4
   \   00000A                ; Auto size: 0
    579            HAL_ENTER_ISR();
   \   00000A   A9A8         MOV     R1,0xa8+0x0
   \   00000C   D2AF         SETB    0xa8.7
    580            HAL_SLEEP_TIMER_CLEAR_INT();
   \   00000E   C2C7         CLR     0xc0.7
    581          
    582          #ifdef HAL_SLEEP_DEBUG_POWER_MODE
    583            halSleepInt = TRUE;
    584          #endif
    585            
    586            CLEAR_SLEEP_MODE();
    587            HAL_EXIT_ISR();
   \   000010   E9           MOV     A,R1
   \   000011   A2E7         MOV     C,0xE0 /* A   */.7
   \   000013   E4           CLR     A
   \   000014   33           RLC     A
   \   000015   F8           MOV     R0,A
   \   000016   E9           MOV     A,R1
   \   000017   A2E7         MOV     C,0xE0 /* A   */.7
   \   000019   92AF         MOV     0xa8.7,C
    588          }
   \   00001B   D0E0         POP     A
   \   00001D   F9           MOV     R1,A
   \   00001E   D0E0         POP     A
   \   000020   F8           MOV     R0,A
   \   000021   D0D0         POP     PSW
   \   000023   D0E0         POP     A
   \   000025   32           RETI
   \   000026                REQUIRE _A_IEN0
   \   000026                REQUIRE _A_IRCON

   \                                 In  segment INTVEC, offset 0x2b, root
   \                     `??halSleepTimerIsr::??INTVEC 43`:
   \   00002B   02....       LJMP       (halSleepTimerIsr)

   \                                 In  segment DATA_ID, align 1, keep-with-next
   \                     `?<Initializer for halSleepPconValue>`:
   \   000000   01           DB 1

   \                                 In  segment XDATA_ROM_C, align 1
   \                     __Constant_64:
   \   000000   64000000     DD 100

   \                                 In  segment XDATA_ROM_C, align 1
   \                     __Constant_1f:
   \   000000   1F000000     DD 31

   \                                 In  segment XDATA_ROM_C, align 1
   \                     __Constant_2d:
   \   000000   2D000000     DD 45

   \                                 In  segment XDATA_ROM_C, align 1
   \                     __Constant_185197:
   \   000000   97511800     DD 1593751

   \                                 In  segment XDATA_ROM_C, align 1
   \                     __Constant_185196:
   \   000000   96511800     DD 1593750

   \                                 In  segment XDATA_ROM_C, align 1
   \                     __Constant_4:
   \   000000   04000000     DD 4

   \                                 In  segment XDATA_ROM_C, align 1
   \                     __Constant_29f:
   \   000000   9F020000     DD 671

   \                                 In  segment XDATA_ROM_C, align 1
   \                     __Constant_ffffffe9:
   \   000000   E9FFFFFF     DD 4294967273

   \                                 In  segment BANK_RELAYS, align 1
   \                     `??halSetSleepMode::?relay`:
   \   000000   12....       LCALL   ?BDISPATCH
   \   000003   ......       DC24    halSetSleepMode

   \                                 In  segment BANK_RELAYS, align 1
   \                     `??halSleep::?relay`:
   \   000000   12....       LCALL   ?BDISPATCH
   \   000003   ......       DC24    halSleep

   \                                 In  segment BANK_RELAYS, align 1
   \                     `??halSleepSetTimer::?relay`:
   \   000000   12....       LCALL   ?BDISPATCH
   \   000003   ......       DC24    halSleepSetTimer

   \                                 In  segment BANK_RELAYS, align 1
   \                     `??halSleepEnterIdleMode::?relay`:
   \   000000   12....       LCALL   ?BDISPATCH
   \   000003   ......       DC24    halSleepEnterIdleMode

   \                                 In  segment BANK_RELAYS, align 1
   \                     `??TimerElapsed::?relay`:
   \   000000   12....       LCALL   ?BDISPATCH
   \   000003   ......       DC24    TimerElapsed

   \                                 In  segment BANK_RELAYS, align 1
   \                     `??halRestoreSleepLevel::?relay`:
   \   000000   12....       LCALL   ?BDISPATCH
   \   000003   ......       DC24    halRestoreSleepLevel
    589          

   Maximum stack usage in bytes:

   ISTACK XSTACK Function
   ------ ------ --------
      0      0   TimerElapsed
      0      0   halRestoreSleepLevel
      0     16   halSetSleepMode
      0     16   halSleep
        0     16   -> HalKeyEnterSleep
        0     16   -> HalKeyExitSleep
        0     16   -> HalLedEnterSleep
        0     16   -> HalLedExitSleep
        0     16   -> MAC_PwrNextTimeout
        0     16   -> MAC_PwrOffReq
        0     16   -> MAC_PwrOnReq
        0     16   -> halAssertHandler
        0     16   -> halSetSleepMode
        0     16   -> halSleepEnterIdleMode
        0     16   -> halSleepSetTimer
        0     16   -> macMcuTimer2OverflowWorkaround
      0     28   halSleepEnterIdleMode
        0     12   -> halSetSleepMode
        0     12   -> halSleepSetTimer
      1     36   halSleepSetTimer
      4      0   halSleepTimerIsr


   Segment part sizes:

   Bytes  Function/Label
   -----  --------------
       1  ?<Initializer for halSleepPconValue>
       7  ??Subroutine2_0
       5  ?Subroutine0
       9  ?Subroutine1
       1  IEN2
       1  PCON
       1  SLEEPCMD
       1  ST0
       1  ST1
       1  ST2
       1  STLOAD
      11  TimerElapsed
       6  TimerElapsed::?relay
       1  _A_IEN0
       1  _A_IEN1
       1  _A_IRCON
       4  __Constant_185196
       4  __Constant_185197
       4  __Constant_1f
       4  __Constant_29f
       4  __Constant_2d
       4  __Constant_4
       4  __Constant_64
       4  __Constant_ffffffe9
       1  halPwrMgtMode
       3  halRestoreSleepLevel
       6  halRestoreSleepLevel::?relay
       7  halSetSleepMode
       6  halSetSleepMode::?relay
     294  halSleep
       6  halSleep::?relay
      63  halSleepEnterIdleMode
       6  halSleepEnterIdleMode::?relay
       1  halSleepPconValue
     132  halSleepSetTimer
       6  halSleepSetTimer::?relay
      38  halSleepTimerIsr
       3  halSleepTimerIsr::??INTVEC 43

 
 524 bytes in segment BANKED_CODE
  36 bytes in segment BANK_RELAYS
   1 byte  in segment DATA_I
   1 byte  in segment DATA_ID
   3 bytes in segment INTVEC
  38 bytes in segment NEAR_CODE
  10 bytes in segment SFR_AN
   7 bytes in segment SLEEP_CODE
  32 bytes in segment XDATA_ROM_C
   1 byte  in segment XDATA_Z
 
  75 bytes of CODE     memory (+  3 bytes shared)
   0 bytes of CONST    memory (+ 32 bytes shared)
   1 byte  of DATA     memory (+ 10 bytes shared)
 531 bytes of HUGECODE memory
   1 byte  of XDATA    memory

Errors: none
Warnings: none
