///////////////////////////////////////////////////////////////////////////////
//
// IAR C/C++ Compiler V9.30.3.3983 for 8051               25/Apr/2017  12:03:32
// Copyright 2004-2016 IAR Systems AB.
// Standalone license - IAR Embedded Workbench for 8051
//
//    Core               =  plain
//    Code model         =  banked
//    Data model         =  large
//    Calling convention =  xdata reentrant
//    Constant location  =  data_rom
//    Dptr setup         =  1,16
//                          
//    Source file        =  
//        C:\Texas Instruments\ZStack-CC2530-2.4.0-1.4.0\Components\mt\MT_AF.c
//    Command line       =  
//        -f "C:\Texas
//        Instruments\ZStack-CC2530-2.4.0-1.4.0\Projects\zstack\Samples\NetworkTopology-Star\CC2530DB\..\..\..\Tools\CC2530DB\f8wEndev.cfg"
//        (-DCPU32MHZ -DROOT=__near_func -DMAC_CFG_TX_DATA_MAX=3
//        -DMAC_CFG_TX_MAX=6 -DMAC_CFG_RX_MAX=3) -f "C:\Texas
//        Instruments\ZStack-CC2530-2.4.0-1.4.0\Projects\zstack\Samples\NetworkTopology-Star\CC2530DB\..\..\..\Tools\CC2530DB\f8wConfig-top.cfg"
//        (-DSECURE=0 -DZG_SECURE_DYNAMIC=0 -DREFLECTOR
//        -DDEFAULT_CHANLIST=0x00000800 -DZDAPP_CONFIG_PAN_ID=0x2100
//        -DNWK_START_DELAY=100 -DEXTENDED_JOINING_RANDOM_MASK=0x007F
//        -DBEACON_REQUEST_DELAY=100 -DBEACON_REQ_DELAY_MASK=0x00FF
//        -DLINK_STATUS_JITTER_MASK=0x007F -DROUTE_EXPIRY_TIME=30
//        -DAPSC_ACK_WAIT_DURATION_POLLED=3000 -DNWK_INDIRECT_MSG_TIMEOUT=7
//        -DMAX_RREQ_ENTRIES=8 -DAPSC_MAX_FRAME_RETRIES=3
//        -DNWK_MAX_DATA_RETRIES=2 -DMAX_POLL_FAILURE_RETRIES=2 -DMAX_BCAST=9
//        -DAPS_MAX_GROUPS=16 -DMAX_RTG_ENTRIES=40 -DNWK_MAX_BINDING_ENTRIES=4
//        -DMAX_BINDING_CLUSTER_IDS=4 "-DDEFAULT_KEY={0x01, 0x03, 0x05, 0x07,
//        0x09, 0x0B, 0x0D, 0x0F, 0x00, 0x02, 0x04, 0x06, 0x08, 0x0A, 0x0C,
//        0x0D}" -DMAC_MAX_FRAME_SIZE=116 -DZDNWKMGR_MIN_TRANSMISSIONS=20
//        "-DCONST=const __code" -DGENERIC=__generic -DRFD_RCVC_ALWAYS_ON=TRUE
//        -DPOLL_RATE=1000 -DQUEUED_POLL_RATE=100 -DRESPONSE_POLL_RATE=100)
//        -DREJOIN_POLL_RATE=440 "C:\Texas
//        Instruments\ZStack-CC2530-2.4.0-1.4.0\Components\mt\MT_AF.c" -D
//        NWK_AUTO_POLL -D HOLD_AUTO_START -D REFLECTOR -D xPOWER_SAVING -D
//        NV_INIT -D xNV_RESTORE -D xZTOOL_P1 -D xMT_TASK -D xMT_SYS_FUNC -D
//        xMT_SAPI_FUNC -D xMT_SAPI_CB_FUNC -D STARTEST -D LCD_USE -lC
//        "C:\Texas
//        Instruments\ZStack-CC2530-2.4.0-1.4.0\Projects\zstack\Samples\NetworkTopology-Star\CC2530DB\MPEndPoint\List"
//        -lA "C:\Texas
//        Instruments\ZStack-CC2530-2.4.0-1.4.0\Projects\zstack\Samples\NetworkTopology-Star\CC2530DB\MPEndPoint\List"
//        --diag_suppress Pe001,Pa010 -o "C:\Texas
//        Instruments\ZStack-CC2530-2.4.0-1.4.0\Projects\zstack\Samples\NetworkTopology-Star\CC2530DB\MPEndPoint\Obj"
//        -e --no_code_motion --debug --core=plain --dptr=16,1
//        --data_model=large --code_model=banked
//        --calling_convention=xdata_reentrant --place_constants=data_rom
//        --nr_virtual_regs 8 -I "C:\Texas
//        Instruments\ZStack-CC2530-2.4.0-1.4.0\Projects\zstack\Samples\NetworkTopology-Star\CC2530DB\"
//        -I "C:\Texas
//        Instruments\ZStack-CC2530-2.4.0-1.4.0\Projects\zstack\Samples\NetworkTopology-Star\CC2530DB\..\Source\"
//        -I "C:\Texas
//        Instruments\ZStack-CC2530-2.4.0-1.4.0\Projects\zstack\Samples\NetworkTopology-Star\CC2530DB\..\..\..\ZMain\TI2530DB\"
//        -I "C:\Texas
//        Instruments\ZStack-CC2530-2.4.0-1.4.0\Projects\zstack\Samples\NetworkTopology-Star\CC2530DB\..\..\..\..\..\Components\hal\include\"
//        -I "C:\Texas
//        Instruments\ZStack-CC2530-2.4.0-1.4.0\Projects\zstack\Samples\NetworkTopology-Star\CC2530DB\..\..\..\..\..\Components\hal\target\CC2530EB\"
//        -I "C:\Texas
//        Instruments\ZStack-CC2530-2.4.0-1.4.0\Projects\zstack\Samples\NetworkTopology-Star\CC2530DB\..\..\..\..\..\Components\mac\include\"
//        -I "C:\Texas
//        Instruments\ZStack-CC2530-2.4.0-1.4.0\Projects\zstack\Samples\NetworkTopology-Star\CC2530DB\..\..\..\..\..\Components\mac\high_level\"
//        -I "C:\Texas
//        Instruments\ZStack-CC2530-2.4.0-1.4.0\Projects\zstack\Samples\NetworkTopology-Star\CC2530DB\..\..\..\..\..\Components\mac\low_level\srf04\"
//        -I "C:\Texas
//        Instruments\ZStack-CC2530-2.4.0-1.4.0\Projects\zstack\Samples\NetworkTopology-Star\CC2530DB\..\..\..\..\..\Components\mac\low_level\srf04\single_chip\"
//        -I "C:\Texas
//        Instruments\ZStack-CC2530-2.4.0-1.4.0\Projects\zstack\Samples\NetworkTopology-Star\CC2530DB\..\..\..\..\..\Components\mt\"
//        -I "C:\Texas
//        Instruments\ZStack-CC2530-2.4.0-1.4.0\Projects\zstack\Samples\NetworkTopology-Star\CC2530DB\..\..\..\..\..\Components\osal\include\"
//        -I "C:\Texas
//        Instruments\ZStack-CC2530-2.4.0-1.4.0\Projects\zstack\Samples\NetworkTopology-Star\CC2530DB\..\..\..\..\..\Components\osal\mcu\ccsoc\"
//        -I "C:\Texas
//        Instruments\ZStack-CC2530-2.4.0-1.4.0\Projects\zstack\Samples\NetworkTopology-Star\CC2530DB\..\..\..\..\..\Components\services\saddr\"
//        -I "C:\Texas
//        Instruments\ZStack-CC2530-2.4.0-1.4.0\Projects\zstack\Samples\NetworkTopology-Star\CC2530DB\..\..\..\..\..\Components\services\sdata\"
//        -I "C:\Texas
//        Instruments\ZStack-CC2530-2.4.0-1.4.0\Projects\zstack\Samples\NetworkTopology-Star\CC2530DB\..\..\..\..\..\Components\stack\af\"
//        -I "C:\Texas
//        Instruments\ZStack-CC2530-2.4.0-1.4.0\Projects\zstack\Samples\NetworkTopology-Star\CC2530DB\..\..\..\..\..\Components\stack\nwk\"
//        -I "C:\Texas
//        Instruments\ZStack-CC2530-2.4.0-1.4.0\Projects\zstack\Samples\NetworkTopology-Star\CC2530DB\..\..\..\..\..\Components\stack\sapi\"
//        -I "C:\Texas
//        Instruments\ZStack-CC2530-2.4.0-1.4.0\Projects\zstack\Samples\NetworkTopology-Star\CC2530DB\..\..\..\..\..\Components\stack\sec\"
//        -I "C:\Texas
//        Instruments\ZStack-CC2530-2.4.0-1.4.0\Projects\zstack\Samples\NetworkTopology-Star\CC2530DB\..\..\..\..\..\Components\stack\sys\"
//        -I "C:\Texas
//        Instruments\ZStack-CC2530-2.4.0-1.4.0\Projects\zstack\Samples\NetworkTopology-Star\CC2530DB\..\..\..\..\..\Components\stack\zdo\"
//        -I "C:\Texas
//        Instruments\ZStack-CC2530-2.4.0-1.4.0\Projects\zstack\Samples\NetworkTopology-Star\CC2530DB\..\..\..\..\..\Components\zmac\"
//        -I "C:\Texas
//        Instruments\ZStack-CC2530-2.4.0-1.4.0\Projects\zstack\Samples\NetworkTopology-Star\CC2530DB\..\..\..\..\..\Components\zmac\f8w\"
//        -Ohz
//    List file          =  
//        C:\Texas
//        Instruments\ZStack-CC2530-2.4.0-1.4.0\Projects\zstack\Samples\NetworkTopology-Star\CC2530DB\MPEndPoint\List\MT_AF.s51
//
///////////////////////////////////////////////////////////////////////////////

        NAME MT_AF

        RTMODEL "__SystemLibrary", "CLib"
        RTMODEL "__calling_convention", "xdata_reentrant"
        RTMODEL "__code_model", "banked"
        RTMODEL "__core", "plain"
        RTMODEL "__data_model", "large"
        RTMODEL "__dptr_size", "16"
        RTMODEL "__extended_stack", "disabled"
        RTMODEL "__location_for_constants", "data"
        RTMODEL "__number_of_dptrs", "1"
        RTMODEL "__rt_version", "1"

        RSEG DOVERLAY:DATA:NOROOT(0)
        RSEG IOVERLAY:IDATA:NOROOT(0)
        RSEG ISTACK:IDATA:NOROOT(0)
        RSEG PSTACK:XDATA:NOROOT(0)
        RSEG XSTACK:XDATA:NOROOT(0)

        EXTERN ?V0
        EXTERN ?V2
        EXTERN ?V3
        EXTERN ?V4
        EXTERN ?V5
        EXTERN ?V1
        EXTERN ?V6
        EXTERN ?V7
        EXTERN ?ALLOC_XSTACK8
        EXTERN ?BANKED_ENTER_XDATA
        EXTERN ?BANKED_LEAVE_XDATA
        EXTERN ?BDISPATCH
        EXTERN ?BRET
        EXTERN ?DEALLOC_XSTACK8
        EXTERN ?L_ADD
        EXTERN ?L_EQ_X
        EXTERN ?L_MOV_X
        EXTERN ?L_SHL
        EXTERN ?PUSH_XSTACK8_X_TWO
        EXTERN ?PUSH_XSTACK_I_ONE
        EXTERN ?PUSH_XSTACK_I_THREE
        EXTERN ?PUSH_XSTACK_I_TWO
        EXTERN ?UL_SHR
        EXTERN ?XLOAD_R0123
        EXTERN ?XSP
        EXTERN ?XSTACK_DISP0_8
        EXTERN ?XSTACK_DISP100_8
        EXTERN ?XSTACK_DISP101_8
        EXTERN ?XSTORE_R0123
        EXTERN __INIT_XDATA_Z

        PUBLIC `??MT_AfCommandProcessing::?relay`
        FUNCTION `??MT_AfCommandProcessing::?relay`,0203H
        PUBLIC `??MT_AfDataConfirm::?relay`
        FUNCTION `??MT_AfDataConfirm::?relay`,0203H
        PUBLIC `??MT_AfDataRequest::?relay`
        FUNCTION `??MT_AfDataRequest::?relay`,0203H
        FUNCTION `??MT_AfDataRetrieve::?relay`,0203H
        FUNCTION `??MT_AfDataStore::?relay`,0203H
        PUBLIC `??MT_AfExec::?relay`
        FUNCTION `??MT_AfExec::?relay`,0203H
        PUBLIC `??MT_AfIncomingMsg::?relay`
        FUNCTION `??MT_AfIncomingMsg::?relay`,0203H
        PUBLIC `??MT_AfRegister::?relay`
        FUNCTION `??MT_AfRegister::?relay`,0203H
        PUBLIC MT_AfCommandProcessing
        FUNCTION MT_AfCommandProcessing,021203H
        ARGFRAME XSTACK, 0, STACK
        LOCFRAME XSTACK, 9, STACK
        PUBLIC MT_AfDataConfirm
        FUNCTION MT_AfDataConfirm,021203H
        ARGFRAME XSTACK, 0, STACK
        LOCFRAME ISTACK, 3, STACK
        LOCFRAME XSTACK, 3, STACK
        PUBLIC MT_AfDataRequest
        FUNCTION MT_AfDataRequest,0a1203H
        ARGFRAME XSTACK, 9, STACK
        ARGFRAME IOVERLAY, 0, STATIC
        ARGFRAME DOVERLAY, 0, STATIC
        LOCFRAME ISTACK, 1, STACK
        LOCFRAME XSTACK, 42, STACK
        FUNCTION MT_AfDataRetrieve,0a1203H
        ARGFRAME XSTACK, 9, STACK
        ARGFRAME IOVERLAY, 0, STATIC
        ARGFRAME DOVERLAY, 0, STATIC
        LOCFRAME ISTACK, 1, STACK
        LOCFRAME XSTACK, 24, STACK
        FUNCTION MT_AfDataStore,0a1203H
        ARGFRAME XSTACK, 9, STACK
        ARGFRAME IOVERLAY, 0, STATIC
        ARGFRAME DOVERLAY, 0, STATIC
        LOCFRAME ISTACK, 1, STACK
        LOCFRAME XSTACK, 21, STACK
        PUBLIC MT_AfExec
        FUNCTION MT_AfExec,021203H
        ARGFRAME XSTACK, 0, STACK
        LOCFRAME XSTACK, 9, STACK
        PUBLIC MT_AfIncomingMsg
        FUNCTION MT_AfIncomingMsg,0a1203H
        ARGFRAME XSTACK, 0, STACK
        LOCFRAME ISTACK, 1, STACK
        LOCFRAME XSTACK, 26, STACK
        PUBLIC MT_AfRegister
        FUNCTION MT_AfRegister,0a1203H
        ARGFRAME XSTACK, 9, STACK
        ARGFRAME IOVERLAY, 0, STATIC
        ARGFRAME DOVERLAY, 0, STATIC
        LOCFRAME ISTACK, 1, STACK
        LOCFRAME XSTACK, 15, STACK
        PUBLIC pMtAfDataReq
        PUBLIC pMtAfInMsgList
        
          CFI Names cfiNames0
          CFI StackFrame CFA_SP SP IDATA
          CFI StackFrame CFA_PSP16 PSP16 XDATA
          CFI StackFrame CFA_XSP16 XSP16 XDATA
          CFI StaticOverlayFrame CFA_IOVERLAY IOVERLAY
          CFI StaticOverlayFrame CFA_DOVERLAY DOVERLAY
          CFI Resource `PSW.CY`:1, `B.BR0`:1, `B.BR1`:1, `B.BR2`:1, `B.BR3`:1
          CFI Resource `B.BR4`:1, `B.BR5`:1, `B.BR6`:1, `B.BR7`:1, `VB.BR8`:1
          CFI Resource `VB.BR9`:1, `VB.BR10`:1, `VB.BR11`:1, `VB.BR12`:1
          CFI Resource `VB.BR13`:1, `VB.BR14`:1, `VB.BR15`:1, VB:8, B:8, A:8
          CFI Resource PSW:8, DPL0:8, DPH0:8, R0:8, R1:8, R2:8, R3:8, R4:8, R5:8
          CFI Resource R6:8, R7:8, V0:8, V1:8, V2:8, V3:8, V4:8, V5:8, V6:8, V7:8
          CFI Resource SP:8, PSPH:8, PSPL:8, PSP16:16, XSPH:8, XSPL:8, XSP16:16
          CFI VirtualResource ?RET:24
          CFI Resource ?BRET_EXT:8
          CFI VirtualResource ?RET_HIGH:8, ?RET_LOW:8
          CFI ResourceParts PSP16 PSPH, PSPL
          CFI ResourceParts XSP16 XSPH, XSPL
          CFI ResourceParts ?RET ?BRET_EXT, ?RET_HIGH, ?RET_LOW
          CFI EndNames cfiNames0
        
          CFI Common cfiCommon0 Using cfiNames0
          CFI CodeAlign 1
          CFI DataAlign -1
          CFI ReturnAddress ?RET CODE
          CFI CFA_DOVERLAY Used
          CFI CFA_IOVERLAY Used
          CFI CFA_SP SP+-3
          CFI CFA_PSP16 PSP16+0
          CFI CFA_XSP16 XSP16+0
          CFI `PSW.CY` SameValue
          CFI `B.BR0` SameValue
          CFI `B.BR1` SameValue
          CFI `B.BR2` SameValue
          CFI `B.BR3` SameValue
          CFI `B.BR4` SameValue
          CFI `B.BR5` SameValue
          CFI `B.BR6` SameValue
          CFI `B.BR7` SameValue
          CFI `VB.BR8` SameValue
          CFI `VB.BR9` SameValue
          CFI `VB.BR10` SameValue
          CFI `VB.BR11` SameValue
          CFI `VB.BR12` SameValue
          CFI `VB.BR13` SameValue
          CFI `VB.BR14` SameValue
          CFI `VB.BR15` SameValue
          CFI VB SameValue
          CFI B Undefined
          CFI A Undefined
          CFI PSW SameValue
          CFI DPL0 SameValue
          CFI DPH0 SameValue
          CFI R0 Undefined
          CFI R1 Undefined
          CFI R2 Undefined
          CFI R3 Undefined
          CFI R4 Undefined
          CFI R5 Undefined
          CFI R6 SameValue
          CFI R7 SameValue
          CFI V0 SameValue
          CFI V1 SameValue
          CFI V2 SameValue
          CFI V3 SameValue
          CFI V4 SameValue
          CFI V5 SameValue
          CFI V6 SameValue
          CFI V7 SameValue
          CFI PSPH Undefined
          CFI PSPL Undefined
          CFI XSPH Undefined
          CFI XSPL Undefined
          CFI ?RET Concat
          CFI ?BRET_EXT Frame(CFA_SP, 3)
          CFI ?RET_HIGH Frame(CFA_SP, 2)
          CFI ?RET_LOW Frame(CFA_SP, 1)
          CFI EndCommon cfiCommon0
        
        
          CFI Common cfiCommon1 Using cfiNames0
          CFI CodeAlign 1
          CFI DataAlign -1
          CFI ReturnAddress ?RET CODE
          CFI CFA_DOVERLAY Used
          CFI CFA_IOVERLAY Used
          CFI CFA_SP SP+-2
          CFI CFA_PSP16 PSP16+0
          CFI CFA_XSP16 XSP16+0
          CFI `PSW.CY` SameValue
          CFI `B.BR0` SameValue
          CFI `B.BR1` SameValue
          CFI `B.BR2` SameValue
          CFI `B.BR3` SameValue
          CFI `B.BR4` SameValue
          CFI `B.BR5` SameValue
          CFI `B.BR6` SameValue
          CFI `B.BR7` SameValue
          CFI `VB.BR8` SameValue
          CFI `VB.BR9` SameValue
          CFI `VB.BR10` SameValue
          CFI `VB.BR11` SameValue
          CFI `VB.BR12` SameValue
          CFI `VB.BR13` SameValue
          CFI `VB.BR14` SameValue
          CFI `VB.BR15` SameValue
          CFI VB SameValue
          CFI B SameValue
          CFI A SameValue
          CFI PSW SameValue
          CFI DPL0 SameValue
          CFI DPH0 SameValue
          CFI R0 SameValue
          CFI R1 SameValue
          CFI R2 SameValue
          CFI R3 SameValue
          CFI R4 SameValue
          CFI R5 SameValue
          CFI R6 SameValue
          CFI R7 SameValue
          CFI V0 SameValue
          CFI V1 SameValue
          CFI V2 SameValue
          CFI V3 SameValue
          CFI V4 SameValue
          CFI V5 SameValue
          CFI V6 SameValue
          CFI V7 SameValue
          CFI PSPH Undefined
          CFI PSPL Undefined
          CFI XSPH Undefined
          CFI XSPL Undefined
          CFI ?RET Concat
          CFI ?BRET_EXT SameValue
          CFI ?RET_HIGH Frame(CFA_SP, 2)
          CFI ?RET_LOW Frame(CFA_SP, 1)
          CFI EndCommon cfiCommon1
        
AF_DataRequest      SYMBOL "AF_DataRequest"
`??AF_DataRequest::?relay` SYMBOL "?relay", AF_DataRequest
MT_BuildAndSendZToolResponse SYMBOL "MT_BuildAndSendZToolResponse"
`??MT_BuildAndSendZToolResponse::?relay` SYMBOL "?relay", MT_BuildAndSendZToolResponse
MT_BuildEndpointDesc SYMBOL "MT_BuildEndpointDesc"
`??MT_BuildEndpointDesc::?relay` SYMBOL "?relay", MT_BuildEndpointDesc
afFindEndPointDesc  SYMBOL "afFindEndPointDesc"
`??afFindEndPointDesc::?relay` SYMBOL "?relay", afFindEndPointDesc
afRegister          SYMBOL "afRegister"
`??afRegister::?relay` SYMBOL "?relay", afRegister
osal_mem_alloc      SYMBOL "osal_mem_alloc"
`??osal_mem_alloc::?relay` SYMBOL "?relay", osal_mem_alloc
osal_mem_free       SYMBOL "osal_mem_free"
`??osal_mem_free::?relay` SYMBOL "?relay", osal_mem_free
osal_memcpy         SYMBOL "osal_memcpy"
`??osal_memcpy::?relay` SYMBOL "?relay", osal_memcpy
osal_set_event      SYMBOL "osal_set_event"
`??osal_set_event::?relay` SYMBOL "?relay", osal_set_event
osal_start_timerEx  SYMBOL "osal_start_timerEx"
`??osal_start_timerEx::?relay` SYMBOL "?relay", osal_start_timerEx
MT_AfCommandProcessing SYMBOL "MT_AfCommandProcessing"
`??MT_AfCommandProcessing::?relay` SYMBOL "?relay", MT_AfCommandProcessing
MT_AfDataConfirm    SYMBOL "MT_AfDataConfirm"
`??MT_AfDataConfirm::?relay` SYMBOL "?relay", MT_AfDataConfirm
MT_AfDataRequest    SYMBOL "MT_AfDataRequest"
`??MT_AfDataRequest::?relay` SYMBOL "?relay", MT_AfDataRequest
MT_AfExec           SYMBOL "MT_AfExec"
`??MT_AfExec::?relay` SYMBOL "?relay", MT_AfExec
MT_AfIncomingMsg    SYMBOL "MT_AfIncomingMsg"
`??MT_AfIncomingMsg::?relay` SYMBOL "?relay", MT_AfIncomingMsg
MT_AfRegister       SYMBOL "MT_AfRegister"
`??MT_AfRegister::?relay` SYMBOL "?relay", MT_AfRegister

        EXTERN `??AF_DataRequest::?relay`
        FUNCTION `??AF_DataRequest::?relay`,00H
        EXTERN `??MT_BuildAndSendZToolResponse::?relay`
        FUNCTION `??MT_BuildAndSendZToolResponse::?relay`,00H
        EXTERN `??MT_BuildEndpointDesc::?relay`
        FUNCTION `??MT_BuildEndpointDesc::?relay`,00H
        EXTERN `??afFindEndPointDesc::?relay`
        FUNCTION `??afFindEndPointDesc::?relay`,00H
        EXTERN `??afRegister::?relay`
        FUNCTION `??afRegister::?relay`,00H
        EXTERN `??osal_mem_alloc::?relay`
        FUNCTION `??osal_mem_alloc::?relay`,00H
        EXTERN `??osal_mem_free::?relay`
        FUNCTION `??osal_mem_free::?relay`,00H
        EXTERN `??osal_memcpy::?relay`
        FUNCTION `??osal_memcpy::?relay`,00H
        EXTERN `??osal_set_event::?relay`
        FUNCTION `??osal_set_event::?relay`,00H
        EXTERN `??osal_start_timerEx::?relay`
        FUNCTION `??osal_start_timerEx::?relay`,00H
        EXTERN AF_DataRequest
        FUNCTION AF_DataRequest,0202H
        ARGFRAME ISTACK, 0, STACK
        ARGFRAME PSTACK, 0, STACK
        ARGFRAME XSTACK, 42, STACK
        ARGFRAME IOVERLAY, 0, STATIC
        ARGFRAME DOVERLAY, 0, STATIC
        EXTERN MT_BuildAndSendZToolResponse
        FUNCTION MT_BuildAndSendZToolResponse,0202H
        ARGFRAME ISTACK, 2, STACK
        ARGFRAME PSTACK, 0, STACK
        ARGFRAME XSTACK, 33, STACK
        ARGFRAME IOVERLAY, 0, STATIC
        ARGFRAME DOVERLAY, 0, STATIC
        EXTERN MT_BuildEndpointDesc
        FUNCTION MT_BuildEndpointDesc,0202H
        ARGFRAME ISTACK, 0, STACK
        ARGFRAME PSTACK, 0, STACK
        ARGFRAME XSTACK, 15, STACK
        ARGFRAME IOVERLAY, 0, STATIC
        ARGFRAME DOVERLAY, 0, STATIC
        EXTERN MT_TaskID
        EXTERN afFindEndPointDesc
        FUNCTION afFindEndPointDesc,0202H
        ARGFRAME ISTACK, 0, STACK
        ARGFRAME PSTACK, 0, STACK
        ARGFRAME XSTACK, 33, STACK
        ARGFRAME IOVERLAY, 0, STATIC
        ARGFRAME DOVERLAY, 0, STATIC
        EXTERN afRegister
        FUNCTION afRegister,0202H
        ARGFRAME ISTACK, 0, STACK
        ARGFRAME PSTACK, 0, STACK
        ARGFRAME XSTACK, 15, STACK
        ARGFRAME IOVERLAY, 0, STATIC
        ARGFRAME DOVERLAY, 0, STATIC
        EXTERN osal_mem_alloc
        FUNCTION osal_mem_alloc,0202H
        ARGFRAME ISTACK, 0, STACK
        ARGFRAME PSTACK, 0, STACK
        ARGFRAME XSTACK, 33, STACK
        ARGFRAME IOVERLAY, 0, STATIC
        ARGFRAME DOVERLAY, 0, STATIC
        EXTERN osal_mem_free
        FUNCTION osal_mem_free,0202H
        ARGFRAME ISTACK, 0, STACK
        ARGFRAME PSTACK, 0, STACK
        ARGFRAME XSTACK, 23, STACK
        ARGFRAME IOVERLAY, 0, STATIC
        ARGFRAME DOVERLAY, 0, STATIC
        EXTERN osal_memcpy
        FUNCTION osal_memcpy,0202H
        ARGFRAME ISTACK, 0, STACK
        ARGFRAME PSTACK, 0, STACK
        ARGFRAME XSTACK, 36, STACK
        ARGFRAME IOVERLAY, 0, STATIC
        ARGFRAME DOVERLAY, 0, STATIC
        EXTERN osal_set_event
        FUNCTION osal_set_event,0202H
        ARGFRAME ISTACK, 0, STACK
        ARGFRAME PSTACK, 0, STACK
        ARGFRAME XSTACK, 33, STACK
        ARGFRAME IOVERLAY, 0, STATIC
        ARGFRAME DOVERLAY, 0, STATIC
        EXTERN osal_start_timerEx
        FUNCTION osal_start_timerEx,0202H
        ARGFRAME ISTACK, 0, STACK
        ARGFRAME PSTACK, 0, STACK
        ARGFRAME XSTACK, 33, STACK
        ARGFRAME IOVERLAY, 0, STATIC
        ARGFRAME DOVERLAY, 0, STATIC

// C:\Texas Instruments\ZStack-CC2530-2.4.0-1.4.0\Components\mt\MT_AF.c
//    1 /**************************************************************************************************
//    2   Filename:       MT_AF.c
//    3   Revised:        $Date: 2010-08-13 18:15:16 -0700 (Fri, 13 Aug 2010) $
//    4   Revision:       $Revision: 23412 $
//    5 
//    6 
//    7   Description:    MonitorTest functions for the AF layer.
//    8 
//    9 
//   10   Copyright 2007-2010 Texas Instruments Incorporated. All rights reserved.
//   11 
//   12   IMPORTANT: Your use of this Software is limited to those specific rights
//   13   granted under the terms of a software license agreement between the user
//   14   who downloaded the software, his/her employer (which must be your employer)
//   15   and Texas Instruments Incorporated (the "License").  You may not use this
//   16   Software unless you agree to abide by the terms of the License. The License
//   17   limits your use, and you acknowledge, that the Software may not be modified,
//   18   copied or distributed unless embedded on a Texas Instruments microcontroller
//   19   or used solely and exclusively in conjunction with a Texas Instruments radio
//   20   frequency transceiver, which is integrated into your product.  Other than for
//   21   the foregoing purpose, you may not use, reproduce, copy, prepare derivative
//   22   works of, modify, distribute, perform, display or sell this Software and/or
//   23   its documentation for any purpose.
//   24 
//   25   YOU FURTHER ACKNOWLEDGE AND AGREE THAT THE SOFTWARE AND DOCUMENTATION ARE
//   26   PROVIDED “AS IS” WITHOUT WARRANTY OF ANY KIND, EITHER EXPRESS OR IMPLIED,
//   27   INCLUDING WITHOUT LIMITATION, ANY WARRANTY OF MERCHANTABILITY, TITLE,
//   28   NON-INFRINGEMENT AND FITNESS FOR A PARTICULAR PURPOSE. IN NO EVENT SHALL
//   29   TEXAS INSTRUMENTS OR ITS LICENSORS BE LIABLE OR OBLIGATED UNDER CONTRACT,
//   30   NEGLIGENCE, STRICT LIABILITY, CONTRIBUTION, BREACH OF WARRANTY, OR OTHER
//   31   LEGAL EQUITABLE THEORY ANY DIRECT OR INDIRECT DAMAGES OR EXPENSES
//   32   INCLUDING BUT NOT LIMITED TO ANY INCIDENTAL, SPECIAL, INDIRECT, PUNITIVE
//   33   OR CONSEQUENTIAL DAMAGES, LOST PROFITS OR LOST DATA, COST OF PROCUREMENT
//   34   OF SUBSTITUTE GOODS, TECHNOLOGY, SERVICES, OR ANY CLAIMS BY THIRD PARTIES
//   35   (INCLUDING BUT NOT LIMITED TO ANY DEFENSE THEREOF), OR OTHER SIMILAR COSTS.
//   36 
//   37   Should you have any questions regarding your right to use this Software,
//   38   contact Texas Instruments Incorporated at www.TI.com.
//   39 
//   40 **************************************************************************************************/
//   41 
//   42 /***************************************************************************************************
//   43  * INCLUDES
//   44  ***************************************************************************************************/
//   45 #include "ZComDef.h"
//   46 #include "OSAL.h"
//   47 #include "MT.h"
//   48 #include "MT_AF.h"
//   49 #include "MT_ZDO.h"
//   50 #include "nwk.h"
//   51 #include "OnBoard.h"
//   52 #include "MT_UART.h"
//   53 
//   54 #if defined INTER_PAN
//   55 #include "stub_aps.h"
//   56 #endif
//   57 
//   58 /* ------------------------------------------------------------------------------------------------
//   59  *                                          Constants
//   60  * ------------------------------------------------------------------------------------------------
//   61  */
//   62 
//   63 #if !defined MT_AF_EXEC_CNT
//   64 #define MT_AF_EXEC_CNT  15
//   65 #endif
//   66 
//   67 #if !defined MT_AF_EXEC_DLY
//   68 #define MT_AF_EXEC_DLY  1000
//   69 #endif
//   70 
//   71 /* ------------------------------------------------------------------------------------------------
//   72  *                                           Typedefs
//   73  * ------------------------------------------------------------------------------------------------
//   74  */
//   75 
//   76 /*
//   77 typedef struct
//   78 {
//   79   union
//   80   {
//   81     uint16      shortAddr;
//   82     ZLongAddr_t extAddr;
//   83   } addr;
//   84   afAddrMode_t addrMode;
//   85   byte endPoint;
//   86   uint16 panId;  // used for the INTER_PAN feature
//   87 } afAddrType_t;
//   88 
//   89 typedef struct
//   90 {
//   91   byte   TransSeqNumber;
//   92   uint16 DataLength;               // Number of bytes in TransData
//   93   byte  *Data;
//   94 } afMSGCommandFormat_t;
//   95  */
//   96 
//   97 typedef struct
//   98 {
//   99   uint8 *data;
//  100   afAddrType_t dstAddr;
//  101   endPointDesc_t *epDesc;
//  102   uint16 cId;
//  103   uint16 dataLen;
//  104   uint8 transId;
//  105   uint8 txOpts;
//  106   uint8 radius;
//  107   uint8 tick;
//  108 } mtAfDataReq_t;
//  109 
//  110 struct _mtAfInMsgList_t
//  111 {
//  112   struct _mtAfInMsgList_t *next;
//  113   uint8 *data;
//  114   uint32 timestamp;         // Receipt timestamp from MAC.
//  115   uint8 tick;
//  116 };
//  117 typedef struct _mtAfInMsgList_t mtAfInMsgList_t;
//  118 
//  119 /* ------------------------------------------------------------------------------------------------
//  120  *                                        Local Variables
//  121  * ------------------------------------------------------------------------------------------------
//  122  */
//  123 

        RSEG XDATA_Z:XDATA:NOROOT(0)
        DATA16
//  124 mtAfInMsgList_t *pMtAfInMsgList = NULL;
pMtAfInMsgList:
        DS 2
        REQUIRE __INIT_XDATA_Z

        RSEG XDATA_Z:XDATA:NOROOT(0)
        DATA16
//  125 mtAfDataReq_t *pMtAfDataReq = NULL;
pMtAfDataReq:
        DS 2
        REQUIRE __INIT_XDATA_Z
//  126 
//  127 /* ------------------------------------------------------------------------------------------------
//  128  *                                        Global Variables
//  129  * ------------------------------------------------------------------------------------------------
//  130  */
//  131 
//  132 #if defined ( MT_AF_CB_FUNC )
//  133 uint16 _afCallbackSub;
//  134 #endif
//  135 
//  136 /* ------------------------------------------------------------------------------------------------
//  137  *                                        Local Functions
//  138  * ------------------------------------------------------------------------------------------------
//  139  */
//  140 
//  141 void MT_AfRegister(uint8 *pBuf);
//  142 void MT_AfDataRequest(uint8 *pBuf);
//  143 
//  144 #if defined ( ZIGBEE_SOURCE_ROUTING )
//  145 void MT_AfDataRequestSrcRtg(uint8 *pBuf);
//  146 #endif
//  147 
//  148 #if defined INTER_PAN
//  149 static void MT_AfInterPanCtl(uint8 *pBuf);
//  150 #endif
//  151 
//  152 static void MT_AfDataRetrieve(uint8 *pBuf);
//  153 static void MT_AfDataStore(uint8 *pBuf);
//  154 
//  155 /**************************************************************************************************
//  156  * @fn          MT_AfExec
//  157  *
//  158  * @brief       This function is invoked by an MT timer event.
//  159  *
//  160  * input parameters
//  161  *
//  162  * None.
//  163  *
//  164  * output parameters
//  165  *
//  166  * None.
//  167  *
//  168  * @return      None.
//  169  **************************************************************************************************
//  170  */

        RSEG BANKED_CODE:HUGECODE:NOROOT(0)
//  171 void MT_AfExec(void)
MT_AfExec:
          CFI Block cfiBlock0 Using cfiCommon0
          CFI Function MT_AfExec
        CODE
//  172 {
        FUNCALL MT_AfExec, osal_mem_free
        LOCFRAME ISTACK, 0, STACK
        LOCFRAME PSTACK, 0, STACK
        LOCFRAME XSTACK, 9, STACK
        LOCFRAME IOVERLAY, 0, STATIC
        LOCFRAME DOVERLAY, 0, STATIC
        ARGFRAME ISTACK, 0, STACK
        ARGFRAME PSTACK, 0, STACK
        ARGFRAME XSTACK, 9, STACK
        ARGFRAME IOVERLAY, 0, STATIC
        ARGFRAME DOVERLAY, 0, STATIC
        FUNCALL MT_AfExec, osal_mem_free
        LOCFRAME ISTACK, 0, STACK
        LOCFRAME PSTACK, 0, STACK
        LOCFRAME XSTACK, 9, STACK
        LOCFRAME IOVERLAY, 0, STATIC
        LOCFRAME DOVERLAY, 0, STATIC
        ARGFRAME ISTACK, 0, STACK
        ARGFRAME PSTACK, 0, STACK
        ARGFRAME XSTACK, 9, STACK
        ARGFRAME IOVERLAY, 0, STATIC
        ARGFRAME DOVERLAY, 0, STATIC
        FUNCALL MT_AfExec, osal_mem_free
        LOCFRAME ISTACK, 0, STACK
        LOCFRAME PSTACK, 0, STACK
        LOCFRAME XSTACK, 9, STACK
        LOCFRAME IOVERLAY, 0, STATIC
        LOCFRAME DOVERLAY, 0, STATIC
        ARGFRAME ISTACK, 0, STACK
        ARGFRAME PSTACK, 0, STACK
        ARGFRAME XSTACK, 9, STACK
        ARGFRAME IOVERLAY, 0, STATIC
        ARGFRAME DOVERLAY, 0, STATIC
        FUNCALL MT_AfExec, osal_start_timerEx
        LOCFRAME ISTACK, 0, STACK
        LOCFRAME PSTACK, 0, STACK
        LOCFRAME XSTACK, 9, STACK
        LOCFRAME IOVERLAY, 0, STATIC
        LOCFRAME DOVERLAY, 0, STATIC
        ARGFRAME ISTACK, 0, STACK
        ARGFRAME PSTACK, 0, STACK
        ARGFRAME XSTACK, 9, STACK
        ARGFRAME IOVERLAY, 0, STATIC
        ARGFRAME DOVERLAY, 0, STATIC
        FUNCALL MT_AfExec, osal_set_event
        LOCFRAME ISTACK, 0, STACK
        LOCFRAME PSTACK, 0, STACK
        LOCFRAME XSTACK, 9, STACK
        LOCFRAME IOVERLAY, 0, STATIC
        LOCFRAME DOVERLAY, 0, STATIC
        ARGFRAME ISTACK, 0, STACK
        ARGFRAME PSTACK, 0, STACK
        ARGFRAME XSTACK, 9, STACK
        ARGFRAME IOVERLAY, 0, STATIC
        ARGFRAME DOVERLAY, 0, STATIC
        MOV     A,#-0x9
        LCALL   ?BANKED_ENTER_XDATA
          CFI R6 load(1, XDATA, add(CFA_XSP16, literal(-9)))
          CFI VB load(1, XDATA, add(CFA_XSP16, literal(-8)))
          CFI V0 load(1, XDATA, add(CFA_XSP16, literal(-7)))
          CFI R7 load(1, XDATA, add(CFA_XSP16, literal(-6)))
          CFI ?RET_LOW load(1, XDATA, add(CFA_XSP16, literal(-5)))
          CFI ?RET_HIGH load(1, XDATA, add(CFA_XSP16, literal(-4)))
          CFI ?BRET_EXT load(1, XDATA, add(CFA_XSP16, literal(-3)))
          CFI DPL0 load(1, XDATA, add(CFA_XSP16, literal(-2)))
          CFI DPH0 load(1, XDATA, add(CFA_XSP16, literal(-1)))
          CFI CFA_SP SP+0
          CFI CFA_XSP16 add(XSP16, 9)
        ; Saved register size: 9
        ; Auto size: 0
//  173   mtAfInMsgList_t *pPrev, *pItem = pMtAfInMsgList;
??MT_AfExec_0:
        MOV     DPTR,#pMtAfInMsgList
        SJMP    ??MT_AfExec_1
//  174 
//  175   while (pItem != NULL)
//  176   {
//  177     if (--(pItem->tick) == 0)
//  178     {
//  179       if (pMtAfInMsgList == pItem)
//  180       {
//  181         pMtAfInMsgList = pItem->next;
//  182         (void)osal_mem_free(pItem);
//  183         pItem = pMtAfInMsgList;
//  184       }
//  185       else
//  186       {
//  187         pPrev->next = pItem->next;
//  188         (void)osal_mem_free(pItem);
//  189         pItem = pPrev->next;
//  190       }
//  191     }
//  192     else
//  193     {
//  194       pPrev = pItem;
??MT_AfExec_2:
        MOV     A,R2
        MOV     R6,A
        MOV     A,R3
        MOV     R7,A
//  195       pItem = pItem->next;
        MOV     DPL,R2
        MOV     DPH,R3
//  196     }
??MT_AfExec_1:
        LCALL   ??Subroutine56_0 & 0xFFFF
??CrossCallReturnLabel_125:
        MOV     A,R2
        ORL     A,R3
        JZ      ??MT_AfExec_3
        MOV     A,R2
        ADD     A,#0x8
        MOV     DPL,A
        CLR     A
        ADDC    A,R3
        MOV     DPH,A
        MOVX    A,@DPTR
        DEC     A
        MOVX    @DPTR,A
        JNZ     ??MT_AfExec_2
        LCALL   ?Subroutine22 & 0xFFFF
??CrossCallReturnLabel_106:
        MOV     A,R2
        XRL     A,R0
        JNZ     ??MT_AfExec_4
        MOV     A,R3
        XRL     A,R1
??MT_AfExec_4:
        MOV     DPL,R2
        MOV     DPH,R3
        JNZ     ??MT_AfExec_5
        LCALL   ?Subroutine14 & 0xFFFF
??CrossCallReturnLabel_21:
        ; Setup parameters for call to function osal_mem_free
        LCALL   `??osal_mem_free::?relay`; Banked call to: osal_mem_free
        SJMP    ??MT_AfExec_0
??MT_AfExec_5:
        LCALL   ??Subroutine52_0 & 0xFFFF
??CrossCallReturnLabel_105:
        MOV     DPL,R6
        MOV     DPH,R7
        LCALL   ?Subroutine34 & 0xFFFF
??CrossCallReturnLabel_59:
        ; Setup parameters for call to function osal_mem_free
        LCALL   `??osal_mem_free::?relay`; Banked call to: osal_mem_free
        MOV     DPL,R6
        MOV     DPH,R7
        SJMP    ??MT_AfExec_1
//  197   }
//  198 
//  199   if (pMtAfDataReq != NULL)
??MT_AfExec_3:
        LCALL   ?Subroutine2 & 0xFFFF
??CrossCallReturnLabel_149:
        JZ      ??MT_AfExec_6
//  200   {
//  201     if (--(pMtAfDataReq->tick) == 0)
        MOVX    A,@DPTR
        XCH     A,R0
        ADD     A,#0x17
        LCALL   ?Subroutine47 & 0xFFFF
??CrossCallReturnLabel_88:
        DEC     A
        LCALL   ?Subroutine15 & 0xFFFF
??CrossCallReturnLabel_24:
        MOVX    A,@DPTR
        JNZ     ??MT_AfExec_6
//  202     {
//  203       (void)osal_mem_free(pMtAfDataReq);
        ; Setup parameters for call to function osal_mem_free
        LCALL   ?Subroutine9 & 0xFFFF
??CrossCallReturnLabel_131:
        LCALL   `??osal_mem_free::?relay`; Banked call to: osal_mem_free
//  204       pMtAfDataReq = NULL;
        MOV     DPTR,#pMtAfDataReq
        CLR     A
        MOVX    @DPTR,A
        INC     DPTR
        MOVX    @DPTR,A
//  205     }
//  206   }
//  207 
//  208   if ((pMtAfInMsgList != NULL) || (pMtAfDataReq != NULL))
??MT_AfExec_6:
        MOV     DPTR,#pMtAfInMsgList
        LCALL   ??Subroutine59_0 & 0xFFFF
??CrossCallReturnLabel_143:
        JNZ     ??MT_AfExec_7
        LCALL   ?Subroutine2 & 0xFFFF
??CrossCallReturnLabel_150:
        JZ      ??MT_AfExec_8
//  209   {
//  210     if (ZSuccess != osal_start_timerEx(MT_TaskID, MT_AF_EXEC_EVT, MT_AF_EXEC_DLY))
??MT_AfExec_7:
        ; Setup parameters for call to function osal_start_timerEx
        MOV     R4,#-0x18
        MOV     R5,#0x3
        MOV     R2,#0x8
        MOV     R3,#0x0
        MOV     DPTR,#MT_TaskID
        MOVX    A,@DPTR
        MOV     R1,A
        LCALL   `??osal_start_timerEx::?relay`; Banked call to: osal_start_timerEx
        MOV     A,R1
        JZ      ??MT_AfExec_8
//  211     {
//  212       osal_set_event(MT_TaskID, MT_AF_EXEC_EVT);
        ; Setup parameters for call to function osal_set_event
        MOV     R2,#0x8
        MOV     R3,#0x0
        MOV     DPTR,#MT_TaskID
        MOVX    A,@DPTR
        MOV     R1,A
        LCALL   `??osal_set_event::?relay`; Banked call to: osal_set_event
//  213     }
//  214   }
//  215 }
??MT_AfExec_8:
          CFI EndBlock cfiBlock0
        REQUIRE ?Subroutine0
        ; // Fall through to label ?Subroutine0

        RSEG BANKED_CODE:HUGECODE:NOROOT(0)
?Subroutine0:
          CFI Block cfiBlock1 Using cfiCommon0
          CFI NoFunction
          CFI CFA_SP SP+0
          CFI CFA_XSP16 add(XSP16, 9)
          CFI VB load(1, XDATA, add(CFA_XSP16, literal(-8)))
          CFI DPL0 load(1, XDATA, add(CFA_XSP16, literal(-2)))
          CFI DPH0 load(1, XDATA, add(CFA_XSP16, literal(-1)))
          CFI R6 load(1, XDATA, add(CFA_XSP16, literal(-9)))
          CFI R7 load(1, XDATA, add(CFA_XSP16, literal(-6)))
          CFI V0 load(1, XDATA, add(CFA_XSP16, literal(-7)))
          CFI ?BRET_EXT load(1, XDATA, add(CFA_XSP16, literal(-3)))
          CFI ?RET_HIGH load(1, XDATA, add(CFA_XSP16, literal(-4)))
          CFI ?RET_LOW load(1, XDATA, add(CFA_XSP16, literal(-5)))
        MOV     R7,#0x1
        LJMP    ?BANKED_LEAVE_XDATA
          CFI EndBlock cfiBlock1
//  216 
//  217 /***************************************************************************************************
//  218  * @fn      MT_AfCommandProcessing
//  219  *
//  220  * @brief   Process all the AF commands that are issued by test tool
//  221  *
//  222  * @param   pBuf - pointer to the received buffer
//  223  *
//  224  * @return  status
//  225  ***************************************************************************************************/

        RSEG BANKED_CODE:HUGECODE:NOROOT(0)
//  226 uint8 MT_AfCommandProcessing(uint8 *pBuf)
MT_AfCommandProcessing:
          CFI Block cfiBlock2 Using cfiCommon0
          CFI Function MT_AfCommandProcessing
        CODE
//  227 {
        FUNCALL MT_AfCommandProcessing, MT_AfRegister
        LOCFRAME ISTACK, 0, STACK
        LOCFRAME PSTACK, 0, STACK
        LOCFRAME XSTACK, 9, STACK
        LOCFRAME IOVERLAY, 0, STATIC
        LOCFRAME DOVERLAY, 0, STATIC
        ARGFRAME ISTACK, 0, STACK
        ARGFRAME PSTACK, 0, STACK
        ARGFRAME XSTACK, 9, STACK
        ARGFRAME IOVERLAY, 0, STATIC
        ARGFRAME DOVERLAY, 0, STATIC
        FUNCALL MT_AfCommandProcessing, MT_AfDataRequest
        LOCFRAME ISTACK, 0, STACK
        LOCFRAME PSTACK, 0, STACK
        LOCFRAME XSTACK, 9, STACK
        LOCFRAME IOVERLAY, 0, STATIC
        LOCFRAME DOVERLAY, 0, STATIC
        ARGFRAME ISTACK, 0, STACK
        ARGFRAME PSTACK, 0, STACK
        ARGFRAME XSTACK, 9, STACK
        ARGFRAME IOVERLAY, 0, STATIC
        ARGFRAME DOVERLAY, 0, STATIC
        FUNCALL MT_AfCommandProcessing, MT_AfDataRetrieve
        LOCFRAME ISTACK, 0, STACK
        LOCFRAME PSTACK, 0, STACK
        LOCFRAME XSTACK, 9, STACK
        LOCFRAME IOVERLAY, 0, STATIC
        LOCFRAME DOVERLAY, 0, STATIC
        ARGFRAME ISTACK, 0, STACK
        ARGFRAME PSTACK, 0, STACK
        ARGFRAME XSTACK, 9, STACK
        ARGFRAME IOVERLAY, 0, STATIC
        ARGFRAME DOVERLAY, 0, STATIC
        FUNCALL MT_AfCommandProcessing, MT_AfDataStore
        LOCFRAME ISTACK, 0, STACK
        LOCFRAME PSTACK, 0, STACK
        LOCFRAME XSTACK, 9, STACK
        LOCFRAME IOVERLAY, 0, STATIC
        LOCFRAME DOVERLAY, 0, STATIC
        ARGFRAME ISTACK, 0, STACK
        ARGFRAME PSTACK, 0, STACK
        ARGFRAME XSTACK, 9, STACK
        ARGFRAME IOVERLAY, 0, STATIC
        ARGFRAME DOVERLAY, 0, STATIC
        MOV     A,#-0x9
        LCALL   ?BANKED_ENTER_XDATA
          CFI DPH0 load(1, XDATA, add(CFA_XSP16, literal(-1)))
          CFI DPL0 load(1, XDATA, add(CFA_XSP16, literal(-2)))
          CFI ?BRET_EXT load(1, XDATA, add(CFA_XSP16, literal(-3)))
          CFI ?RET_HIGH load(1, XDATA, add(CFA_XSP16, literal(-4)))
          CFI ?RET_LOW load(1, XDATA, add(CFA_XSP16, literal(-5)))
          CFI R7 load(1, XDATA, add(CFA_XSP16, literal(-6)))
          CFI V0 load(1, XDATA, add(CFA_XSP16, literal(-7)))
          CFI VB load(1, XDATA, add(CFA_XSP16, literal(-8)))
          CFI R6 load(1, XDATA, add(CFA_XSP16, literal(-9)))
          CFI CFA_SP SP+0
          CFI CFA_XSP16 add(XSP16, 9)
        ; Saved register size: 9
        ; Auto size: 0
//  228   uint8 status = MT_RPC_SUCCESS;
        MOV     R6,#0x0
//  229 
//  230   switch (pBuf[MT_RPC_POS_CMD1])
        MOV     DPL,R2
        MOV     DPH,R3
        INC     DPTR
        INC     DPTR
        MOVX    A,@DPTR
        JZ      ??MT_AfCommandProcessing_0
        DEC     A
        JZ      ??MT_AfCommandProcessing_1
        DEC     A
        JZ      ??MT_AfCommandProcessing_1
        ADD     A,#-0xf
        JZ      ??MT_AfCommandProcessing_2
        DEC     A
        JZ      ??MT_AfCommandProcessing_3
        SJMP    ??MT_AfCommandProcessing_4
//  231   {
//  232     case MT_AF_REGISTER:
//  233       MT_AfRegister(pBuf);
??MT_AfCommandProcessing_0:
        ; Setup parameters for call to function MT_AfRegister
        LCALL   `??MT_AfRegister::?relay`; Banked call to: MT_AfRegister
//  234       break;
        SJMP    ??MT_AfCommandProcessing_5
//  235 
//  236     case MT_AF_DATA_REQUEST:
//  237     case MT_AF_DATA_REQUEST_EXT:
//  238       MT_AfDataRequest(pBuf);
??MT_AfCommandProcessing_1:
        ; Setup parameters for call to function MT_AfDataRequest
        LCALL   `??MT_AfDataRequest::?relay`; Banked call to: MT_AfDataRequest
//  239       break;
        SJMP    ??MT_AfCommandProcessing_5
//  240 
//  241     case MT_AF_DATA_RETRIEVE:
//  242       MT_AfDataRetrieve(pBuf);
??MT_AfCommandProcessing_3:
        ; Setup parameters for call to function MT_AfDataRetrieve
        LCALL   `??MT_AfDataRetrieve::?relay`; Banked call to: MT_AfDataRetrieve
//  243       break;
        SJMP    ??MT_AfCommandProcessing_5
//  244       
//  245     case MT_AF_DATA_STORE:
//  246       MT_AfDataStore(pBuf);
??MT_AfCommandProcessing_2:
        ; Setup parameters for call to function MT_AfDataStore
        LCALL   `??MT_AfDataStore::?relay`; Banked call to: MT_AfDataStore
//  247       break;
        SJMP    ??MT_AfCommandProcessing_5
//  248       
//  249 #if defined ( ZIGBEE_SOURCE_ROUTING )
//  250     case MT_AF_DATA_REQUEST_SRCRTG:
//  251       MT_AfDataRequestSrcRtg(pBuf);
//  252       break;
//  253 #endif
//  254       
//  255 #if defined INTER_PAN
//  256     case MT_AF_INTER_PAN_CTL:
//  257       MT_AfInterPanCtl(pBuf);
//  258       break; 
//  259 #endif
//  260       
//  261     default:
//  262       status = MT_RPC_ERR_COMMAND_ID;
??MT_AfCommandProcessing_4:
        MOV     R6,#0x2
//  263       break;
//  264   }
//  265 
//  266   return status;
??MT_AfCommandProcessing_5:
        MOV     A,R6
        MOV     R1,A
        SJMP    ?Subroutine0
//  267 }
          CFI EndBlock cfiBlock2
//  268 
//  269 /***************************************************************************************************
//  270  * @fn      MT_AfRegister
//  271  *
//  272  * @brief   Process AF Register command
//  273  *
//  274  * @param   pBuf - pointer to the received buffer
//  275  *
//  276  * @return  none
//  277  ***************************************************************************************************/

        RSEG BANKED_CODE:HUGECODE:NOROOT(0)
//  278 void MT_AfRegister(uint8 *pBuf)
MT_AfRegister:
          CFI Block cfiBlock3 Using cfiCommon0
          CFI Function MT_AfRegister
        CODE
//  279 {
        FUNCALL MT_AfRegister, osal_mem_alloc
        LOCFRAME ISTACK, 0, STACK
        LOCFRAME PSTACK, 0, STACK
        LOCFRAME XSTACK, 15, STACK
        LOCFRAME IOVERLAY, 0, STATIC
        LOCFRAME DOVERLAY, 0, STATIC
        ARGFRAME ISTACK, 0, STACK
        ARGFRAME PSTACK, 0, STACK
        ARGFRAME XSTACK, 15, STACK
        ARGFRAME IOVERLAY, 0, STATIC
        ARGFRAME DOVERLAY, 0, STATIC
        FUNCALL MT_AfRegister, MT_BuildEndpointDesc
        LOCFRAME ISTACK, 0, STACK
        LOCFRAME PSTACK, 0, STACK
        LOCFRAME XSTACK, 15, STACK
        LOCFRAME IOVERLAY, 0, STATIC
        LOCFRAME DOVERLAY, 0, STATIC
        ARGFRAME ISTACK, 0, STACK
        ARGFRAME PSTACK, 0, STACK
        ARGFRAME XSTACK, 15, STACK
        ARGFRAME IOVERLAY, 0, STATIC
        ARGFRAME DOVERLAY, 0, STATIC
        FUNCALL MT_AfRegister, afRegister
        LOCFRAME ISTACK, 0, STACK
        LOCFRAME PSTACK, 0, STACK
        LOCFRAME XSTACK, 15, STACK
        LOCFRAME IOVERLAY, 0, STATIC
        LOCFRAME DOVERLAY, 0, STATIC
        ARGFRAME ISTACK, 0, STACK
        ARGFRAME PSTACK, 0, STACK
        ARGFRAME XSTACK, 15, STACK
        ARGFRAME IOVERLAY, 0, STATIC
        ARGFRAME DOVERLAY, 0, STATIC
        FUNCALL MT_AfRegister, osal_mem_free
        LOCFRAME ISTACK, 0, STACK
        LOCFRAME PSTACK, 0, STACK
        LOCFRAME XSTACK, 15, STACK
        LOCFRAME IOVERLAY, 0, STATIC
        LOCFRAME DOVERLAY, 0, STATIC
        ARGFRAME ISTACK, 0, STACK
        ARGFRAME PSTACK, 0, STACK
        ARGFRAME XSTACK, 15, STACK
        ARGFRAME IOVERLAY, 0, STATIC
        ARGFRAME DOVERLAY, 0, STATIC
        FUNCALL MT_AfRegister, MT_BuildAndSendZToolResponse
        LOCFRAME ISTACK, 0, STACK
        LOCFRAME PSTACK, 0, STACK
        LOCFRAME XSTACK, 15, STACK
        LOCFRAME IOVERLAY, 0, STATIC
        LOCFRAME DOVERLAY, 0, STATIC
        ARGFRAME ISTACK, 0, STACK
        ARGFRAME PSTACK, 0, STACK
        ARGFRAME XSTACK, 15, STACK
        ARGFRAME IOVERLAY, 0, STATIC
        ARGFRAME DOVERLAY, 0, STATIC
        REQUIRE ?V0
        REQUIRE ?V2
        REQUIRE ?V3
        REQUIRE ?V4
        REQUIRE ?V5
        MOV     A,#-0xe
        LCALL   ?BANKED_ENTER_XDATA
          CFI DPH0 load(1, XDATA, add(CFA_XSP16, literal(-1)))
          CFI DPL0 load(1, XDATA, add(CFA_XSP16, literal(-2)))
          CFI ?BRET_EXT load(1, XDATA, add(CFA_XSP16, literal(-3)))
          CFI ?RET_HIGH load(1, XDATA, add(CFA_XSP16, literal(-4)))
          CFI ?RET_LOW load(1, XDATA, add(CFA_XSP16, literal(-5)))
          CFI R7 load(1, XDATA, add(CFA_XSP16, literal(-6)))
          CFI V5 load(1, XDATA, add(CFA_XSP16, literal(-7)))
          CFI V4 load(1, XDATA, add(CFA_XSP16, literal(-8)))
          CFI V3 load(1, XDATA, add(CFA_XSP16, literal(-9)))
          CFI V2 load(1, XDATA, add(CFA_XSP16, literal(-10)))
          CFI V1 load(1, XDATA, add(CFA_XSP16, literal(-11)))
          CFI V0 load(1, XDATA, add(CFA_XSP16, literal(-12)))
          CFI VB load(1, XDATA, add(CFA_XSP16, literal(-13)))
          CFI R6 load(1, XDATA, add(CFA_XSP16, literal(-14)))
          CFI CFA_SP SP+0
          CFI CFA_XSP16 add(XSP16, 14)
        ; Saved register size: 14
        ; Auto size: 1
        MOV     A,#-0x1
        LCALL   ?ALLOC_XSTACK8
          CFI CFA_XSP16 add(XSP16, 15)
        MOV     ?V2,R2
        MOV     ?V3,R3
//  280   uint8 cmdId;
//  281   uint8 retValue = ZMemError;
        MOV     DPL,?XSP + 0
        MOV     DPH,?XSP + 1
        MOV     A,#0x10
        LCALL   ?Subroutine35 & 0xFFFF
//  282   endPointDesc_t *epDesc;
//  283 
//  284   /* parse header */
//  285   cmdId = pBuf[MT_RPC_POS_CMD1];
??CrossCallReturnLabel_70:
        MOV     ?V0,A
//  286   pBuf += MT_RPC_FRAME_HDR_SZ;
//  287 
//  288   epDesc = (endPointDesc_t *)osal_mem_alloc(sizeof(endPointDesc_t));
        ; Setup parameters for call to function osal_mem_alloc
        MOV     R2,#0x6
        MOV     R3,#0x0
        LCALL   `??osal_mem_alloc::?relay`; Banked call to: osal_mem_alloc
        MOV     ?V4,R2
        MOV     ?V5,R3
        MOV     R6,?V4
        MOV     R7,?V5
//  289   if ( epDesc )
        MOV     A,R6
        ORL     A,R7
        JZ      ??MT_AfRegister_0
//  290   {
//  291     epDesc->task_id = &MT_TaskID;
        MOV     DPL,R6
        MOV     DPH,R7
        INC     DPTR
        MOV     A,#MT_TaskID & 0xff
        MOVX    @DPTR,A
        INC     DPTR
        MOV     A,#(MT_TaskID >> 8) & 0xff
        MOVX    @DPTR,A
//  292     retValue = MT_BuildEndpointDesc( pBuf, epDesc );
        ; Setup parameters for call to function MT_BuildEndpointDesc
        MOV     A,R6
        MOV     R4,A
        MOV     A,R7
        MOV     R5,A
        MOV     A,?V2
        ADD     A,#0x3
        MOV     R2,A
        CLR     A
        ADDC    A,?V3
        MOV     R3,A
        LCALL   `??MT_BuildEndpointDesc::?relay`; Banked call to: MT_BuildEndpointDesc
        MOV     A,R1
        MOV     DPL,?XSP + 0
        MOV     DPH,?XSP + 1
        MOVX    @DPTR,A
//  293     if ( retValue == ZSuccess )
        JNZ     ??MT_AfRegister_1
//  294     {
//  295       retValue = afRegister( epDesc );
        ; Setup parameters for call to function afRegister
        MOV     A,R6
        MOV     R2,A
        MOV     A,R7
        MOV     R3,A
        LCALL   `??afRegister::?relay`; Banked call to: afRegister
        MOV     A,R1
        MOV     DPL,?XSP + 0
        MOV     DPH,?XSP + 1
        MOVX    @DPTR,A
//  296     }
//  297 
//  298     if ( retValue != ZSuccess )
??MT_AfRegister_1:
        MOVX    A,@DPTR
        JZ      ??MT_AfRegister_0
//  299     {
//  300       osal_mem_free( epDesc );
        ; Setup parameters for call to function osal_mem_free
        MOV     A,R6
        MOV     R2,A
        MOV     A,R7
        MOV     R3,A
        LCALL   `??osal_mem_free::?relay`; Banked call to: osal_mem_free
//  301     }
//  302   }
//  303 
//  304   /* Build and send back the response */
//  305   MT_BuildAndSendZToolResponse(((uint8)MT_RPC_CMD_SRSP | (uint8)MT_RPC_SYS_AF), cmdId, 1, &retValue);
??MT_AfRegister_0:
        ; Setup parameters for call to function MT_BuildAndSendZToolResponse
        MOV     R4,?XSP + 0
        MOV     R5,?XSP + 1
        MOV     R3,#0x1
        MOV     R2,?V0
        MOV     R1,#0x64
        LCALL   `??MT_BuildAndSendZToolResponse::?relay`; Banked call to: MT_BuildAndSendZToolResponse
//  306 }
        MOV     A,#0x1
        LCALL   ?DEALLOC_XSTACK8
          CFI CFA_XSP16 add(XSP16, 14)
        MOV     R7,#0x6
        LJMP    ?BANKED_LEAVE_XDATA
          CFI EndBlock cfiBlock3
//  307 
//  308 /***************************************************************************************************
//  309  * @fn      MT_AfDataRequest
//  310  *
//  311  * @brief   Process AF Register command
//  312  *
//  313  * @param   pBuf - pointer to the received buffer
//  314  *
//  315  * @return  none
//  316  ***************************************************************************************************/

        RSEG BANKED_CODE:HUGECODE:NOROOT(0)
//  317 void MT_AfDataRequest(uint8 *pBuf)
MT_AfDataRequest:
          CFI Block cfiBlock4 Using cfiCommon0
          CFI Function MT_AfDataRequest
        CODE
//  318 {
        FUNCALL MT_AfDataRequest, osal_memcpy
        LOCFRAME ISTACK, 0, STACK
        LOCFRAME PSTACK, 0, STACK
        LOCFRAME XSTACK, 36, STACK
        LOCFRAME IOVERLAY, 0, STATIC
        LOCFRAME DOVERLAY, 0, STATIC
        ARGFRAME ISTACK, 0, STACK
        ARGFRAME PSTACK, 0, STACK
        ARGFRAME XSTACK, 36, STACK
        ARGFRAME IOVERLAY, 0, STATIC
        ARGFRAME DOVERLAY, 0, STATIC
        FUNCALL MT_AfDataRequest, afFindEndPointDesc
        LOCFRAME ISTACK, 0, STACK
        LOCFRAME PSTACK, 0, STACK
        LOCFRAME XSTACK, 33, STACK
        LOCFRAME IOVERLAY, 0, STATIC
        LOCFRAME DOVERLAY, 0, STATIC
        ARGFRAME ISTACK, 0, STACK
        ARGFRAME PSTACK, 0, STACK
        ARGFRAME XSTACK, 33, STACK
        ARGFRAME IOVERLAY, 0, STATIC
        ARGFRAME DOVERLAY, 0, STATIC
        FUNCALL MT_AfDataRequest, osal_mem_alloc
        LOCFRAME ISTACK, 0, STACK
        LOCFRAME PSTACK, 0, STACK
        LOCFRAME XSTACK, 33, STACK
        LOCFRAME IOVERLAY, 0, STATIC
        LOCFRAME DOVERLAY, 0, STATIC
        ARGFRAME ISTACK, 0, STACK
        ARGFRAME PSTACK, 0, STACK
        ARGFRAME XSTACK, 33, STACK
        ARGFRAME IOVERLAY, 0, STATIC
        ARGFRAME DOVERLAY, 0, STATIC
        FUNCALL MT_AfDataRequest, osal_memcpy
        LOCFRAME ISTACK, 0, STACK
        LOCFRAME PSTACK, 0, STACK
        LOCFRAME XSTACK, 36, STACK
        LOCFRAME IOVERLAY, 0, STATIC
        LOCFRAME DOVERLAY, 0, STATIC
        ARGFRAME ISTACK, 0, STACK
        ARGFRAME PSTACK, 0, STACK
        ARGFRAME XSTACK, 36, STACK
        ARGFRAME IOVERLAY, 0, STATIC
        ARGFRAME DOVERLAY, 0, STATIC
        FUNCALL MT_AfDataRequest, osal_start_timerEx
        LOCFRAME ISTACK, 0, STACK
        LOCFRAME PSTACK, 0, STACK
        LOCFRAME XSTACK, 33, STACK
        LOCFRAME IOVERLAY, 0, STATIC
        LOCFRAME DOVERLAY, 0, STATIC
        ARGFRAME ISTACK, 0, STACK
        ARGFRAME PSTACK, 0, STACK
        ARGFRAME XSTACK, 33, STACK
        ARGFRAME IOVERLAY, 0, STATIC
        ARGFRAME DOVERLAY, 0, STATIC
        FUNCALL MT_AfDataRequest, osal_set_event
        LOCFRAME ISTACK, 0, STACK
        LOCFRAME PSTACK, 0, STACK
        LOCFRAME XSTACK, 33, STACK
        LOCFRAME IOVERLAY, 0, STATIC
        LOCFRAME DOVERLAY, 0, STATIC
        ARGFRAME ISTACK, 0, STACK
        ARGFRAME PSTACK, 0, STACK
        ARGFRAME XSTACK, 33, STACK
        ARGFRAME IOVERLAY, 0, STATIC
        ARGFRAME DOVERLAY, 0, STATIC
        FUNCALL MT_AfDataRequest, AF_DataRequest
        LOCFRAME ISTACK, 0, STACK
        LOCFRAME PSTACK, 0, STACK
        LOCFRAME XSTACK, 42, STACK
        LOCFRAME IOVERLAY, 0, STATIC
        LOCFRAME DOVERLAY, 0, STATIC
        ARGFRAME ISTACK, 0, STACK
        ARGFRAME PSTACK, 0, STACK
        ARGFRAME XSTACK, 42, STACK
        ARGFRAME IOVERLAY, 0, STATIC
        ARGFRAME DOVERLAY, 0, STATIC
        FUNCALL MT_AfDataRequest, MT_BuildAndSendZToolResponse
        LOCFRAME ISTACK, 0, STACK
        LOCFRAME PSTACK, 0, STACK
        LOCFRAME XSTACK, 33, STACK
        LOCFRAME IOVERLAY, 0, STATIC
        LOCFRAME DOVERLAY, 0, STATIC
        ARGFRAME ISTACK, 0, STACK
        ARGFRAME PSTACK, 0, STACK
        ARGFRAME XSTACK, 33, STACK
        ARGFRAME IOVERLAY, 0, STATIC
        ARGFRAME DOVERLAY, 0, STATIC
        REQUIRE ?V0
        REQUIRE ?V1
        REQUIRE ?V2
        REQUIRE ?V3
        REQUIRE ?V4
        REQUIRE ?V5
        REQUIRE ?V6
        REQUIRE ?V7
        MOV     A,#-0x10
        LCALL   ?BANKED_ENTER_XDATA
          CFI DPH0 load(1, XDATA, add(CFA_XSP16, literal(-1)))
          CFI DPL0 load(1, XDATA, add(CFA_XSP16, literal(-2)))
          CFI ?BRET_EXT load(1, XDATA, add(CFA_XSP16, literal(-3)))
          CFI ?RET_HIGH load(1, XDATA, add(CFA_XSP16, literal(-4)))
          CFI ?RET_LOW load(1, XDATA, add(CFA_XSP16, literal(-5)))
          CFI R7 load(1, XDATA, add(CFA_XSP16, literal(-6)))
          CFI V7 load(1, XDATA, add(CFA_XSP16, literal(-7)))
          CFI V6 load(1, XDATA, add(CFA_XSP16, literal(-8)))
          CFI V5 load(1, XDATA, add(CFA_XSP16, literal(-9)))
          CFI V4 load(1, XDATA, add(CFA_XSP16, literal(-10)))
          CFI V3 load(1, XDATA, add(CFA_XSP16, literal(-11)))
          CFI V2 load(1, XDATA, add(CFA_XSP16, literal(-12)))
          CFI V1 load(1, XDATA, add(CFA_XSP16, literal(-13)))
          CFI V0 load(1, XDATA, add(CFA_XSP16, literal(-14)))
          CFI VB load(1, XDATA, add(CFA_XSP16, literal(-15)))
          CFI R6 load(1, XDATA, add(CFA_XSP16, literal(-16)))
          CFI CFA_SP SP+0
          CFI CFA_XSP16 add(XSP16, 16)
        ; Saved register size: 16
        ; Auto size: 17
        MOV     A,#-0x11
        LCALL   ?ALLOC_XSTACK8
          CFI CFA_XSP16 add(XSP16, 33)
        MOV     ?V1,R3
//  319   #define MT_AF_REQ_MSG_LEN  10
//  320   #define MT_AF_REQ_MSG_EXT  10
//  321 
//  322   endPointDesc_t *epDesc;
//  323   afAddrType_t dstAddr;
//  324   cId_t cId;
//  325   uint8 transId, txOpts, radius;
//  326   uint8 cmd0, cmd1;
//  327   uint8 retValue = ZFailure;
        MOV     DPL,?XSP + 0
        MOV     DPH,?XSP + 1
        MOV     A,#0x1
        LCALL   ?Subroutine46 & 0xFFFF
//  328   uint16 dataLen, tempLen;
//  329 
//  330   /* Parse header */
//  331   cmd0 = pBuf[MT_RPC_POS_CMD0];
??CrossCallReturnLabel_85:
        MOVX    A,@DPTR
        PUSH    A
          CFI CFA_SP SP+-1
        MOV     A,#0x4
        LCALL   ?XSTACK_DISP0_8
        POP     A
          CFI CFA_SP SP+0
        LCALL   ?Subroutine35 & 0xFFFF
//  332   cmd1 = pBuf[MT_RPC_POS_CMD1];
??CrossCallReturnLabel_71:
        MOV     ?V7,A
//  333   pBuf += MT_RPC_FRAME_HDR_SZ;
        MOV     A,R2
        ADD     A,#0x3
        MOV     ?V0,A
        JNC     ??MT_AfDataRequest_0
        INC     ?V1
//  334 
//  335   if (cmd1 == MT_AF_DATA_REQUEST_EXT)
??MT_AfDataRequest_0:
        MOV     A,#0x2
        XRL     A,?V7
        JZ      $+5
        LJMP    ??MT_AfDataRequest_1 & 0xFFFF
//  336   {
//  337     dstAddr.addrMode = (afAddrMode_t)*pBuf++;
        MOV     DPL,?V0
        MOV     DPH,?V1
        MOVX    A,@DPTR
        MOV     R0,A
        MOV     A,#0xd
        LCALL   ?XSTACK_DISP0_8
        MOV     A,R0
        LCALL   ?Subroutine32 & 0xFFFF
//  338 
//  339     if (dstAddr.addrMode == afAddr64Bit)
??CrossCallReturnLabel_55:
        MOV     A,#0x3
        XRL     A,R0
        JNZ     ??MT_AfDataRequest_2
//  340     {
//  341       (void)osal_memcpy(dstAddr.addr.extAddr, pBuf, Z_EXTADDR_LEN);
        ; Setup parameters for call to function osal_memcpy
        MOV     ?V4,?V0
        MOV     ?V5,?V1
        MOV     ?V6,#0x0
        MOV     R0,#?V4
        LCALL   ?PUSH_XSTACK_I_THREE
          CFI CFA_XSP16 add(XSP16, 36)
        MOV     R4,#0x8
        MOV     R5,#0x0
        MOV     A,R4
        LCALL   ?XSTACK_DISP101_8
        LCALL   `??osal_memcpy::?relay`; Banked call to: osal_memcpy
        MOV     A,#0x3
        LCALL   ?DEALLOC_XSTACK8
          CFI CFA_XSP16 add(XSP16, 33)
        SJMP    ??CrossCallReturnLabel_60
//  342     }
//  343     else
//  344     {
//  345       dstAddr.addr.shortAddr = BUILD_UINT16(pBuf[0], pBuf[1]);
??MT_AfDataRequest_2:
        LCALL   ?Subroutine26 & 0xFFFF
//  346     }
??CrossCallReturnLabel_41:
        LCALL   ?XSTACK_DISP0_8
        LCALL   ?Subroutine34 & 0xFFFF
//  347     pBuf += Z_EXTADDR_LEN;
//  348 
//  349     dstAddr.endPoint = *pBuf++;
??CrossCallReturnLabel_60:
        MOV     DPL,?V0
        MOV     DPH,?V1
        INC     DPTR
        INC     DPTR
        INC     DPTR
        INC     DPTR
        INC     DPTR
        INC     DPTR
        INC     DPTR
        INC     DPTR
        MOVX    A,@DPTR
        PUSH    A
          CFI CFA_SP SP+-1
        MOV     A,#0xe
        LCALL   ?XSTACK_DISP0_8
        POP     A
          CFI CFA_SP SP+0
        MOVX    @DPTR,A
        MOV     A,?V0
        ADD     A,#0x9
        MOV     ?V0,A
        JNC     ??MT_AfDataRequest_3
        INC     ?V1
//  350     dstAddr.panId = BUILD_UINT16(pBuf[0], pBuf[1]);
??MT_AfDataRequest_3:
        MOV     DPL,A
        MOV     DPH,?V1
        MOVX    A,@DPTR
        MOV     R2,A
        INC     DPTR
        MOVX    A,@DPTR
        MOV     R1,A
        MOV     A,R2
        MOV     R0,A
        MOV     A,#0xf
        LCALL   ?XSTACK_DISP0_8
        LCALL   ?Subroutine34 & 0xFFFF
//  351     pBuf += 2;
??CrossCallReturnLabel_61:
        MOV     A,?V0
        ADD     A,#0x2
        MOV     ?V0,A
        JNC     ??MT_AfDataRequest_4
        INC     ?V1
        SJMP    ??MT_AfDataRequest_4
//  352   }
//  353   else
//  354   {
//  355     /* Destination address */
//  356     dstAddr.addrMode = afAddr16Bit;
??MT_AfDataRequest_1:
        MOV     A,#0xd
        LCALL   ?XSTACK_DISP0_8
        MOV     A,#0x2
        MOVX    @DPTR,A
//  357     dstAddr.addr.shortAddr = BUILD_UINT16(pBuf[0], pBuf[1]);
        MOV     DPL,?V0
        MOV     DPH,?V1
        LCALL   ?Subroutine26 & 0xFFFF
??CrossCallReturnLabel_42:
        LCALL   ?XSTACK_DISP0_8
        LCALL   ?Subroutine34 & 0xFFFF
//  358     pBuf += 2;
//  359 
//  360     /* Destination endpoint */
//  361     dstAddr.endPoint = *pBuf++;
??CrossCallReturnLabel_62:
        MOV     DPL,?V0
        MOV     DPH,?V1
        INC     DPTR
        INC     DPTR
        MOVX    A,@DPTR
        PUSH    A
          CFI CFA_SP SP+-1
        MOV     A,#0xe
        LCALL   ?XSTACK_DISP0_8
        POP     A
          CFI CFA_SP SP+0
        MOVX    @DPTR,A
        MOV     A,?V0
        ADD     A,#0x3
        MOV     ?V0,A
        JNC     ??MT_AfDataRequest_5
        INC     ?V1
//  362     dstAddr.panId = 0;
??MT_AfDataRequest_5:
        MOV     A,#0xf
        LCALL   ?XSTACK_DISP0_8
        CLR     A
        MOVX    @DPTR,A
        INC     DPTR
        MOVX    @DPTR,A
//  363   }
//  364 
//  365   /* Source endpoint */
//  366   epDesc = afFindEndPointDesc(*pBuf++);
??MT_AfDataRequest_4:
        ; Setup parameters for call to function afFindEndPointDesc
        MOV     DPL,?V0
        MOV     DPH,?V1
        MOVX    A,@DPTR
        MOV     R1,A
        LCALL   `??afFindEndPointDesc::?relay`; Banked call to: afFindEndPointDesc
        MOV     A,#0x2
        LCALL   ?XSTACK_DISP0_8
        MOV     A,R2
        MOVX    @DPTR,A
        INC     DPTR
        MOV     A,R3
        LCALL   ?Subroutine32 & 0xFFFF
//  367 
//  368   /* ClusterId */
//  369   cId = BUILD_UINT16(pBuf[0], pBuf[1]);
??CrossCallReturnLabel_56:
        MOVX    A,@DPTR
        MOV     R2,A
        INC     DPTR
        MOVX    A,@DPTR
        MOV     R0,A
        CLR     A
        XCH     A,R0
        MOV     R1,A
        MOV     A,R2
        ADD     A,R0
        MOV     ?V4,A
        CLR     A
        ADDC    A,R1
        MOV     ?V5,A
//  370   pBuf +=2;
//  371 
//  372   /* TransId */
//  373   transId = *pBuf++;
        MOV     DPL,?V0
        MOV     DPH,?V1
        INC     DPTR
        INC     DPTR
        MOVX    A,@DPTR
        PUSH    A
          CFI CFA_SP SP+-1
        MOV     A,#0x1
        LCALL   ?XSTACK_DISP0_8
        POP     A
          CFI CFA_SP SP+0
        LCALL   ?Subroutine48 & 0xFFFF
//  374 
//  375   /* TxOption */
//  376   txOpts = *pBuf++;
??CrossCallReturnLabel_95:
        INC     DPTR
        INC     DPTR
        MOVX    A,@DPTR
        MOV     ?V6,A
//  377 
//  378   /* Radius */
//  379   radius = *pBuf++;
        MOV     DPL,?V0
        MOV     DPH,?V1
        INC     DPTR
        INC     DPTR
        INC     DPTR
        INC     DPTR
        MOVX    A,@DPTR
        MOV     ?V3,A
        MOV     A,?V0
        ADD     A,#0x5
        MOV     ?V0,A
        JNC     ??MT_AfDataRequest_6
        INC     ?V1
//  380 
//  381   /* Length */
//  382   if (cmd1 == MT_AF_DATA_REQUEST_EXT)
??MT_AfDataRequest_6:
        MOV     A,#0x2
        XRL     A,?V7
        MOV     DPL,?V0
        MOV     DPH,?V1
        JNZ     ??MT_AfDataRequest_7
//  383   {
//  384     dataLen = BUILD_UINT16(pBuf[0], pBuf[1]);
        MOVX    A,@DPTR
        MOV     R2,A
        INC     DPTR
        LCALL   ?Subroutine23 & 0xFFFF
//  385     tempLen = dataLen + MT_AF_REQ_MSG_LEN + MT_AF_REQ_MSG_EXT;
??CrossCallReturnLabel_35:
        MOV     A,R6
        ADD     A,#0x14
        MOV     R0,A
        CLR     A
        ADDC    A,R7
        MOV     R1,A
//  386     pBuf += 2;
        MOV     A,?V0
        ADD     A,#0x2
        MOV     ?V0,A
        JNC     ??MT_AfDataRequest_8
        INC     ?V1
        SJMP    ??MT_AfDataRequest_8
//  387   }
//  388   else
//  389   {
//  390     dataLen = *pBuf++;
??MT_AfDataRequest_7:
        MOVX    A,@DPTR
        MOV     R6,A
        MOV     R7,#0x0
        INC     DPTR
        MOV     ?V0,DPL
        MOV     ?V1,DPH
//  391     tempLen = dataLen + MT_AF_REQ_MSG_LEN;
        ADD     A,#0xa
        MOV     R0,A
        CLR     A
        ADDC    A,#0x0
        MOV     R1,A
//  392   }
//  393 
//  394   if ( epDesc == NULL )
??MT_AfDataRequest_8:
        MOV     A,#0x2
        LCALL   ?XSTACK_DISP0_8
        LCALL   ??Subroutine56_0 & 0xFFFF
??CrossCallReturnLabel_126:
        MOV     A,R2
        ORL     A,R3
        JZ      ??MT_AfDataRequest_9
//  395   {
//  396     retValue = afStatus_INVALID_PARAMETER;
//  397   }
//  398   else if (tempLen > (uint16)MT_RPC_DATA_MAX)
        CLR     C
        MOV     A,R0
        SUBB    A,#-0x5
        MOV     A,R1
        SUBB    A,#0x0
        JNC     $+5
        LJMP    ??MT_AfDataRequest_10 & 0xFFFF
//  399   {
//  400     if (pMtAfDataReq != NULL)
        LCALL   ?Subroutine2 & 0xFFFF
??CrossCallReturnLabel_151:
        JZ      ??MT_AfDataRequest_11
//  401     {
//  402       retValue = afStatus_INVALID_PARAMETER;
??MT_AfDataRequest_9:
        MOV     DPL,?XSP + 0
        MOV     DPH,?XSP + 1
        MOV     A,#0x2
        LJMP    ??MT_AfDataRequest_12 & 0xFFFF
//  403     }
//  404     else if ((pMtAfDataReq = osal_mem_alloc(sizeof(mtAfDataReq_t) + dataLen)) == NULL)
??MT_AfDataRequest_11:
        ; Setup parameters for call to function osal_mem_alloc
        MOV     A,R6
        ADD     A,#0x18
        MOV     R2,A
        CLR     A
        ADDC    A,R7
        MOV     R3,A
        LCALL   `??osal_mem_alloc::?relay`; Banked call to: osal_mem_alloc
        MOV     DPTR,#pMtAfDataReq
        MOV     A,R2
        MOVX    @DPTR,A
        INC     DPTR
        MOV     A,R3
        MOVX    @DPTR,A
        LCALL   ?Subroutine2 & 0xFFFF
??CrossCallReturnLabel_152:
        MOV     DPL,?XSP + 0
        MOV     DPH,?XSP + 1
        JNZ     ??MT_AfDataRequest_13
//  405     {
//  406       retValue = afStatus_MEM_FAIL;
        MOV     A,#0x10
        LJMP    ??MT_AfDataRequest_12 & 0xFFFF
//  407     }
//  408     else
//  409     {
//  410       retValue = afStatus_SUCCESS;
??MT_AfDataRequest_13:
        CLR     A
        MOVX    @DPTR,A
//  411 
//  412       pMtAfDataReq->data = (uint8 *)(pMtAfDataReq+1);
        MOV     DPTR,#pMtAfDataReq
        MOVX    A,@DPTR
        ADD     A,#0x18
        MOV     R2,A
        INC     DPTR
        MOVX    A,@DPTR
        ADDC    A,#0x0
        MOV     R3,A
        MOV     DPTR,#pMtAfDataReq
        LCALL   ?Subroutine24 & 0xFFFF
??CrossCallReturnLabel_37:
        INC     DPTR
        MOV     A,R3
        MOVX    @DPTR,A
//  413       (void)osal_memcpy(&(pMtAfDataReq->dstAddr), &dstAddr, sizeof(afAddrType_t));
        ; Setup parameters for call to function osal_memcpy
        MOV     A,#0x5
        LCALL   ?XSTACK_DISP100_8
        MOV     ?V0,R0
        MOV     ?V1,R1
        MOV     ?V2,#0x0
        MOV     R0,#?V0
        LCALL   ?PUSH_XSTACK_I_THREE
          CFI CFA_XSP16 add(XSP16, 36)
        MOV     R4,#0xc
        MOV     R5,#0x0
        LCALL   ?Subroutine27 & 0xFFFF
??CrossCallReturnLabel_43:
        LCALL   `??osal_memcpy::?relay`; Banked call to: osal_memcpy
        MOV     A,#0x3
        LCALL   ?DEALLOC_XSTACK8
          CFI CFA_XSP16 add(XSP16, 33)
//  414       pMtAfDataReq->epDesc = epDesc;
        MOV     A,#0x2
        LCALL   ?XSTACK_DISP0_8
        LCALL   ??Subroutine56_0 & 0xFFFF
??CrossCallReturnLabel_127:
        MOV     DPTR,#pMtAfDataReq
        LCALL   ??Subroutine54_0 & 0xFFFF
??CrossCallReturnLabel_113:
        ADD     A,#0xe
        MOV     DPL,A
        CLR     A
        ADDC    A,R0
        MOV     DPH,A
        MOV     A,R2
        MOVX    @DPTR,A
        INC     DPTR
        MOV     A,R3
        MOVX    @DPTR,A
//  415       pMtAfDataReq->cId = cId;
        LCALL   ?Subroutine16 & 0xFFFF
??CrossCallReturnLabel_25:
        MOV     A,?V4
        MOVX    @DPTR,A
        INC     DPTR
        MOV     A,?V5
        MOVX    @DPTR,A
//  416       pMtAfDataReq->dataLen = dataLen;
        LCALL   ?Subroutine17 & 0xFFFF
??CrossCallReturnLabel_27:
        MOV     A,R6
        MOVX    @DPTR,A
        INC     DPTR
        MOV     A,R7
        MOVX    @DPTR,A
//  417       pMtAfDataReq->transId = transId;
        MOV     A,#0x1
        LCALL   ?XSTACK_DISP0_8
        MOVX    A,@DPTR
        PUSH    A
          CFI CFA_SP SP+-1
        MOV     DPTR,#pMtAfDataReq
        LCALL   ?Subroutine18 & 0xFFFF
??CrossCallReturnLabel_29:
        POP     A
          CFI CFA_SP SP+0
        MOVX    @DPTR,A
//  418       pMtAfDataReq->txOpts = txOpts;
        MOV     DPTR,#pMtAfDataReq
        LCALL   ??Subroutine54_0 & 0xFFFF
??CrossCallReturnLabel_114:
        ADD     A,#0x15
        MOV     DPL,A
        CLR     A
        ADDC    A,R0
        MOV     DPH,A
        MOV     A,?V6
        MOVX    @DPTR,A
//  419       pMtAfDataReq->radius = radius;
        MOV     DPTR,#pMtAfDataReq
        LCALL   ?Subroutine19 & 0xFFFF
??CrossCallReturnLabel_31:
        MOV     A,?V3
        LCALL   ?Subroutine15 & 0xFFFF
//  420 
//  421       // Setup to time-out the huge outgoing item if host does not MT_AF_DATA_STORE it.
//  422       pMtAfDataReq->tick = MT_AF_EXEC_CNT;
??CrossCallReturnLabel_23:
        LCALL   ?Subroutine33 & 0xFFFF
//  423       if (ZSuccess != osal_start_timerEx(MT_TaskID, MT_AF_EXEC_EVT, MT_AF_EXEC_DLY))
??CrossCallReturnLabel_57:
        LCALL   `??osal_start_timerEx::?relay`; Banked call to: osal_start_timerEx
        MOV     A,R1
        JZ      ??MT_AfDataRequest_14
//  424       {
//  425         (void)osal_set_event(MT_TaskID, MT_AF_EXEC_EVT);
        ; Setup parameters for call to function osal_set_event
        MOV     R2,#0x8
        MOV     R3,#0x0
        MOV     DPTR,#MT_TaskID
        MOVX    A,@DPTR
        MOV     R1,A
        LCALL   `??osal_set_event::?relay`; Banked call to: osal_set_event
        SJMP    ??MT_AfDataRequest_14
//  426       }
//  427     }
//  428   }
//  429   else
//  430   {
//  431     retValue = AF_DataRequest(&dstAddr, epDesc, cId, dataLen, pBuf, &transId, txOpts, radius);
??MT_AfDataRequest_10:
        ; Setup parameters for call to function AF_DataRequest
        MOV     A,?V3
        MOV     ?V2,A
        MOV     R0,#?V2
        LCALL   ?PUSH_XSTACK_I_ONE
          CFI CFA_XSP16 add(XSP16, 34)
        MOV     A,#0x2
        LCALL   ?XSTACK_DISP100_8
        MOV     ?V2,R0
        MOV     ?V3,R1
        MOV     R0,#?V2
        LCALL   ?PUSH_XSTACK_I_TWO
          CFI CFA_XSP16 add(XSP16, 36)
        MOV     R0,#?V0
        LCALL   ?PUSH_XSTACK_I_TWO
          CFI CFA_XSP16 add(XSP16, 38)
        MOV     ?V0,R6
        MOV     ?V1,R7
        MOV     R0,#?V0
        LCALL   ?PUSH_XSTACK_I_TWO
          CFI CFA_XSP16 add(XSP16, 40)
        MOV     R0,#?V4
        LCALL   ?PUSH_XSTACK_I_TWO
          CFI CFA_XSP16 add(XSP16, 42)
        MOV     R1,?V6
        MOV     A,#0xb
        LCALL   ?XSTACK_DISP0_8
        MOVX    A,@DPTR
        MOV     R4,A
        INC     DPTR
        MOVX    A,@DPTR
        MOV     R5,A
        MOV     A,#0xe
        LCALL   ?XSTACK_DISP101_8
        LCALL   `??AF_DataRequest::?relay`; Banked call to: AF_DataRequest
        MOV     A,#0x9
        LCALL   ?DEALLOC_XSTACK8
          CFI CFA_XSP16 add(XSP16, 33)
        MOV     A,R1
        MOV     DPL,?XSP + 0
        MOV     DPH,?XSP + 1
??MT_AfDataRequest_12:
        MOVX    @DPTR,A
//  432   }
//  433 
//  434   if (MT_RPC_CMD_SREQ == (cmd0 & MT_RPC_CMD_TYPE_MASK))
??MT_AfDataRequest_14:
        MOV     A,#0x4
        LCALL   ?XSTACK_DISP0_8
        MOVX    A,@DPTR
        ANL     A,#0xe0
        XRL     A,#0x20
        JNZ     ??MT_AfDataRequest_15
//  435   {
//  436     MT_BuildAndSendZToolResponse(((uint8)MT_RPC_CMD_SRSP|(uint8)MT_RPC_SYS_AF), cmd1, 1, &retValue);
        ; Setup parameters for call to function MT_BuildAndSendZToolResponse
        MOV     R4,?XSP + 0
        MOV     R5,?XSP + 1
        MOV     R3,#0x1
        MOV     R2,?V7
        MOV     R1,#0x64
        LCALL   `??MT_BuildAndSendZToolResponse::?relay`; Banked call to: MT_BuildAndSendZToolResponse
//  437   }
//  438 }
??MT_AfDataRequest_15:
        MOV     A,#0x11
          CFI EndBlock cfiBlock4
        REQUIRE ?Subroutine1
        ; // Fall through to label ?Subroutine1

        RSEG BANKED_CODE:HUGECODE:NOROOT(0)
?Subroutine1:
          CFI Block cfiBlock5 Using cfiCommon0
          CFI NoFunction
          CFI CFA_SP SP+0
          CFI CFA_XSP16 add(XSP16, 33)
          CFI VB load(1, XDATA, add(CFA_XSP16, literal(-15)))
          CFI DPL0 load(1, XDATA, add(CFA_XSP16, literal(-2)))
          CFI DPH0 load(1, XDATA, add(CFA_XSP16, literal(-1)))
          CFI R6 load(1, XDATA, add(CFA_XSP16, literal(-16)))
          CFI R7 load(1, XDATA, add(CFA_XSP16, literal(-6)))
          CFI V0 load(1, XDATA, add(CFA_XSP16, literal(-14)))
          CFI V1 load(1, XDATA, add(CFA_XSP16, literal(-13)))
          CFI V2 load(1, XDATA, add(CFA_XSP16, literal(-12)))
          CFI V3 load(1, XDATA, add(CFA_XSP16, literal(-11)))
          CFI V4 load(1, XDATA, add(CFA_XSP16, literal(-10)))
          CFI V5 load(1, XDATA, add(CFA_XSP16, literal(-9)))
          CFI V6 load(1, XDATA, add(CFA_XSP16, literal(-8)))
          CFI V7 load(1, XDATA, add(CFA_XSP16, literal(-7)))
          CFI ?BRET_EXT load(1, XDATA, add(CFA_XSP16, literal(-3)))
          CFI ?RET_HIGH load(1, XDATA, add(CFA_XSP16, literal(-4)))
          CFI ?RET_LOW load(1, XDATA, add(CFA_XSP16, literal(-5)))
          CFI Invalid
        LCALL   ?DEALLOC_XSTACK8
          CFI CFA_XSP16 add(XSP16, 16)
          CFI Valid
        MOV     R7,#0x8
        LJMP    ?BANKED_LEAVE_XDATA
          CFI EndBlock cfiBlock5

        RSEG BANKED_CODE:HUGECODE:NOROOT(0)
?Subroutine35:
          CFI Block cfiCond6 Using cfiCommon0
          CFI Function MT_AfRegister
          CFI Conditional ??CrossCallReturnLabel_70
          CFI R6 load(1, XDATA, add(CFA_XSP16, literal(-14)))
          CFI VB load(1, XDATA, add(CFA_XSP16, literal(-13)))
          CFI V0 load(1, XDATA, add(CFA_XSP16, literal(-12)))
          CFI V1 load(1, XDATA, add(CFA_XSP16, literal(-11)))
          CFI V2 load(1, XDATA, add(CFA_XSP16, literal(-10)))
          CFI V3 load(1, XDATA, add(CFA_XSP16, literal(-9)))
          CFI V4 load(1, XDATA, add(CFA_XSP16, literal(-8)))
          CFI V5 load(1, XDATA, add(CFA_XSP16, literal(-7)))
          CFI R7 load(1, XDATA, add(CFA_XSP16, literal(-6)))
          CFI ?RET_LOW load(1, XDATA, add(CFA_XSP16, literal(-5)))
          CFI ?RET_HIGH load(1, XDATA, add(CFA_XSP16, literal(-4)))
          CFI ?BRET_EXT load(1, XDATA, add(CFA_XSP16, literal(-3)))
          CFI DPL0 load(1, XDATA, add(CFA_XSP16, literal(-2)))
          CFI DPH0 load(1, XDATA, add(CFA_XSP16, literal(-1)))
          CFI CFA_SP SP+-2
          CFI CFA_XSP16 add(XSP16, 15)
          CFI Block cfiCond7 Using cfiCommon0
          CFI (cfiCond7) Function MT_AfDataRequest
          CFI (cfiCond7) Conditional ??CrossCallReturnLabel_71
          CFI (cfiCond7) R6 load(1, XDATA, add(CFA_XSP16, literal(-16)))
          CFI (cfiCond7) VB load(1, XDATA, add(CFA_XSP16, literal(-15)))
          CFI (cfiCond7) V0 load(1, XDATA, add(CFA_XSP16, literal(-14)))
          CFI (cfiCond7) V1 load(1, XDATA, add(CFA_XSP16, literal(-13)))
          CFI (cfiCond7) V2 load(1, XDATA, add(CFA_XSP16, literal(-12)))
          CFI (cfiCond7) V3 load(1, XDATA, add(CFA_XSP16, literal(-11)))
          CFI (cfiCond7) V4 load(1, XDATA, add(CFA_XSP16, literal(-10)))
          CFI (cfiCond7) V5 load(1, XDATA, add(CFA_XSP16, literal(-9)))
          CFI (cfiCond7) V6 load(1, XDATA, add(CFA_XSP16, literal(-8)))
          CFI (cfiCond7) V7 load(1, XDATA, add(CFA_XSP16, literal(-7)))
          CFI (cfiCond7) R7 load(1, XDATA, add(CFA_XSP16, literal(-6)))
          CFI (cfiCond7) ?RET_LOW load(1, XDATA, add(CFA_XSP16, literal(-5)))
          CFI (cfiCond7) ?RET_HIGH load(1, XDATA, add(CFA_XSP16, literal(-4)))
          CFI (cfiCond7) ?BRET_EXT load(1, XDATA, add(CFA_XSP16, literal(-3)))
          CFI (cfiCond7) DPL0 load(1, XDATA, add(CFA_XSP16, literal(-2)))
          CFI (cfiCond7) DPH0 load(1, XDATA, add(CFA_XSP16, literal(-1)))
          CFI (cfiCond7) CFA_SP SP+-2
          CFI (cfiCond7) CFA_XSP16 add(XSP16, 33)
          CFI Block cfiCond8 Using cfiCommon0
          CFI (cfiCond8) Function MT_AfDataConfirm
          CFI (cfiCond8) Conditional ??CrossCallReturnLabel_72
          CFI (cfiCond8) DPL0 Frame(CFA_SP, 4)
          CFI (cfiCond8) DPH0 Frame(CFA_SP, 5)
          CFI (cfiCond8) CFA_SP SP+-7
          CFI (cfiCond8) CFA_XSP16 add(XSP16, 3)
          CFI Block cfiPicker9 Using cfiCommon1
          CFI (cfiPicker9) NoFunction
          CFI (cfiPicker9) Picker
        LCALL   ?Subroutine46 & 0xFFFF
??CrossCallReturnLabel_86:
        INC     DPTR
        MOVX    A,@DPTR
        RET
          CFI EndBlock cfiCond6
          CFI EndBlock cfiCond7
          CFI EndBlock cfiCond8
          CFI EndBlock cfiPicker9

        RSEG BANKED_CODE:HUGECODE:NOROOT(0)
?Subroutine46:
          CFI Block cfiCond10 Using cfiCommon0
          CFI Function MT_AfDataRequest
          CFI Conditional ??CrossCallReturnLabel_85
          CFI R6 load(1, XDATA, add(CFA_XSP16, literal(-16)))
          CFI VB load(1, XDATA, add(CFA_XSP16, literal(-15)))
          CFI V0 load(1, XDATA, add(CFA_XSP16, literal(-14)))
          CFI V1 load(1, XDATA, add(CFA_XSP16, literal(-13)))
          CFI V2 load(1, XDATA, add(CFA_XSP16, literal(-12)))
          CFI V3 load(1, XDATA, add(CFA_XSP16, literal(-11)))
          CFI V4 load(1, XDATA, add(CFA_XSP16, literal(-10)))
          CFI V5 load(1, XDATA, add(CFA_XSP16, literal(-9)))
          CFI V6 load(1, XDATA, add(CFA_XSP16, literal(-8)))
          CFI V7 load(1, XDATA, add(CFA_XSP16, literal(-7)))
          CFI R7 load(1, XDATA, add(CFA_XSP16, literal(-6)))
          CFI ?RET_LOW load(1, XDATA, add(CFA_XSP16, literal(-5)))
          CFI ?RET_HIGH load(1, XDATA, add(CFA_XSP16, literal(-4)))
          CFI ?BRET_EXT load(1, XDATA, add(CFA_XSP16, literal(-3)))
          CFI DPL0 load(1, XDATA, add(CFA_XSP16, literal(-2)))
          CFI DPH0 load(1, XDATA, add(CFA_XSP16, literal(-1)))
          CFI CFA_SP SP+-2
          CFI CFA_XSP16 add(XSP16, 33)
          CFI Block cfiCond11 Using cfiCommon0
          CFI (cfiCond11) Function MT_AfRegister
          CFI (cfiCond11) Conditional ??CrossCallReturnLabel_86, ??CrossCallReturnLabel_70
          CFI (cfiCond11) R6 load(1, XDATA, add(CFA_XSP16, literal(-14)))
          CFI (cfiCond11) VB load(1, XDATA, add(CFA_XSP16, literal(-13)))
          CFI (cfiCond11) V0 load(1, XDATA, add(CFA_XSP16, literal(-12)))
          CFI (cfiCond11) V1 load(1, XDATA, add(CFA_XSP16, literal(-11)))
          CFI (cfiCond11) V2 load(1, XDATA, add(CFA_XSP16, literal(-10)))
          CFI (cfiCond11) V3 load(1, XDATA, add(CFA_XSP16, literal(-9)))
          CFI (cfiCond11) V4 load(1, XDATA, add(CFA_XSP16, literal(-8)))
          CFI (cfiCond11) V5 load(1, XDATA, add(CFA_XSP16, literal(-7)))
          CFI (cfiCond11) R7 load(1, XDATA, add(CFA_XSP16, literal(-6)))
          CFI (cfiCond11) ?RET_LOW load(1, XDATA, add(CFA_XSP16, literal(-5)))
          CFI (cfiCond11) ?RET_HIGH load(1, XDATA, add(CFA_XSP16, literal(-4)))
          CFI (cfiCond11) ?BRET_EXT load(1, XDATA, add(CFA_XSP16, literal(-3)))
          CFI (cfiCond11) DPL0 load(1, XDATA, add(CFA_XSP16, literal(-2)))
          CFI (cfiCond11) DPH0 load(1, XDATA, add(CFA_XSP16, literal(-1)))
          CFI (cfiCond11) CFA_SP SP+-4
          CFI (cfiCond11) CFA_XSP16 add(XSP16, 15)
          CFI Block cfiCond12 Using cfiCommon0
          CFI (cfiCond12) Function MT_AfDataRequest
          CFI (cfiCond12) Conditional ??CrossCallReturnLabel_86, ??CrossCallReturnLabel_71
          CFI (cfiCond12) R6 load(1, XDATA, add(CFA_XSP16, literal(-16)))
          CFI (cfiCond12) VB load(1, XDATA, add(CFA_XSP16, literal(-15)))
          CFI (cfiCond12) V0 load(1, XDATA, add(CFA_XSP16, literal(-14)))
          CFI (cfiCond12) V1 load(1, XDATA, add(CFA_XSP16, literal(-13)))
          CFI (cfiCond12) V2 load(1, XDATA, add(CFA_XSP16, literal(-12)))
          CFI (cfiCond12) V3 load(1, XDATA, add(CFA_XSP16, literal(-11)))
          CFI (cfiCond12) V4 load(1, XDATA, add(CFA_XSP16, literal(-10)))
          CFI (cfiCond12) V5 load(1, XDATA, add(CFA_XSP16, literal(-9)))
          CFI (cfiCond12) V6 load(1, XDATA, add(CFA_XSP16, literal(-8)))
          CFI (cfiCond12) V7 load(1, XDATA, add(CFA_XSP16, literal(-7)))
          CFI (cfiCond12) R7 load(1, XDATA, add(CFA_XSP16, literal(-6)))
          CFI (cfiCond12) ?RET_LOW load(1, XDATA, add(CFA_XSP16, literal(-5)))
          CFI (cfiCond12) ?RET_HIGH load(1, XDATA, add(CFA_XSP16, literal(-4)))
          CFI (cfiCond12) ?BRET_EXT load(1, XDATA, add(CFA_XSP16, literal(-3)))
          CFI (cfiCond12) DPL0 load(1, XDATA, add(CFA_XSP16, literal(-2)))
          CFI (cfiCond12) DPH0 load(1, XDATA, add(CFA_XSP16, literal(-1)))
          CFI (cfiCond12) CFA_SP SP+-4
          CFI (cfiCond12) CFA_XSP16 add(XSP16, 33)
          CFI Block cfiCond13 Using cfiCommon0
          CFI (cfiCond13) Function MT_AfDataConfirm
          CFI (cfiCond13) Conditional ??CrossCallReturnLabel_86, ??CrossCallReturnLabel_72
          CFI (cfiCond13) DPL0 Frame(CFA_SP, 4)
          CFI (cfiCond13) DPH0 Frame(CFA_SP, 5)
          CFI (cfiCond13) CFA_SP SP+-9
          CFI (cfiCond13) CFA_XSP16 add(XSP16, 3)
          CFI Block cfiCond14 Using cfiCommon0
          CFI (cfiCond14) Function MT_AfDataConfirm
          CFI (cfiCond14) Conditional ??CrossCallReturnLabel_87
          CFI (cfiCond14) DPL0 Frame(CFA_SP, 4)
          CFI (cfiCond14) DPH0 Frame(CFA_SP, 5)
          CFI (cfiCond14) CFA_SP SP+-7
          CFI (cfiCond14) CFA_XSP16 add(XSP16, 3)
          CFI Block cfiPicker15 Using cfiCommon1
          CFI (cfiPicker15) NoFunction
          CFI (cfiPicker15) Picker
        MOVX    @DPTR,A
        MOV     DPL,R2
        MOV     DPH,R3
        INC     DPTR
        RET
          CFI EndBlock cfiCond10
          CFI EndBlock cfiCond11
          CFI EndBlock cfiCond12
          CFI EndBlock cfiCond13
          CFI EndBlock cfiCond14
          CFI EndBlock cfiPicker15

        RSEG BANKED_CODE:HUGECODE:NOROOT(0)
?Subroutine32:
          CFI Block cfiCond16 Using cfiCommon0
          CFI Function MT_AfDataRequest
          CFI Conditional ??CrossCallReturnLabel_55
          CFI R6 load(1, XDATA, add(CFA_XSP16, literal(-16)))
          CFI VB load(1, XDATA, add(CFA_XSP16, literal(-15)))
          CFI V0 load(1, XDATA, add(CFA_XSP16, literal(-14)))
          CFI V1 load(1, XDATA, add(CFA_XSP16, literal(-13)))
          CFI V2 load(1, XDATA, add(CFA_XSP16, literal(-12)))
          CFI V3 load(1, XDATA, add(CFA_XSP16, literal(-11)))
          CFI V4 load(1, XDATA, add(CFA_XSP16, literal(-10)))
          CFI V5 load(1, XDATA, add(CFA_XSP16, literal(-9)))
          CFI V6 load(1, XDATA, add(CFA_XSP16, literal(-8)))
          CFI V7 load(1, XDATA, add(CFA_XSP16, literal(-7)))
          CFI R7 load(1, XDATA, add(CFA_XSP16, literal(-6)))
          CFI ?RET_LOW load(1, XDATA, add(CFA_XSP16, literal(-5)))
          CFI ?RET_HIGH load(1, XDATA, add(CFA_XSP16, literal(-4)))
          CFI ?BRET_EXT load(1, XDATA, add(CFA_XSP16, literal(-3)))
          CFI DPL0 load(1, XDATA, add(CFA_XSP16, literal(-2)))
          CFI DPH0 load(1, XDATA, add(CFA_XSP16, literal(-1)))
          CFI CFA_SP SP+-2
          CFI CFA_XSP16 add(XSP16, 33)
          CFI Block cfiCond17 Using cfiCommon0
          CFI (cfiCond17) Function MT_AfDataRequest
          CFI (cfiCond17) Conditional ??CrossCallReturnLabel_56
          CFI (cfiCond17) R6 load(1, XDATA, add(CFA_XSP16, literal(-16)))
          CFI (cfiCond17) VB load(1, XDATA, add(CFA_XSP16, literal(-15)))
          CFI (cfiCond17) V0 load(1, XDATA, add(CFA_XSP16, literal(-14)))
          CFI (cfiCond17) V1 load(1, XDATA, add(CFA_XSP16, literal(-13)))
          CFI (cfiCond17) V2 load(1, XDATA, add(CFA_XSP16, literal(-12)))
          CFI (cfiCond17) V3 load(1, XDATA, add(CFA_XSP16, literal(-11)))
          CFI (cfiCond17) V4 load(1, XDATA, add(CFA_XSP16, literal(-10)))
          CFI (cfiCond17) V5 load(1, XDATA, add(CFA_XSP16, literal(-9)))
          CFI (cfiCond17) V6 load(1, XDATA, add(CFA_XSP16, literal(-8)))
          CFI (cfiCond17) V7 load(1, XDATA, add(CFA_XSP16, literal(-7)))
          CFI (cfiCond17) R7 load(1, XDATA, add(CFA_XSP16, literal(-6)))
          CFI (cfiCond17) ?RET_LOW load(1, XDATA, add(CFA_XSP16, literal(-5)))
          CFI (cfiCond17) ?RET_HIGH load(1, XDATA, add(CFA_XSP16, literal(-4)))
          CFI (cfiCond17) ?BRET_EXT load(1, XDATA, add(CFA_XSP16, literal(-3)))
          CFI (cfiCond17) DPL0 load(1, XDATA, add(CFA_XSP16, literal(-2)))
          CFI (cfiCond17) DPH0 load(1, XDATA, add(CFA_XSP16, literal(-1)))
          CFI (cfiCond17) CFA_SP SP+-2
          CFI (cfiCond17) CFA_XSP16 add(XSP16, 33)
          CFI Block cfiPicker18 Using cfiCommon1
          CFI (cfiPicker18) NoFunction
          CFI (cfiPicker18) Picker
        LCALL   ?Subroutine48 & 0xFFFF
??CrossCallReturnLabel_96:
        MOV     ?V0,DPL
        MOV     ?V1,DPH
        RET
          CFI EndBlock cfiCond16
          CFI EndBlock cfiCond17
          CFI EndBlock cfiPicker18

        RSEG BANKED_CODE:HUGECODE:NOROOT(0)
?Subroutine48:
          CFI Block cfiCond19 Using cfiCommon0
          CFI Function MT_AfDataRequest
          CFI Conditional ??CrossCallReturnLabel_95
          CFI R6 load(1, XDATA, add(CFA_XSP16, literal(-16)))
          CFI VB load(1, XDATA, add(CFA_XSP16, literal(-15)))
          CFI V0 load(1, XDATA, add(CFA_XSP16, literal(-14)))
          CFI V1 load(1, XDATA, add(CFA_XSP16, literal(-13)))
          CFI V2 load(1, XDATA, add(CFA_XSP16, literal(-12)))
          CFI V3 load(1, XDATA, add(CFA_XSP16, literal(-11)))
          CFI V4 load(1, XDATA, add(CFA_XSP16, literal(-10)))
          CFI V5 load(1, XDATA, add(CFA_XSP16, literal(-9)))
          CFI V6 load(1, XDATA, add(CFA_XSP16, literal(-8)))
          CFI V7 load(1, XDATA, add(CFA_XSP16, literal(-7)))
          CFI R7 load(1, XDATA, add(CFA_XSP16, literal(-6)))
          CFI ?RET_LOW load(1, XDATA, add(CFA_XSP16, literal(-5)))
          CFI ?RET_HIGH load(1, XDATA, add(CFA_XSP16, literal(-4)))
          CFI ?BRET_EXT load(1, XDATA, add(CFA_XSP16, literal(-3)))
          CFI DPL0 load(1, XDATA, add(CFA_XSP16, literal(-2)))
          CFI DPH0 load(1, XDATA, add(CFA_XSP16, literal(-1)))
          CFI CFA_SP SP+-2
          CFI CFA_XSP16 add(XSP16, 33)
          CFI Block cfiCond20 Using cfiCommon0
          CFI (cfiCond20) Function MT_AfDataRequest
          CFI (cfiCond20) Conditional ??CrossCallReturnLabel_96, ??CrossCallReturnLabel_55
          CFI (cfiCond20) R6 load(1, XDATA, add(CFA_XSP16, literal(-16)))
          CFI (cfiCond20) VB load(1, XDATA, add(CFA_XSP16, literal(-15)))
          CFI (cfiCond20) V0 load(1, XDATA, add(CFA_XSP16, literal(-14)))
          CFI (cfiCond20) V1 load(1, XDATA, add(CFA_XSP16, literal(-13)))
          CFI (cfiCond20) V2 load(1, XDATA, add(CFA_XSP16, literal(-12)))
          CFI (cfiCond20) V3 load(1, XDATA, add(CFA_XSP16, literal(-11)))
          CFI (cfiCond20) V4 load(1, XDATA, add(CFA_XSP16, literal(-10)))
          CFI (cfiCond20) V5 load(1, XDATA, add(CFA_XSP16, literal(-9)))
          CFI (cfiCond20) V6 load(1, XDATA, add(CFA_XSP16, literal(-8)))
          CFI (cfiCond20) V7 load(1, XDATA, add(CFA_XSP16, literal(-7)))
          CFI (cfiCond20) R7 load(1, XDATA, add(CFA_XSP16, literal(-6)))
          CFI (cfiCond20) ?RET_LOW load(1, XDATA, add(CFA_XSP16, literal(-5)))
          CFI (cfiCond20) ?RET_HIGH load(1, XDATA, add(CFA_XSP16, literal(-4)))
          CFI (cfiCond20) ?BRET_EXT load(1, XDATA, add(CFA_XSP16, literal(-3)))
          CFI (cfiCond20) DPL0 load(1, XDATA, add(CFA_XSP16, literal(-2)))
          CFI (cfiCond20) DPH0 load(1, XDATA, add(CFA_XSP16, literal(-1)))
          CFI (cfiCond20) CFA_SP SP+-4
          CFI (cfiCond20) CFA_XSP16 add(XSP16, 33)
          CFI Block cfiCond21 Using cfiCommon0
          CFI (cfiCond21) Function MT_AfDataRequest
          CFI (cfiCond21) Conditional ??CrossCallReturnLabel_96, ??CrossCallReturnLabel_56
          CFI (cfiCond21) R6 load(1, XDATA, add(CFA_XSP16, literal(-16)))
          CFI (cfiCond21) VB load(1, XDATA, add(CFA_XSP16, literal(-15)))
          CFI (cfiCond21) V0 load(1, XDATA, add(CFA_XSP16, literal(-14)))
          CFI (cfiCond21) V1 load(1, XDATA, add(CFA_XSP16, literal(-13)))
          CFI (cfiCond21) V2 load(1, XDATA, add(CFA_XSP16, literal(-12)))
          CFI (cfiCond21) V3 load(1, XDATA, add(CFA_XSP16, literal(-11)))
          CFI (cfiCond21) V4 load(1, XDATA, add(CFA_XSP16, literal(-10)))
          CFI (cfiCond21) V5 load(1, XDATA, add(CFA_XSP16, literal(-9)))
          CFI (cfiCond21) V6 load(1, XDATA, add(CFA_XSP16, literal(-8)))
          CFI (cfiCond21) V7 load(1, XDATA, add(CFA_XSP16, literal(-7)))
          CFI (cfiCond21) R7 load(1, XDATA, add(CFA_XSP16, literal(-6)))
          CFI (cfiCond21) ?RET_LOW load(1, XDATA, add(CFA_XSP16, literal(-5)))
          CFI (cfiCond21) ?RET_HIGH load(1, XDATA, add(CFA_XSP16, literal(-4)))
          CFI (cfiCond21) ?BRET_EXT load(1, XDATA, add(CFA_XSP16, literal(-3)))
          CFI (cfiCond21) DPL0 load(1, XDATA, add(CFA_XSP16, literal(-2)))
          CFI (cfiCond21) DPH0 load(1, XDATA, add(CFA_XSP16, literal(-1)))
          CFI (cfiCond21) CFA_SP SP+-4
          CFI (cfiCond21) CFA_XSP16 add(XSP16, 33)
          CFI Block cfiPicker22 Using cfiCommon1
          CFI (cfiPicker22) NoFunction
          CFI (cfiPicker22) Picker
        MOVX    @DPTR,A
        MOV     DPL,?V0
        MOV     DPH,?V1
        INC     DPTR
        RET
          CFI EndBlock cfiCond19
          CFI EndBlock cfiCond20
          CFI EndBlock cfiCond21
          CFI EndBlock cfiPicker22

        RSEG BANKED_CODE:HUGECODE:NOROOT(0)
?Subroutine26:
          CFI Block cfiCond23 Using cfiCommon0
          CFI Function MT_AfDataRequest
          CFI Conditional ??CrossCallReturnLabel_41
          CFI R6 load(1, XDATA, add(CFA_XSP16, literal(-16)))
          CFI VB load(1, XDATA, add(CFA_XSP16, literal(-15)))
          CFI V0 load(1, XDATA, add(CFA_XSP16, literal(-14)))
          CFI V1 load(1, XDATA, add(CFA_XSP16, literal(-13)))
          CFI V2 load(1, XDATA, add(CFA_XSP16, literal(-12)))
          CFI V3 load(1, XDATA, add(CFA_XSP16, literal(-11)))
          CFI V4 load(1, XDATA, add(CFA_XSP16, literal(-10)))
          CFI V5 load(1, XDATA, add(CFA_XSP16, literal(-9)))
          CFI V6 load(1, XDATA, add(CFA_XSP16, literal(-8)))
          CFI V7 load(1, XDATA, add(CFA_XSP16, literal(-7)))
          CFI R7 load(1, XDATA, add(CFA_XSP16, literal(-6)))
          CFI ?RET_LOW load(1, XDATA, add(CFA_XSP16, literal(-5)))
          CFI ?RET_HIGH load(1, XDATA, add(CFA_XSP16, literal(-4)))
          CFI ?BRET_EXT load(1, XDATA, add(CFA_XSP16, literal(-3)))
          CFI DPL0 load(1, XDATA, add(CFA_XSP16, literal(-2)))
          CFI DPH0 load(1, XDATA, add(CFA_XSP16, literal(-1)))
          CFI CFA_SP SP+-2
          CFI CFA_XSP16 add(XSP16, 33)
          CFI Block cfiCond24 Using cfiCommon0
          CFI (cfiCond24) Function MT_AfDataRequest
          CFI (cfiCond24) Conditional ??CrossCallReturnLabel_42
          CFI (cfiCond24) R6 load(1, XDATA, add(CFA_XSP16, literal(-16)))
          CFI (cfiCond24) VB load(1, XDATA, add(CFA_XSP16, literal(-15)))
          CFI (cfiCond24) V0 load(1, XDATA, add(CFA_XSP16, literal(-14)))
          CFI (cfiCond24) V1 load(1, XDATA, add(CFA_XSP16, literal(-13)))
          CFI (cfiCond24) V2 load(1, XDATA, add(CFA_XSP16, literal(-12)))
          CFI (cfiCond24) V3 load(1, XDATA, add(CFA_XSP16, literal(-11)))
          CFI (cfiCond24) V4 load(1, XDATA, add(CFA_XSP16, literal(-10)))
          CFI (cfiCond24) V5 load(1, XDATA, add(CFA_XSP16, literal(-9)))
          CFI (cfiCond24) V6 load(1, XDATA, add(CFA_XSP16, literal(-8)))
          CFI (cfiCond24) V7 load(1, XDATA, add(CFA_XSP16, literal(-7)))
          CFI (cfiCond24) R7 load(1, XDATA, add(CFA_XSP16, literal(-6)))
          CFI (cfiCond24) ?RET_LOW load(1, XDATA, add(CFA_XSP16, literal(-5)))
          CFI (cfiCond24) ?RET_HIGH load(1, XDATA, add(CFA_XSP16, literal(-4)))
          CFI (cfiCond24) ?BRET_EXT load(1, XDATA, add(CFA_XSP16, literal(-3)))
          CFI (cfiCond24) DPL0 load(1, XDATA, add(CFA_XSP16, literal(-2)))
          CFI (cfiCond24) DPH0 load(1, XDATA, add(CFA_XSP16, literal(-1)))
          CFI (cfiCond24) CFA_SP SP+-2
          CFI (cfiCond24) CFA_XSP16 add(XSP16, 33)
          CFI Block cfiPicker25 Using cfiCommon1
          CFI (cfiPicker25) NoFunction
          CFI (cfiPicker25) Picker
        MOVX    A,@DPTR
        MOV     R2,A
        INC     DPTR
        MOVX    A,@DPTR
        MOV     R1,A
        MOV     A,R2
        MOV     R0,A
        MOV     A,#0x5
        RET
          CFI EndBlock cfiCond23
          CFI EndBlock cfiCond24
          CFI EndBlock cfiPicker25

        RSEG BANKED_CODE:HUGECODE:NOROOT(0)
?Subroutine15:
          CFI Block cfiCond26 Using cfiCommon0
          CFI Function MT_AfExec
          CFI Conditional ??CrossCallReturnLabel_24
          CFI R6 load(1, XDATA, add(CFA_XSP16, literal(-9)))
          CFI VB load(1, XDATA, add(CFA_XSP16, literal(-8)))
          CFI V0 load(1, XDATA, add(CFA_XSP16, literal(-7)))
          CFI R7 load(1, XDATA, add(CFA_XSP16, literal(-6)))
          CFI ?RET_LOW load(1, XDATA, add(CFA_XSP16, literal(-5)))
          CFI ?RET_HIGH load(1, XDATA, add(CFA_XSP16, literal(-4)))
          CFI ?BRET_EXT load(1, XDATA, add(CFA_XSP16, literal(-3)))
          CFI DPL0 load(1, XDATA, add(CFA_XSP16, literal(-2)))
          CFI DPH0 load(1, XDATA, add(CFA_XSP16, literal(-1)))
          CFI CFA_SP SP+-2
          CFI CFA_XSP16 add(XSP16, 9)
          CFI Block cfiCond27 Using cfiCommon0
          CFI (cfiCond27) Function MT_AfDataRequest
          CFI (cfiCond27) Conditional ??CrossCallReturnLabel_23
          CFI (cfiCond27) R6 load(1, XDATA, add(CFA_XSP16, literal(-16)))
          CFI (cfiCond27) VB load(1, XDATA, add(CFA_XSP16, literal(-15)))
          CFI (cfiCond27) V0 load(1, XDATA, add(CFA_XSP16, literal(-14)))
          CFI (cfiCond27) V1 load(1, XDATA, add(CFA_XSP16, literal(-13)))
          CFI (cfiCond27) V2 load(1, XDATA, add(CFA_XSP16, literal(-12)))
          CFI (cfiCond27) V3 load(1, XDATA, add(CFA_XSP16, literal(-11)))
          CFI (cfiCond27) V4 load(1, XDATA, add(CFA_XSP16, literal(-10)))
          CFI (cfiCond27) V5 load(1, XDATA, add(CFA_XSP16, literal(-9)))
          CFI (cfiCond27) V6 load(1, XDATA, add(CFA_XSP16, literal(-8)))
          CFI (cfiCond27) V7 load(1, XDATA, add(CFA_XSP16, literal(-7)))
          CFI (cfiCond27) R7 load(1, XDATA, add(CFA_XSP16, literal(-6)))
          CFI (cfiCond27) ?RET_LOW load(1, XDATA, add(CFA_XSP16, literal(-5)))
          CFI (cfiCond27) ?RET_HIGH load(1, XDATA, add(CFA_XSP16, literal(-4)))
          CFI (cfiCond27) ?BRET_EXT load(1, XDATA, add(CFA_XSP16, literal(-3)))
          CFI (cfiCond27) DPL0 load(1, XDATA, add(CFA_XSP16, literal(-2)))
          CFI (cfiCond27) DPH0 load(1, XDATA, add(CFA_XSP16, literal(-1)))
          CFI (cfiCond27) CFA_SP SP+-2
          CFI (cfiCond27) CFA_XSP16 add(XSP16, 33)
          CFI Block cfiPicker28 Using cfiCommon1
          CFI (cfiPicker28) NoFunction
          CFI (cfiPicker28) Picker
        MOVX    @DPTR,A
        LCALL   ?Subroutine39 & 0xFFFF
??CrossCallReturnLabel_163:
        ADD     A,#0x17
        MOV     DPL,A
        CLR     A
        ADDC    A,R0
        MOV     DPH,A
        RET
          CFI EndBlock cfiCond26
          CFI EndBlock cfiCond27
          CFI EndBlock cfiPicker28
//  439 
//  440 #if defined ( ZIGBEE_SOURCE_ROUTING )
//  441 
//  442 /***************************************************************************************************
//  443  * @fn      MT_AfDataRequestSrcRtg
//  444  *
//  445  * @brief   Process AF Register command
//  446  *
//  447  * @param   pBuf - pointer to the received buffer
//  448  *
//  449  * @return  none
//  450  ***************************************************************************************************/
//  451 void MT_AfDataRequestSrcRtg(uint8 *pBuf)
//  452 {
//  453   uint8 cmdId, dataLen = 0;
//  454   uint8 retValue = ZFailure;
//  455   endPointDesc_t *epDesc;
//  456   byte transId;
//  457   afAddrType_t dstAddr;
//  458   cId_t cId;
//  459   byte txOpts, radius, srcEP, relayCnt;
//  460   uint16 *pRelayList;
//  461   uint8 i;
//  462 
//  463   /* parse header */
//  464   cmdId = pBuf[MT_RPC_POS_CMD1];
//  465   pBuf += MT_RPC_FRAME_HDR_SZ;
//  466 
//  467   /* Destination address */
//  468   /* Initialize the panID field to zero to avoid inter-pan */
//  469   osal_memset( &dstAddr, 0, sizeof(afAddrType_t) ); 
//  470   dstAddr.addrMode = afAddr16Bit;
//  471   dstAddr.addr.shortAddr = BUILD_UINT16(pBuf[0], pBuf[1]);
//  472   pBuf += 2;
//  473 
//  474   /* Destination endpoint */
//  475   dstAddr.endPoint = *pBuf++;
//  476 
//  477   /* Source endpoint */
//  478   srcEP = *pBuf++;
//  479   epDesc = afFindEndPointDesc( srcEP );
//  480 
//  481   /* ClusterId */
//  482   cId = BUILD_UINT16(pBuf[0], pBuf[1]);
//  483   pBuf +=2;
//  484 
//  485   /* TransId */
//  486   transId = *pBuf++;
//  487 
//  488   /* TxOption */
//  489   txOpts = *pBuf++;
//  490 
//  491   /* Radius */
//  492   radius = *pBuf++;
//  493   
//  494   /* Source route relay count */
//  495   relayCnt = *pBuf++;
//  496   
//  497   /* Convert the source route relay list */
//  498   if( (pRelayList = osal_mem_alloc( relayCnt * sizeof( uint16 ))) != NULL )
//  499   {
//  500     for( i = 0; i < relayCnt; i++ )
//  501     {
//  502       pRelayList[i]  = BUILD_UINT16( pBuf[0], pBuf[1] );
//  503       pBuf += 2;
//  504     }
//  505   
//  506     /* Data payload Length */
//  507     dataLen = *pBuf++;
//  508 
//  509     if ( epDesc == NULL )
//  510     {
//  511       retValue = afStatus_INVALID_PARAMETER;
//  512     }
//  513     else
//  514     {
//  515       retValue = AF_DataRequestSrcRtg( &dstAddr, epDesc, cId, dataLen, pBuf, 
//  516                                      &transId, txOpts, radius, relayCnt, pRelayList );
//  517     }
//  518     
//  519     /* Free the memory allocated */
//  520     osal_mem_free( pRelayList );
//  521   }
//  522   else
//  523   {
//  524     retValue = afStatus_MEM_FAIL;
//  525   }
//  526     
//  527 
//  528   /* Build and send back the response */
//  529   MT_BuildAndSendZToolResponse(((uint8)MT_RPC_CMD_SRSP | (uint8)MT_RPC_SYS_AF), cmdId, 1, &retValue);
//  530 }
//  531 #endif
//  532 
//  533 #if defined INTER_PAN
//  534 /***************************************************************************************************
//  535  * @fn      MT_AfInterPanCtl
//  536  *
//  537  * @brief   Process the AF Inter Pan control command.
//  538  *
//  539  * @param   pBuf - pointer to the received buffer
//  540  *
//  541  * @return  none
//  542  ***************************************************************************************************/
//  543 static void MT_AfInterPanCtl(uint8 *pBuf)
//  544 {
//  545   uint8 cmd, rtrn;
//  546   uint16 panId;
//  547   endPointDesc_t *pEP;
//  548   
//  549   cmd = pBuf[MT_RPC_POS_CMD1];
//  550   pBuf += MT_RPC_FRAME_HDR_SZ;
//  551 
//  552   switch (*pBuf++)  // Inter-pan request parameter.
//  553   {
//  554   case InterPanClr:
//  555     rtrn = StubAPS_SetIntraPanChannel();           // Switch channel back to the NIB channel.
//  556     break;
//  557 
//  558   case InterPanSet:
//  559     rtrn = StubAPS_SetInterPanChannel(*pBuf);      // Set channel for inter-pan communication.
//  560     break;
//  561 
//  562   case InterPanReg:
//  563     if ((pEP = afFindEndPointDesc(*pBuf)))
//  564     {
//  565       StubAPS_RegisterApp(pEP);
//  566       rtrn = SUCCESS;
//  567     }
//  568     else
//  569     {
//  570       rtrn = FAILURE;
//  571     }
//  572     break;
//  573 
//  574   case InterPanChk:
//  575     panId = BUILD_UINT16(pBuf[0], pBuf[1]);
//  576     rtrn = (StubAPS_InterPan(panId, pBuf[2])) ? ZSuccess : ZFailure;
//  577     break;
//  578 
//  579   default:
//  580     rtrn = afStatus_INVALID_PARAMETER;
//  581     break;
//  582   }
//  583 
//  584   MT_BuildAndSendZToolResponse(((uint8)MT_RPC_CMD_SRSP | (uint8)MT_RPC_SYS_AF), cmd, 1, &rtrn);
//  585 }
//  586 #endif
//  587 
//  588 /***************************************************************************************************
//  589  * @fn      MT_AfDataConfirm
//  590  *
//  591  * @brief   Process
//  592  *
//  593  * @param   pBuf - pointer to the received buffer
//  594  *
//  595  * @return  none
//  596  ***************************************************************************************************/

        RSEG BANKED_CODE:HUGECODE:NOROOT(0)
//  597 void MT_AfDataConfirm(afDataConfirm_t *pMsg)
MT_AfDataConfirm:
          CFI Block cfiBlock29 Using cfiCommon0
          CFI Function MT_AfDataConfirm
        CODE
//  598 {
        FUNCALL MT_AfDataConfirm, MT_BuildAndSendZToolResponse
        LOCFRAME ISTACK, 2, STACK
        LOCFRAME PSTACK, 0, STACK
        LOCFRAME XSTACK, 3, STACK
        LOCFRAME IOVERLAY, 0, STATIC
        LOCFRAME DOVERLAY, 0, STATIC
        ARGFRAME ISTACK, 2, STACK
        ARGFRAME PSTACK, 0, STACK
        ARGFRAME XSTACK, 3, STACK
        ARGFRAME IOVERLAY, 0, STATIC
        ARGFRAME DOVERLAY, 0, STATIC
        PUSH    DPL
          CFI DPL0 Frame(CFA_SP, 4)
          CFI CFA_SP SP+-4
        PUSH    DPH
          CFI DPH0 Frame(CFA_SP, 5)
          CFI CFA_SP SP+-5
        ; Saved register size: 2
        ; Auto size: 3
        MOV     A,#-0x3
        LCALL   ?ALLOC_XSTACK8
          CFI CFA_XSP16 add(XSP16, 3)
//  599   uint8 retArray[3];
//  600 
//  601   retArray[0] = pMsg->hdr.status;
        MOV     DPL,R2
        MOV     DPH,R3
        INC     DPTR
        MOVX    A,@DPTR
        MOV     DPL,?XSP + 0
        MOV     DPH,?XSP + 1
        LCALL   ?Subroutine35 & 0xFFFF
//  602   retArray[1] = pMsg->endpoint;
??CrossCallReturnLabel_72:
        PUSH    A
          CFI CFA_SP SP+-6
        MOV     A,#0x1
        LCALL   ?XSTACK_DISP0_8
        POP     A
          CFI CFA_SP SP+-5
        LCALL   ?Subroutine46 & 0xFFFF
//  603   retArray[2] = pMsg->transID;
??CrossCallReturnLabel_87:
        INC     DPTR
        INC     DPTR
        MOVX    A,@DPTR
        PUSH    A
          CFI CFA_SP SP+-6
        MOV     A,#0x2
        LCALL   ?XSTACK_DISP0_8
        POP     A
          CFI CFA_SP SP+-5
        MOVX    @DPTR,A
//  604 
//  605   /* Build and send back the response */
//  606   MT_BuildAndSendZToolResponse(((uint8)MT_RPC_CMD_AREQ | (uint8)MT_RPC_SYS_AF), MT_AF_DATA_CONFIRM, 3, retArray);
        ; Setup parameters for call to function MT_BuildAndSendZToolResponse
        MOV     R4,?XSP + 0
        MOV     R5,?XSP + 1
        MOV     R3,#0x3
        MOV     R2,#-0x80
        MOV     R1,#0x44
        LCALL   `??MT_BuildAndSendZToolResponse::?relay`; Banked call to: MT_BuildAndSendZToolResponse
//  607 }
        MOV     A,#0x3
        LCALL   ?DEALLOC_XSTACK8
          CFI CFA_XSP16 XSP16+0
        POP     DPH
          CFI DPH0 SameValue
          CFI CFA_SP SP+-4
        POP     DPL
          CFI DPL0 SameValue
          CFI CFA_SP SP+-3
        LJMP    ?BRET
          CFI EndBlock cfiBlock29
//  608 
//  609 /***************************************************************************************************
//  610  * @fn          MT_AfIncomingMsg
//  611  *
//  612  * @brief       Process the callback subscription for AF Incoming data.
//  613  *
//  614  * @param       pkt - Incoming AF data.
//  615  *
//  616  * @return      none
//  617  ***************************************************************************************************/

        RSEG BANKED_CODE:HUGECODE:NOROOT(0)
//  618 void MT_AfIncomingMsg(afIncomingMSGPacket_t *pMsg)
MT_AfIncomingMsg:
          CFI Block cfiBlock30 Using cfiCommon0
          CFI Function MT_AfIncomingMsg
        CODE
//  619 {
        FUNCALL MT_AfIncomingMsg, osal_mem_alloc
        LOCFRAME ISTACK, 0, STACK
        LOCFRAME PSTACK, 0, STACK
        LOCFRAME XSTACK, 23, STACK
        LOCFRAME IOVERLAY, 0, STATIC
        LOCFRAME DOVERLAY, 0, STATIC
        ARGFRAME ISTACK, 0, STACK
        ARGFRAME PSTACK, 0, STACK
        ARGFRAME XSTACK, 23, STACK
        ARGFRAME IOVERLAY, 0, STATIC
        ARGFRAME DOVERLAY, 0, STATIC
        FUNCALL MT_AfIncomingMsg, osal_mem_alloc
        LOCFRAME ISTACK, 0, STACK
        LOCFRAME PSTACK, 0, STACK
        LOCFRAME XSTACK, 23, STACK
        LOCFRAME IOVERLAY, 0, STATIC
        LOCFRAME DOVERLAY, 0, STATIC
        ARGFRAME ISTACK, 0, STACK
        ARGFRAME PSTACK, 0, STACK
        ARGFRAME XSTACK, 23, STACK
        ARGFRAME IOVERLAY, 0, STATIC
        ARGFRAME DOVERLAY, 0, STATIC
        FUNCALL MT_AfIncomingMsg, osal_mem_free
        LOCFRAME ISTACK, 0, STACK
        LOCFRAME PSTACK, 0, STACK
        LOCFRAME XSTACK, 23, STACK
        LOCFRAME IOVERLAY, 0, STATIC
        LOCFRAME DOVERLAY, 0, STATIC
        ARGFRAME ISTACK, 0, STACK
        ARGFRAME PSTACK, 0, STACK
        ARGFRAME XSTACK, 23, STACK
        ARGFRAME IOVERLAY, 0, STATIC
        ARGFRAME DOVERLAY, 0, STATIC
        FUNCALL MT_AfIncomingMsg, osal_memcpy
        LOCFRAME ISTACK, 0, STACK
        LOCFRAME PSTACK, 0, STACK
        LOCFRAME XSTACK, 26, STACK
        LOCFRAME IOVERLAY, 0, STATIC
        LOCFRAME DOVERLAY, 0, STATIC
        ARGFRAME ISTACK, 0, STACK
        ARGFRAME PSTACK, 0, STACK
        ARGFRAME XSTACK, 26, STACK
        ARGFRAME IOVERLAY, 0, STATIC
        ARGFRAME DOVERLAY, 0, STATIC
        FUNCALL MT_AfIncomingMsg, osal_start_timerEx
        LOCFRAME ISTACK, 0, STACK
        LOCFRAME PSTACK, 0, STACK
        LOCFRAME XSTACK, 23, STACK
        LOCFRAME IOVERLAY, 0, STATIC
        LOCFRAME DOVERLAY, 0, STATIC
        ARGFRAME ISTACK, 0, STACK
        ARGFRAME PSTACK, 0, STACK
        ARGFRAME XSTACK, 23, STACK
        ARGFRAME IOVERLAY, 0, STATIC
        ARGFRAME DOVERLAY, 0, STATIC
        FUNCALL MT_AfIncomingMsg, osal_set_event
        LOCFRAME ISTACK, 0, STACK
        LOCFRAME PSTACK, 0, STACK
        LOCFRAME XSTACK, 23, STACK
        LOCFRAME IOVERLAY, 0, STATIC
        LOCFRAME DOVERLAY, 0, STATIC
        ARGFRAME ISTACK, 0, STACK
        ARGFRAME PSTACK, 0, STACK
        ARGFRAME XSTACK, 23, STACK
        ARGFRAME IOVERLAY, 0, STATIC
        ARGFRAME DOVERLAY, 0, STATIC
        FUNCALL MT_AfIncomingMsg, osal_memcpy
        LOCFRAME ISTACK, 0, STACK
        LOCFRAME PSTACK, 0, STACK
        LOCFRAME XSTACK, 26, STACK
        LOCFRAME IOVERLAY, 0, STATIC
        LOCFRAME DOVERLAY, 0, STATIC
        ARGFRAME ISTACK, 0, STACK
        ARGFRAME PSTACK, 0, STACK
        ARGFRAME XSTACK, 26, STACK
        ARGFRAME IOVERLAY, 0, STATIC
        ARGFRAME DOVERLAY, 0, STATIC
        FUNCALL MT_AfIncomingMsg, osal_memcpy
        LOCFRAME ISTACK, 0, STACK
        LOCFRAME PSTACK, 0, STACK
        LOCFRAME XSTACK, 26, STACK
        LOCFRAME IOVERLAY, 0, STATIC
        LOCFRAME DOVERLAY, 0, STATIC
        ARGFRAME ISTACK, 0, STACK
        ARGFRAME PSTACK, 0, STACK
        ARGFRAME XSTACK, 26, STACK
        ARGFRAME IOVERLAY, 0, STATIC
        ARGFRAME DOVERLAY, 0, STATIC
        FUNCALL MT_AfIncomingMsg, MT_BuildAndSendZToolResponse
        LOCFRAME ISTACK, 0, STACK
        LOCFRAME PSTACK, 0, STACK
        LOCFRAME XSTACK, 23, STACK
        LOCFRAME IOVERLAY, 0, STATIC
        LOCFRAME DOVERLAY, 0, STATIC
        ARGFRAME ISTACK, 0, STACK
        ARGFRAME PSTACK, 0, STACK
        ARGFRAME XSTACK, 23, STACK
        ARGFRAME IOVERLAY, 0, STATIC
        ARGFRAME DOVERLAY, 0, STATIC
        FUNCALL MT_AfIncomingMsg, osal_mem_free
        LOCFRAME ISTACK, 0, STACK
        LOCFRAME PSTACK, 0, STACK
        LOCFRAME XSTACK, 23, STACK
        LOCFRAME IOVERLAY, 0, STATIC
        LOCFRAME DOVERLAY, 0, STATIC
        ARGFRAME ISTACK, 0, STACK
        ARGFRAME PSTACK, 0, STACK
        ARGFRAME XSTACK, 23, STACK
        ARGFRAME IOVERLAY, 0, STATIC
        ARGFRAME DOVERLAY, 0, STATIC
        REQUIRE ?V0
        REQUIRE ?V1
        REQUIRE ?V2
        REQUIRE ?V3
        REQUIRE ?V4
        REQUIRE ?V5
        REQUIRE ?V6
        REQUIRE ?V7
        MOV     A,#-0x10
        LCALL   ?BANKED_ENTER_XDATA
          CFI DPH0 load(1, XDATA, add(CFA_XSP16, literal(-1)))
          CFI DPL0 load(1, XDATA, add(CFA_XSP16, literal(-2)))
          CFI ?BRET_EXT load(1, XDATA, add(CFA_XSP16, literal(-3)))
          CFI ?RET_HIGH load(1, XDATA, add(CFA_XSP16, literal(-4)))
          CFI ?RET_LOW load(1, XDATA, add(CFA_XSP16, literal(-5)))
          CFI R7 load(1, XDATA, add(CFA_XSP16, literal(-6)))
          CFI V7 load(1, XDATA, add(CFA_XSP16, literal(-7)))
          CFI V6 load(1, XDATA, add(CFA_XSP16, literal(-8)))
          CFI V5 load(1, XDATA, add(CFA_XSP16, literal(-9)))
          CFI V4 load(1, XDATA, add(CFA_XSP16, literal(-10)))
          CFI V3 load(1, XDATA, add(CFA_XSP16, literal(-11)))
          CFI V2 load(1, XDATA, add(CFA_XSP16, literal(-12)))
          CFI V1 load(1, XDATA, add(CFA_XSP16, literal(-13)))
          CFI V0 load(1, XDATA, add(CFA_XSP16, literal(-14)))
          CFI VB load(1, XDATA, add(CFA_XSP16, literal(-15)))
          CFI R6 load(1, XDATA, add(CFA_XSP16, literal(-16)))
          CFI CFA_SP SP+0
          CFI CFA_XSP16 add(XSP16, 16)
        ; Saved register size: 16
        ; Auto size: 7
        MOV     A,#-0x7
        LCALL   ?ALLOC_XSTACK8
          CFI CFA_XSP16 add(XSP16, 23)
        MOV     DPL,?XSP + 0
        MOV     DPH,?XSP + 1
        MOV     A,R2
        MOVX    @DPTR,A
        INC     DPTR
        MOV     A,R3
        LCALL   ?Subroutine20 & 0xFFFF
//  620   #define MT_AF_INC_MSG_LEN  17
//  621   #define MT_AF_INC_MSG_EXT  10
//  622 
//  623   uint16 dataLen = pMsg->cmd.DataLength;  // Length of the data section in the response packet.
??CrossCallReturnLabel_110:
        ADD     A,#0x1f
        LCALL   ?Subroutine47 & 0xFFFF
??CrossCallReturnLabel_89:
        MOV     ?V6,A
        INC     DPTR
        MOVX    A,@DPTR
        MOV     ?V7,A
//  624   uint16 respLen = MT_AF_INC_MSG_LEN + dataLen;
        MOV     A,?V6
        ADD     A,#0x11
        MOV     R6,A
        CLR     A
        ADDC    A,?V7
        MOV     R7,A
//  625   uint8 cmd = MT_AF_INCOMING_MSG;
        MOV     A,#0x6
        LCALL   ?XSTACK_DISP0_8
        MOV     A,#-0x7f
        MOVX    @DPTR,A
//  626   uint8 *pRsp, *pTmp;
//  627   mtAfInMsgList_t *pItem = NULL;
        MOV     A,#0x4
        LCALL   ?XSTACK_DISP0_8
        CLR     A
        MOVX    @DPTR,A
        LCALL   ?Subroutine38 & 0xFFFF
//  628 
//  629 #if defined INTER_PAN
//  630   if (StubAPS_InterPan(pMsg->srcAddr.panId, pMsg->srcAddr.endPoint))
//  631   {
//  632     cmd = MT_AF_INCOMING_MSG_EXT;
//  633   }
//  634   else
//  635 #endif
//  636   if ((pMsg->srcAddr.addrMode == afAddr64Bit) ||
//  637       (respLen > (uint16)(MT_RPC_DATA_MAX - MT_AF_INC_MSG_EXT)))
??CrossCallReturnLabel_99:
        LCALL   ?Subroutine12 & 0xFFFF
??CrossCallReturnLabel_17:
        XRL     A,#0x3
        JZ      ??MT_AfIncomingMsg_0
        CLR     C
        MOV     A,R6
        SUBB    A,#-0xf
        MOV     A,R7
        SUBB    A,#0x0
        JC      ??MT_AfIncomingMsg_1
//  638   {
//  639     cmd = MT_AF_INCOMING_MSG_EXT;
??MT_AfIncomingMsg_0:
        MOV     A,#0x6
        LCALL   ?XSTACK_DISP0_8
        MOV     A,#-0x7e
        MOVX    @DPTR,A
//  640   }
//  641 
//  642   if (cmd == MT_AF_INCOMING_MSG_EXT)
//  643   {
//  644     respLen += MT_AF_INC_MSG_EXT;
        MOV     A,R6
        ADD     A,#0xa
        MOV     R6,A
        CLR     A
        ADDC    A,R7
        MOV     R7,A
//  645   }
//  646 
//  647   if (respLen > (uint16)MT_RPC_DATA_MAX)
??MT_AfIncomingMsg_1:
        CLR     C
        MOV     A,R6
        SUBB    A,#-0x5
        MOV     A,R7
        SUBB    A,#0x0
        JC      ??MT_AfIncomingMsg_2
//  648   {
//  649     if ((pItem = (mtAfInMsgList_t *)osal_mem_alloc(sizeof(mtAfInMsgList_t) + dataLen)) == NULL)
        ; Setup parameters for call to function osal_mem_alloc
        MOV     A,?V6
        ADD     A,#0x9
        MOV     R2,A
        CLR     A
        ADDC    A,?V7
        MOV     R3,A
        LCALL   `??osal_mem_alloc::?relay`; Banked call to: osal_mem_alloc
        MOV     A,#0x4
        LCALL   ?XSTACK_DISP0_8
        MOV     A,R2
        MOVX    @DPTR,A
        INC     DPTR
        MOV     A,R3
        MOVX    @DPTR,A
        MOV     A,#0x4
        LCALL   ?XSTACK_DISP0_8
        LCALL   ??Subroutine59_0 & 0xFFFF
??CrossCallReturnLabel_144:
        JNZ     $+5
        LJMP    ??MT_AfIncomingMsg_3 & 0xFFFF
//  650     {
//  651       return;  // If cannot hold a huge message, cannot give indication at all.
//  652     }
//  653 
//  654     pItem->data = (uint8 *)(pItem+1);
        MOV     A,#0x4
        LCALL   ?XSTACK_DISP0_8
        MOVX    A,@DPTR
        ADD     A,#0x9
        MOV     R0,A
        INC     DPTR
        MOVX    A,@DPTR
        ADDC    A,#0x0
        MOV     R1,A
        MOV     A,#0x4
        LCALL   ?XSTACK_DISP0_8
        LCALL   ?Subroutine25 & 0xFFFF
??CrossCallReturnLabel_39:
        LCALL   ?Subroutine34 & 0xFFFF
//  655     respLen -= dataLen;  // Zero data bytes are sent with an over-sized incoming indication.
??CrossCallReturnLabel_63:
        CLR     C
        MOV     A,R6
        SUBB    A,?V6
        MOV     R6,A
        MOV     A,R7
        SUBB    A,?V7
        MOV     R7,A
//  656   }
//  657 
//  658   // Attempt to allocate memory for the response packet.
//  659   if ((pRsp = osal_mem_alloc(respLen)) == NULL)
??MT_AfIncomingMsg_2:
        ; Setup parameters for call to function osal_mem_alloc
        MOV     A,R6
        MOV     R2,A
        MOV     A,R7
        MOV     R3,A
        LCALL   `??osal_mem_alloc::?relay`; Banked call to: osal_mem_alloc
        MOV     A,#0x2
        LCALL   ?XSTACK_DISP0_8
        MOV     A,R2
        MOVX    @DPTR,A
        INC     DPTR
        MOV     A,R3
        MOVX    @DPTR,A
        MOV     A,#0x2
        LCALL   ?XSTACK_DISP0_8
        LCALL   ??Subroutine59_0 & 0xFFFF
??CrossCallReturnLabel_145:
        JNZ     ??MT_AfIncomingMsg_4
//  660   {
//  661     if (pItem != NULL)
        MOV     A,#0x4
        LCALL   ?XSTACK_DISP0_8
        LCALL   ??Subroutine59_0 & 0xFFFF
??CrossCallReturnLabel_146:
        JZ      ??MT_AfIncomingMsg_5
//  662     {
//  663       (void)osal_mem_free(pItem);
        ; Setup parameters for call to function osal_mem_free
        MOV     A,#0x4
        LCALL   ?XSTACK_DISP0_8
        LCALL   ??Subroutine56_0 & 0xFFFF
//  664     }
??CrossCallReturnLabel_128:
        LCALL   `??osal_mem_free::?relay`; Banked call to: osal_mem_free
//  665     return;
??MT_AfIncomingMsg_5:
        LJMP    ??MT_AfIncomingMsg_3 & 0xFFFF
//  666   }
//  667   pTmp = pRsp;
//  668 
//  669   /* Group ID */
//  670   *pTmp++ = LO_UINT16(pMsg->groupId);
??MT_AfIncomingMsg_4:
        MOV     DPL,?XSP + 0
        MOV     DPH,?XSP + 1
        MOVX    A,@DPTR
        ADD     A,#0x2
        LCALL   ??Subroutine57_0 & 0xFFFF
??CrossCallReturnLabel_133:
        PUSH    A
          CFI CFA_SP SP+-1
        MOV     A,#0x2
        LCALL   ?XSTACK_DISP0_8
        LCALL   ?Subroutine29 & 0xFFFF
??CrossCallReturnLabel_47:
        POP     A
          CFI CFA_SP SP+0
        LCALL   ?Subroutine31 & 0xFFFF
//  671   *pTmp++ = HI_UINT16(pMsg->groupId);
??CrossCallReturnLabel_51:
        PUSH    A
          CFI CFA_SP SP+-1
        MOV     A,#0x2
        LCALL   ?XSTACK_DISP0_8
        LCALL   ?Subroutine11 & 0xFFFF
??CrossCallReturnLabel_123:
        POP     A
          CFI CFA_SP SP+0
        LCALL   ?Subroutine36 & 0xFFFF
//  672 
//  673   /* Cluster ID */
//  674   *pTmp++ = LO_UINT16(pMsg->clusterId);
??CrossCallReturnLabel_73:
        ADD     A,#0x4
        LCALL   ??Subroutine57_0 & 0xFFFF
??CrossCallReturnLabel_134:
        PUSH    A
          CFI CFA_SP SP+-1
        MOV     A,#0x2
        LCALL   ?XSTACK_DISP0_8
        LCALL   ?Subroutine25 & 0xFFFF
??CrossCallReturnLabel_40:
        POP     A
          CFI CFA_SP SP+0
        LCALL   ?Subroutine31 & 0xFFFF
//  675   *pTmp++ = HI_UINT16(pMsg->clusterId);
??CrossCallReturnLabel_52:
        PUSH    A
          CFI CFA_SP SP+-1
        MOV     A,#0x2
        LCALL   ?XSTACK_DISP0_8
        LCALL   ?Subroutine8 & 0xFFFF
??CrossCallReturnLabel_11:
        POP     A
          CFI CFA_SP SP+0
        MOVX    @DPTR,A
//  676 
//  677   if (cmd == MT_AF_INCOMING_MSG_EXT)
        MOV     A,#0x6
        LCALL   ?XSTACK_DISP0_8
        MOVX    A,@DPTR
        XRL     A,#0x82
        MOV     DPL,?XSP + 0
        MOV     DPH,?XSP + 1
        JZ      $+5
        LJMP    ??MT_AfIncomingMsg_6 & 0xFFFF
//  678   {
//  679     *pTmp++ = pMsg->srcAddr.addrMode;
        MOVX    A,@DPTR
        ADD     A,#0xe
        LCALL   ??Subroutine57_0 & 0xFFFF
??CrossCallReturnLabel_135:
        PUSH    A
          CFI CFA_SP SP+-1
        MOV     A,#0x2
        LCALL   ?XSTACK_DISP0_8
        LCALL   ?Subroutine21 & 0xFFFF
??CrossCallReturnLabel_33:
        POP     A
          CFI CFA_SP SP+0
        MOVX    @DPTR,A
        MOV     A,#0x2
        LCALL   ?XSTACK_DISP0_8
        MOVX    A,@DPTR
        ADD     A,#0x5
        MOV     ?V4,A
        INC     DPTR
        MOVX    A,@DPTR
        ADDC    A,#0x0
        MOV     ?V5,A
//  680 
//  681     if (pMsg->srcAddr.addrMode == afAddr64Bit)
        MOV     DPL,R0
        MOV     DPH,R1
        MOVX    A,@DPTR
        XRL     A,#0x3
        MOV     DPL,?XSP + 0
        MOV     DPH,?XSP + 1
        JNZ     ??MT_AfIncomingMsg_7
//  682     {
//  683       (void)osal_memcpy(pTmp, pMsg->srcAddr.addr.extAddr, Z_EXTADDR_LEN);
        ; Setup parameters for call to function osal_memcpy
        MOVX    A,@DPTR
        ADD     A,#0x6
        MOV     ?V0,A
        INC     DPTR
        MOVX    A,@DPTR
        ADDC    A,#0x0
        MOV     ?V1,A
        MOV     ?V2,#0x0
        MOV     R0,#?V0
        LCALL   ?PUSH_XSTACK_I_THREE
          CFI CFA_XSP16 add(XSP16, 26)
        MOV     R4,#0x8
        MOV     R5,#0x0
        MOV     R2,?V4
        MOV     R3,?V5
        LCALL   `??osal_memcpy::?relay`; Banked call to: osal_memcpy
        MOV     A,#0x3
        LCALL   ?DEALLOC_XSTACK8
          CFI CFA_XSP16 add(XSP16, 23)
        SJMP    ??MT_AfIncomingMsg_8
//  684     }
//  685     else
//  686     {
//  687       pTmp[0] = LO_UINT16(pMsg->srcAddr.addr.shortAddr);
??MT_AfIncomingMsg_7:
        LCALL   ?Subroutine5 & 0xFFFF
//  688       pTmp[1] = HI_UINT16(pMsg->srcAddr.addr.shortAddr);
//  689     }
??CrossCallReturnLabel_136:
        MOV     DPL,?V4
        MOV     DPH,?V5
        LCALL   ?Subroutine31 & 0xFFFF
??CrossCallReturnLabel_53:
        MOV     DPL,?V4
        MOV     DPH,?V5
        INC     DPTR
        MOVX    @DPTR,A
//  690     pTmp += Z_EXTADDR_LEN;
//  691 
//  692     *pTmp++ = pMsg->srcAddr.endPoint;
??MT_AfIncomingMsg_8:
        LCALL   ??Subroutine53_0 & 0xFFFF
//  693 #if defined INTER_PAN
//  694     *pTmp++ = LO_UINT16(pMsg->srcAddr.panId);
//  695     *pTmp++ = HI_UINT16(pMsg->srcAddr.panId);
//  696 #else
//  697     *pTmp++ = 0;
//  698     *pTmp++ = 0;
//  699 #endif
//  700   }
??CrossCallReturnLabel_117:
        ADD     A,#0xf
        LCALL   ?Subroutine3 & 0xFFFF
??CrossCallReturnLabel_0:
        CLR     A
        LCALL   ?Subroutine30 & 0xFFFF
??CrossCallReturnLabel_49:
        MOVX    @DPTR,A
        MOV     A,?V4
        ADD     A,#0xb
        MOV     ?V4,A
        JNC     ??MT_AfIncomingMsg_9
        INC     ?V5
??MT_AfIncomingMsg_10:
        SJMP    ??MT_AfIncomingMsg_9
//  701   else
//  702   {
//  703     /* Source Address */
//  704     *pTmp++ = LO_UINT16(pMsg->srcAddr.addr.shortAddr);
??MT_AfIncomingMsg_6:
        LCALL   ?Subroutine5 & 0xFFFF
//  705     *pTmp++ = HI_UINT16(pMsg->srcAddr.addr.shortAddr);
//  706 
//  707     /* Source EP */
//  708     *pTmp++ = pMsg->srcAddr.endPoint;
//  709   }
??CrossCallReturnLabel_137:
        PUSH    A
          CFI CFA_SP SP+-1
        MOV     A,#0x2
        LCALL   ?XSTACK_DISP0_8
        LCALL   ?Subroutine21 & 0xFFFF
??CrossCallReturnLabel_34:
        POP     A
          CFI CFA_SP SP+0
        LCALL   ?Subroutine31 & 0xFFFF
??CrossCallReturnLabel_54:
        PUSH    A
          CFI CFA_SP SP+-1
        MOV     A,#0x2
        LCALL   ?XSTACK_DISP0_8
        LCALL   ?Subroutine8 & 0xFFFF
??CrossCallReturnLabel_12:
        INC     DPTR
        INC     DPTR
        POP     A
          CFI CFA_SP SP+0
        LCALL   ?Subroutine20 & 0xFFFF
??CrossCallReturnLabel_111:
        ADD     A,#0xf
        LCALL   ?Subroutine47 & 0xFFFF
??CrossCallReturnLabel_90:
        PUSH    A
          CFI CFA_SP SP+-1
        MOV     A,#0x2
        LCALL   ?XSTACK_DISP0_8
        LCALL   ??Subroutine54_0 & 0xFFFF
??CrossCallReturnLabel_115:
        ADD     A,#0x6
        MOV     DPL,A
        CLR     A
        ADDC    A,R0
        MOV     DPH,A
        POP     A
          CFI CFA_SP SP+0
        MOVX    @DPTR,A
        MOV     A,#0x2
        LCALL   ?XSTACK_DISP0_8
        MOVX    A,@DPTR
        ADD     A,#0x7
        MOV     ?V4,A
        INC     DPTR
        MOVX    A,@DPTR
        ADDC    A,#0x0
        MOV     ?V5,A
//  710 
//  711   /* Destination EP */
//  712   *pTmp++ = pMsg->endPoint;
??MT_AfIncomingMsg_9:
        MOV     DPL,?XSP + 0
        MOV     DPH,?XSP + 1
        LCALL   ?Subroutine18 & 0xFFFF
??CrossCallReturnLabel_30:
        MOVX    A,@DPTR
        MOV     DPL,?V4
        MOV     DPH,?V5
        LCALL   ??Subroutine50_0 & 0xFFFF
//  713 
//  714   /* WasBroadCast */
//  715   *pTmp++ = pMsg->wasBroadcast;
??CrossCallReturnLabel_101:
        LCALL   ?Subroutine13 & 0xFFFF
??CrossCallReturnLabel_19:
        MOV     DPL,?V4
        MOV     DPH,?V5
        LCALL   ?Subroutine38 & 0xFFFF
//  716 
//  717   /* LinkQuality */
//  718   *pTmp++ = pMsg->LinkQuality;
??CrossCallReturnLabel_100:
        LCALL   ?Subroutine19 & 0xFFFF
??CrossCallReturnLabel_32:
        LCALL   ?Subroutine28 & 0xFFFF
??CrossCallReturnLabel_45:
        LCALL   ?Subroutine20 & 0xFFFF
//  719 
//  720   /* SecurityUse */
//  721   *pTmp++ = pMsg->SecurityUse;
??CrossCallReturnLabel_112:
        ADD     A,#0x19
        MOV     DPL,A
        CLR     A
        ADDC    A,R0
        MOV     DPH,A
        LCALL   ?Subroutine28 & 0xFFFF
??CrossCallReturnLabel_46:
        INC     DPTR
        LCALL   ?Subroutine36 & 0xFFFF
//  722 
//  723   /* Timestamp */
//  724   *pTmp++ = BREAK_UINT32(pMsg->timestamp, 0);
??CrossCallReturnLabel_74:
        ADD     A,#0x1a
        MOV     R2,A
        INC     DPTR
        MOVX    A,@DPTR
        ADDC    A,#0x0
        MOV     R3,A
        MOV     DPL,R2
        MOV     DPH,R3
        MOV     R0,#?V0
        LCALL   ?L_MOV_X
        MOV     DPL,?V4
        MOV     DPH,?V5
        LCALL   ?Subroutine37 & 0xFFFF
//  725   *pTmp++ = BREAK_UINT32(pMsg->timestamp, 1);
??CrossCallReturnLabel_102:
        LCALL   ?L_MOV_X
        MOV     A,?V1
        MOV     DPL,?V4
        MOV     DPH,?V5
        INC     DPTR
        INC     DPTR
        INC     DPTR
        INC     DPTR
        INC     DPTR
        LCALL   ??Subroutine51_0 & 0xFFFF
//  726   *pTmp++ = BREAK_UINT32(pMsg->timestamp, 2);
??CrossCallReturnLabel_104:
        LCALL   ?L_MOV_X
        MOV     A,#0x10
        MOV     R0,#?V0
        LCALL   ?UL_SHR
        MOV     DPL,?V4
        MOV     DPH,?V5
        INC     DPTR
        INC     DPTR
        LCALL   ?Subroutine37 & 0xFFFF
//  727   *pTmp++ = BREAK_UINT32(pMsg->timestamp, 3);
??CrossCallReturnLabel_103:
        LCALL   ?L_MOV_X
        MOV     A,#0x18
        MOV     R0,#?V0
        LCALL   ?UL_SHR
        MOV     DPL,?V4
        MOV     DPH,?V5
        INC     DPTR
        INC     DPTR
        INC     DPTR
        INC     DPTR
        INC     DPTR
        INC     DPTR
        INC     DPTR
        MOV     A,?V0
        MOVX    @DPTR,A
//  728 
//  729 
//  730   /* Data Length */
//  731   if (cmd == MT_AF_INCOMING_MSG_EXT)
        MOV     A,#0x6
        LCALL   ?XSTACK_DISP0_8
        MOVX    A,@DPTR
        XRL     A,#0x82
        JNZ     ??MT_AfIncomingMsg_11
//  732   {
//  733     /* Z-Tool apparently takes the last Byte before the data buffer as the dynamic length and
//  734      * ignores the bigger UInt16 length of an EXT incoming message. But no data bytes will be sent
//  735      * with a huge message, so it's necessary to work-around and fake-out Z-Tool with a zero here.
//  736      */
//  737     *pTmp++ = 0;  // TODO - workaround Z-Tool shortcoming; should be: = pMsg->cmd.TransSeqNumber;
        MOV     DPL,?V4
        MOV     DPH,?V5
        INC     DPTR
        INC     DPTR
        INC     DPTR
        INC     DPTR
        INC     DPTR
        INC     DPTR
        INC     DPTR
        INC     DPTR
        CLR     A
        LCALL   ?Subroutine45 & 0xFFFF
//  738     *pTmp++ = LO_UINT16(dataLen);
//  739     *pTmp++ = HI_UINT16(dataLen);
//  740   }
??CrossCallReturnLabel_82:
        MOV     A,?V6
        LCALL   ?Subroutine30 & 0xFFFF
??CrossCallReturnLabel_50:
        MOV     A,?V7
        MOVX    @DPTR,A
        MOV     A,?V4
        ADD     A,#0xb
        SJMP    ??MT_AfIncomingMsg_12
//  741   else
//  742   {
//  743     *pTmp++ = pMsg->cmd.TransSeqNumber;
??MT_AfIncomingMsg_11:
        LCALL   ??Subroutine53_0 & 0xFFFF
//  744     *pTmp++ = dataLen;
//  745   }
??CrossCallReturnLabel_118:
        ADD     A,#0x1e
        LCALL   ?Subroutine3 & 0xFFFF
??CrossCallReturnLabel_1:
        MOV     A,?V6
        MOVX    @DPTR,A
        MOV     A,?V4
        ADD     A,#0xa
??MT_AfIncomingMsg_12:
        MOV     ?V4,A
        JNC     ??MT_AfIncomingMsg_13
        INC     ?V5
//  746 
//  747   /* Data */
//  748   if (pItem != NULL)
??MT_AfIncomingMsg_13:
        MOV     A,#0x4
        LCALL   ?XSTACK_DISP0_8
        LCALL   ??Subroutine59_0 & 0xFFFF
??CrossCallReturnLabel_147:
        JZ      ??MT_AfIncomingMsg_14
//  749   {
//  750     // Enqueue the new huge incoming item.
//  751     pItem->next = pMtAfInMsgList;
        LCALL   ?Subroutine22 & 0xFFFF
??CrossCallReturnLabel_107:
        MOV     A,#0x4
        LCALL   ?XSTACK_DISP0_8
        LCALL   ?Subroutine29 & 0xFFFF
??CrossCallReturnLabel_48:
        LCALL   ?Subroutine34 & 0xFFFF
//  752     pMtAfInMsgList = pItem;
??CrossCallReturnLabel_64:
        MOV     A,#0x4
        LCALL   ?XSTACK_DISP0_8
        LCALL   ?Subroutine14 & 0xFFFF
//  753 
//  754     // Setup to time-out the huge incoming item if host does not MT_AF_DATA_RETRIEVE it.
//  755     pItem->tick = MT_AF_EXEC_CNT;
??CrossCallReturnLabel_22:
        MOV     A,#0x4
        LCALL   ?XSTACK_DISP0_8
        LCALL   ??Subroutine54_0 & 0xFFFF
??CrossCallReturnLabel_116:
        ADD     A,#0x8
        MOV     DPL,A
        CLR     A
        ADDC    A,R0
        MOV     DPH,A
        LCALL   ?Subroutine33 & 0xFFFF
//  756     if (ZSuccess != osal_start_timerEx(MT_TaskID, MT_AF_EXEC_EVT, MT_AF_EXEC_DLY))
??CrossCallReturnLabel_58:
        LCALL   `??osal_start_timerEx::?relay`; Banked call to: osal_start_timerEx
        MOV     A,R1
        JZ      ??MT_AfIncomingMsg_15
//  757     {
//  758       (void)osal_set_event(MT_TaskID, MT_AF_EXEC_EVT);
        ; Setup parameters for call to function osal_set_event
        MOV     R2,#0x8
        MOV     R3,#0x0
        MOV     DPTR,#MT_TaskID
        MOVX    A,@DPTR
        MOV     R1,A
        LCALL   `??osal_set_event::?relay`; Banked call to: osal_set_event
//  759     }
//  760 
//  761     pItem->timestamp = pMsg->timestamp;
??MT_AfIncomingMsg_15:
        LCALL   ??Subroutine53_0 & 0xFFFF
??CrossCallReturnLabel_119:
        ADD     A,#0x1a
        MOV     DPL,A
        CLR     A
        ADDC    A,R0
        MOV     DPH,A
        LCALL   ?XLOAD_R0123
        MOV     A,#0x4
        LCALL   ?XSTACK_DISP0_8
        MOVX    A,@DPTR
        MOV     R4,A
        INC     DPTR
        MOVX    A,@DPTR
        MOV     DPH,A
        MOV     DPL,R4
        INC     DPTR
        INC     DPTR
        INC     DPTR
        INC     DPTR
        LCALL   ?XSTORE_R0123
//  762     (void)osal_memcpy(pItem->data, pMsg->cmd.Data, dataLen);
        ; Setup parameters for call to function osal_memcpy
        LCALL   ?Subroutine7 & 0xFFFF
//  763   }
??CrossCallReturnLabel_9:
        LCALL   ?PUSH_XSTACK_I_THREE
          CFI CFA_XSP16 add(XSP16, 26)
        MOV     R4,?V6
        MOV     R5,?V7
        MOV     A,#0x7
        LCALL   ?XSTACK_DISP0_8
        LCALL   ?Subroutine4 & 0xFFFF
??CrossCallReturnLabel_2:
        MOV     R2,A
        INC     DPTR
        MOVX    A,@DPTR
        MOV     R3,A
        SJMP    ??MT_AfIncomingMsg_16
          CFI CFA_XSP16 add(XSP16, 23)
//  764   else
//  765   {
//  766     (void)osal_memcpy(pTmp, pMsg->cmd.Data, dataLen);
??MT_AfIncomingMsg_14:
        ; Setup parameters for call to function osal_memcpy
        LCALL   ?Subroutine7 & 0xFFFF
//  767   }
??CrossCallReturnLabel_10:
        LCALL   ?PUSH_XSTACK_I_THREE
          CFI CFA_XSP16 add(XSP16, 26)
        MOV     R4,?V6
        MOV     R5,?V7
        MOV     R2,?V4
        MOV     R3,?V5
??MT_AfIncomingMsg_16:
        LCALL   `??osal_memcpy::?relay`; Banked call to: osal_memcpy
        MOV     A,#0x3
        LCALL   ?DEALLOC_XSTACK8
          CFI CFA_XSP16 add(XSP16, 23)
//  768 
//  769   /* Build and send back the response */
//  770   MT_BuildAndSendZToolResponse(((uint8)MT_RPC_CMD_AREQ|(uint8)MT_RPC_SYS_AF), cmd, respLen, pRsp);
        ; Setup parameters for call to function MT_BuildAndSendZToolResponse
        MOV     A,#0x2
        LCALL   ?XSTACK_DISP0_8
        MOVX    A,@DPTR
        MOV     R4,A
        INC     DPTR
        MOVX    A,@DPTR
        MOV     R5,A
        MOV     A,R6
        MOV     R3,A
        MOV     A,#0x6
        LCALL   ?XSTACK_DISP0_8
        MOVX    A,@DPTR
        MOV     R2,A
        MOV     R1,#0x44
        LCALL   `??MT_BuildAndSendZToolResponse::?relay`; Banked call to: MT_BuildAndSendZToolResponse
//  771 
//  772   (void)osal_mem_free(pRsp);
        ; Setup parameters for call to function osal_mem_free
        MOV     A,#0x2
        LCALL   ?XSTACK_DISP0_8
        LCALL   ??Subroutine56_0 & 0xFFFF
??CrossCallReturnLabel_129:
        LCALL   `??osal_mem_free::?relay`; Banked call to: osal_mem_free
//  773 }
??MT_AfIncomingMsg_3:
        MOV     A,#0x7
        LJMP    ?Subroutine1 & 0xFFFF
          CFI EndBlock cfiBlock30

        RSEG BANKED_CODE:HUGECODE:NOROOT(0)
?Subroutine38:
          CFI Block cfiCond31 Using cfiCommon0
          CFI Function MT_AfIncomingMsg
          CFI Conditional ??CrossCallReturnLabel_99
          CFI R6 load(1, XDATA, add(CFA_XSP16, literal(-16)))
          CFI VB load(1, XDATA, add(CFA_XSP16, literal(-15)))
          CFI V0 load(1, XDATA, add(CFA_XSP16, literal(-14)))
          CFI V1 load(1, XDATA, add(CFA_XSP16, literal(-13)))
          CFI V2 load(1, XDATA, add(CFA_XSP16, literal(-12)))
          CFI V3 load(1, XDATA, add(CFA_XSP16, literal(-11)))
          CFI V4 load(1, XDATA, add(CFA_XSP16, literal(-10)))
          CFI V5 load(1, XDATA, add(CFA_XSP16, literal(-9)))
          CFI V6 load(1, XDATA, add(CFA_XSP16, literal(-8)))
          CFI V7 load(1, XDATA, add(CFA_XSP16, literal(-7)))
          CFI R7 load(1, XDATA, add(CFA_XSP16, literal(-6)))
          CFI ?RET_LOW load(1, XDATA, add(CFA_XSP16, literal(-5)))
          CFI ?RET_HIGH load(1, XDATA, add(CFA_XSP16, literal(-4)))
          CFI ?BRET_EXT load(1, XDATA, add(CFA_XSP16, literal(-3)))
          CFI DPL0 load(1, XDATA, add(CFA_XSP16, literal(-2)))
          CFI DPH0 load(1, XDATA, add(CFA_XSP16, literal(-1)))
          CFI CFA_SP SP+-2
          CFI CFA_XSP16 add(XSP16, 23)
          CFI Block cfiCond32 Using cfiCommon0
          CFI (cfiCond32) Function MT_AfIncomingMsg
          CFI (cfiCond32) Conditional ??CrossCallReturnLabel_100
          CFI (cfiCond32) R6 load(1, XDATA, add(CFA_XSP16, literal(-16)))
          CFI (cfiCond32) VB load(1, XDATA, add(CFA_XSP16, literal(-15)))
          CFI (cfiCond32) V0 load(1, XDATA, add(CFA_XSP16, literal(-14)))
          CFI (cfiCond32) V1 load(1, XDATA, add(CFA_XSP16, literal(-13)))
          CFI (cfiCond32) V2 load(1, XDATA, add(CFA_XSP16, literal(-12)))
          CFI (cfiCond32) V3 load(1, XDATA, add(CFA_XSP16, literal(-11)))
          CFI (cfiCond32) V4 load(1, XDATA, add(CFA_XSP16, literal(-10)))
          CFI (cfiCond32) V5 load(1, XDATA, add(CFA_XSP16, literal(-9)))
          CFI (cfiCond32) V6 load(1, XDATA, add(CFA_XSP16, literal(-8)))
          CFI (cfiCond32) V7 load(1, XDATA, add(CFA_XSP16, literal(-7)))
          CFI (cfiCond32) R7 load(1, XDATA, add(CFA_XSP16, literal(-6)))
          CFI (cfiCond32) ?RET_LOW load(1, XDATA, add(CFA_XSP16, literal(-5)))
          CFI (cfiCond32) ?RET_HIGH load(1, XDATA, add(CFA_XSP16, literal(-4)))
          CFI (cfiCond32) ?BRET_EXT load(1, XDATA, add(CFA_XSP16, literal(-3)))
          CFI (cfiCond32) DPL0 load(1, XDATA, add(CFA_XSP16, literal(-2)))
          CFI (cfiCond32) DPH0 load(1, XDATA, add(CFA_XSP16, literal(-1)))
          CFI (cfiCond32) CFA_SP SP+-2
          CFI (cfiCond32) CFA_XSP16 add(XSP16, 23)
          CFI Block cfiPicker33 Using cfiCommon1
          CFI (cfiPicker33) NoFunction
          CFI (cfiPicker33) Picker
        INC     DPTR
          CFI EndBlock cfiCond31
          CFI EndBlock cfiCond32
          CFI EndBlock cfiPicker33
        REQUIRE ??Subroutine50_0
        ; // Fall through to label ??Subroutine50_0

        RSEG BANKED_CODE:HUGECODE:NOROOT(0)
??Subroutine50_0:
          CFI Block cfiCond34 Using cfiCommon0
          CFI Function MT_AfIncomingMsg
          CFI Conditional ??CrossCallReturnLabel_101
          CFI R6 load(1, XDATA, add(CFA_XSP16, literal(-16)))
          CFI VB load(1, XDATA, add(CFA_XSP16, literal(-15)))
          CFI V0 load(1, XDATA, add(CFA_XSP16, literal(-14)))
          CFI V1 load(1, XDATA, add(CFA_XSP16, literal(-13)))
          CFI V2 load(1, XDATA, add(CFA_XSP16, literal(-12)))
          CFI V3 load(1, XDATA, add(CFA_XSP16, literal(-11)))
          CFI V4 load(1, XDATA, add(CFA_XSP16, literal(-10)))
          CFI V5 load(1, XDATA, add(CFA_XSP16, literal(-9)))
          CFI V6 load(1, XDATA, add(CFA_XSP16, literal(-8)))
          CFI V7 load(1, XDATA, add(CFA_XSP16, literal(-7)))
          CFI R7 load(1, XDATA, add(CFA_XSP16, literal(-6)))
          CFI ?RET_LOW load(1, XDATA, add(CFA_XSP16, literal(-5)))
          CFI ?RET_HIGH load(1, XDATA, add(CFA_XSP16, literal(-4)))
          CFI ?BRET_EXT load(1, XDATA, add(CFA_XSP16, literal(-3)))
          CFI DPL0 load(1, XDATA, add(CFA_XSP16, literal(-2)))
          CFI DPH0 load(1, XDATA, add(CFA_XSP16, literal(-1)))
          CFI CFA_SP SP+-2
          CFI CFA_XSP16 add(XSP16, 23)
          CFI Block cfiCond35 Using cfiCommon0
          CFI (cfiCond35) Function MT_AfIncomingMsg
          CFI (cfiCond35) Conditional ??CrossCallReturnLabel_99
          CFI (cfiCond35) R6 load(1, XDATA, add(CFA_XSP16, literal(-16)))
          CFI (cfiCond35) VB load(1, XDATA, add(CFA_XSP16, literal(-15)))
          CFI (cfiCond35) V0 load(1, XDATA, add(CFA_XSP16, literal(-14)))
          CFI (cfiCond35) V1 load(1, XDATA, add(CFA_XSP16, literal(-13)))
          CFI (cfiCond35) V2 load(1, XDATA, add(CFA_XSP16, literal(-12)))
          CFI (cfiCond35) V3 load(1, XDATA, add(CFA_XSP16, literal(-11)))
          CFI (cfiCond35) V4 load(1, XDATA, add(CFA_XSP16, literal(-10)))
          CFI (cfiCond35) V5 load(1, XDATA, add(CFA_XSP16, literal(-9)))
          CFI (cfiCond35) V6 load(1, XDATA, add(CFA_XSP16, literal(-8)))
          CFI (cfiCond35) V7 load(1, XDATA, add(CFA_XSP16, literal(-7)))
          CFI (cfiCond35) R7 load(1, XDATA, add(CFA_XSP16, literal(-6)))
          CFI (cfiCond35) ?RET_LOW load(1, XDATA, add(CFA_XSP16, literal(-5)))
          CFI (cfiCond35) ?RET_HIGH load(1, XDATA, add(CFA_XSP16, literal(-4)))
          CFI (cfiCond35) ?BRET_EXT load(1, XDATA, add(CFA_XSP16, literal(-3)))
          CFI (cfiCond35) DPL0 load(1, XDATA, add(CFA_XSP16, literal(-2)))
          CFI (cfiCond35) DPH0 load(1, XDATA, add(CFA_XSP16, literal(-1)))
          CFI (cfiCond35) CFA_SP SP+-2
          CFI (cfiCond35) CFA_XSP16 add(XSP16, 23)
          CFI Block cfiCond36 Using cfiCommon0
          CFI (cfiCond36) Function MT_AfIncomingMsg
          CFI (cfiCond36) Conditional ??CrossCallReturnLabel_100
          CFI (cfiCond36) R6 load(1, XDATA, add(CFA_XSP16, literal(-16)))
          CFI (cfiCond36) VB load(1, XDATA, add(CFA_XSP16, literal(-15)))
          CFI (cfiCond36) V0 load(1, XDATA, add(CFA_XSP16, literal(-14)))
          CFI (cfiCond36) V1 load(1, XDATA, add(CFA_XSP16, literal(-13)))
          CFI (cfiCond36) V2 load(1, XDATA, add(CFA_XSP16, literal(-12)))
          CFI (cfiCond36) V3 load(1, XDATA, add(CFA_XSP16, literal(-11)))
          CFI (cfiCond36) V4 load(1, XDATA, add(CFA_XSP16, literal(-10)))
          CFI (cfiCond36) V5 load(1, XDATA, add(CFA_XSP16, literal(-9)))
          CFI (cfiCond36) V6 load(1, XDATA, add(CFA_XSP16, literal(-8)))
          CFI (cfiCond36) V7 load(1, XDATA, add(CFA_XSP16, literal(-7)))
          CFI (cfiCond36) R7 load(1, XDATA, add(CFA_XSP16, literal(-6)))
          CFI (cfiCond36) ?RET_LOW load(1, XDATA, add(CFA_XSP16, literal(-5)))
          CFI (cfiCond36) ?RET_HIGH load(1, XDATA, add(CFA_XSP16, literal(-4)))
          CFI (cfiCond36) ?BRET_EXT load(1, XDATA, add(CFA_XSP16, literal(-3)))
          CFI (cfiCond36) DPL0 load(1, XDATA, add(CFA_XSP16, literal(-2)))
          CFI (cfiCond36) DPH0 load(1, XDATA, add(CFA_XSP16, literal(-1)))
          CFI (cfiCond36) CFA_SP SP+-2
          CFI (cfiCond36) CFA_XSP16 add(XSP16, 23)
          CFI Block cfiPicker37 Using cfiCommon1
          CFI (cfiPicker37) NoFunction
          CFI (cfiPicker37) Picker
        MOVX    @DPTR,A
        MOV     DPL,?XSP + 0
        MOV     DPH,?XSP + 1
        RET
          CFI EndBlock cfiCond34
          CFI EndBlock cfiCond35
          CFI EndBlock cfiCond36
          CFI EndBlock cfiPicker37

        RSEG BANKED_CODE:HUGECODE:NOROOT(0)
?Subroutine37:
          CFI Block cfiCond38 Using cfiCommon0
          CFI Function MT_AfIncomingMsg
          CFI Conditional ??CrossCallReturnLabel_102
          CFI R6 load(1, XDATA, add(CFA_XSP16, literal(-16)))
          CFI VB load(1, XDATA, add(CFA_XSP16, literal(-15)))
          CFI V0 load(1, XDATA, add(CFA_XSP16, literal(-14)))
          CFI V1 load(1, XDATA, add(CFA_XSP16, literal(-13)))
          CFI V2 load(1, XDATA, add(CFA_XSP16, literal(-12)))
          CFI V3 load(1, XDATA, add(CFA_XSP16, literal(-11)))
          CFI V4 load(1, XDATA, add(CFA_XSP16, literal(-10)))
          CFI V5 load(1, XDATA, add(CFA_XSP16, literal(-9)))
          CFI V6 load(1, XDATA, add(CFA_XSP16, literal(-8)))
          CFI V7 load(1, XDATA, add(CFA_XSP16, literal(-7)))
          CFI R7 load(1, XDATA, add(CFA_XSP16, literal(-6)))
          CFI ?RET_LOW load(1, XDATA, add(CFA_XSP16, literal(-5)))
          CFI ?RET_HIGH load(1, XDATA, add(CFA_XSP16, literal(-4)))
          CFI ?BRET_EXT load(1, XDATA, add(CFA_XSP16, literal(-3)))
          CFI DPL0 load(1, XDATA, add(CFA_XSP16, literal(-2)))
          CFI DPH0 load(1, XDATA, add(CFA_XSP16, literal(-1)))
          CFI CFA_SP SP+-2
          CFI CFA_XSP16 add(XSP16, 23)
          CFI Block cfiCond39 Using cfiCommon0
          CFI (cfiCond39) Function MT_AfIncomingMsg
          CFI (cfiCond39) Conditional ??CrossCallReturnLabel_103
          CFI (cfiCond39) R6 load(1, XDATA, add(CFA_XSP16, literal(-16)))
          CFI (cfiCond39) VB load(1, XDATA, add(CFA_XSP16, literal(-15)))
          CFI (cfiCond39) V0 load(1, XDATA, add(CFA_XSP16, literal(-14)))
          CFI (cfiCond39) V1 load(1, XDATA, add(CFA_XSP16, literal(-13)))
          CFI (cfiCond39) V2 load(1, XDATA, add(CFA_XSP16, literal(-12)))
          CFI (cfiCond39) V3 load(1, XDATA, add(CFA_XSP16, literal(-11)))
          CFI (cfiCond39) V4 load(1, XDATA, add(CFA_XSP16, literal(-10)))
          CFI (cfiCond39) V5 load(1, XDATA, add(CFA_XSP16, literal(-9)))
          CFI (cfiCond39) V6 load(1, XDATA, add(CFA_XSP16, literal(-8)))
          CFI (cfiCond39) V7 load(1, XDATA, add(CFA_XSP16, literal(-7)))
          CFI (cfiCond39) R7 load(1, XDATA, add(CFA_XSP16, literal(-6)))
          CFI (cfiCond39) ?RET_LOW load(1, XDATA, add(CFA_XSP16, literal(-5)))
          CFI (cfiCond39) ?RET_HIGH load(1, XDATA, add(CFA_XSP16, literal(-4)))
          CFI (cfiCond39) ?BRET_EXT load(1, XDATA, add(CFA_XSP16, literal(-3)))
          CFI (cfiCond39) DPL0 load(1, XDATA, add(CFA_XSP16, literal(-2)))
          CFI (cfiCond39) DPH0 load(1, XDATA, add(CFA_XSP16, literal(-1)))
          CFI (cfiCond39) CFA_SP SP+-2
          CFI (cfiCond39) CFA_XSP16 add(XSP16, 23)
          CFI Block cfiPicker40 Using cfiCommon1
          CFI (cfiPicker40) NoFunction
          CFI (cfiPicker40) Picker
        INC     DPTR
        INC     DPTR
        INC     DPTR
        INC     DPTR
        MOV     A,?V0
          CFI EndBlock cfiCond38
          CFI EndBlock cfiCond39
          CFI EndBlock cfiPicker40
        REQUIRE ??Subroutine51_0
        ; // Fall through to label ??Subroutine51_0

        RSEG BANKED_CODE:HUGECODE:NOROOT(0)
??Subroutine51_0:
          CFI Block cfiCond41 Using cfiCommon0
          CFI Function MT_AfIncomingMsg
          CFI Conditional ??CrossCallReturnLabel_104
          CFI R6 load(1, XDATA, add(CFA_XSP16, literal(-16)))
          CFI VB load(1, XDATA, add(CFA_XSP16, literal(-15)))
          CFI V0 load(1, XDATA, add(CFA_XSP16, literal(-14)))
          CFI V1 load(1, XDATA, add(CFA_XSP16, literal(-13)))
          CFI V2 load(1, XDATA, add(CFA_XSP16, literal(-12)))
          CFI V3 load(1, XDATA, add(CFA_XSP16, literal(-11)))
          CFI V4 load(1, XDATA, add(CFA_XSP16, literal(-10)))
          CFI V5 load(1, XDATA, add(CFA_XSP16, literal(-9)))
          CFI V6 load(1, XDATA, add(CFA_XSP16, literal(-8)))
          CFI V7 load(1, XDATA, add(CFA_XSP16, literal(-7)))
          CFI R7 load(1, XDATA, add(CFA_XSP16, literal(-6)))
          CFI ?RET_LOW load(1, XDATA, add(CFA_XSP16, literal(-5)))
          CFI ?RET_HIGH load(1, XDATA, add(CFA_XSP16, literal(-4)))
          CFI ?BRET_EXT load(1, XDATA, add(CFA_XSP16, literal(-3)))
          CFI DPL0 load(1, XDATA, add(CFA_XSP16, literal(-2)))
          CFI DPH0 load(1, XDATA, add(CFA_XSP16, literal(-1)))
          CFI CFA_SP SP+-2
          CFI CFA_XSP16 add(XSP16, 23)
          CFI Block cfiCond42 Using cfiCommon0
          CFI (cfiCond42) Function MT_AfIncomingMsg
          CFI (cfiCond42) Conditional ??CrossCallReturnLabel_102
          CFI (cfiCond42) R6 load(1, XDATA, add(CFA_XSP16, literal(-16)))
          CFI (cfiCond42) VB load(1, XDATA, add(CFA_XSP16, literal(-15)))
          CFI (cfiCond42) V0 load(1, XDATA, add(CFA_XSP16, literal(-14)))
          CFI (cfiCond42) V1 load(1, XDATA, add(CFA_XSP16, literal(-13)))
          CFI (cfiCond42) V2 load(1, XDATA, add(CFA_XSP16, literal(-12)))
          CFI (cfiCond42) V3 load(1, XDATA, add(CFA_XSP16, literal(-11)))
          CFI (cfiCond42) V4 load(1, XDATA, add(CFA_XSP16, literal(-10)))
          CFI (cfiCond42) V5 load(1, XDATA, add(CFA_XSP16, literal(-9)))
          CFI (cfiCond42) V6 load(1, XDATA, add(CFA_XSP16, literal(-8)))
          CFI (cfiCond42) V7 load(1, XDATA, add(CFA_XSP16, literal(-7)))
          CFI (cfiCond42) R7 load(1, XDATA, add(CFA_XSP16, literal(-6)))
          CFI (cfiCond42) ?RET_LOW load(1, XDATA, add(CFA_XSP16, literal(-5)))
          CFI (cfiCond42) ?RET_HIGH load(1, XDATA, add(CFA_XSP16, literal(-4)))
          CFI (cfiCond42) ?BRET_EXT load(1, XDATA, add(CFA_XSP16, literal(-3)))
          CFI (cfiCond42) DPL0 load(1, XDATA, add(CFA_XSP16, literal(-2)))
          CFI (cfiCond42) DPH0 load(1, XDATA, add(CFA_XSP16, literal(-1)))
          CFI (cfiCond42) CFA_SP SP+-2
          CFI (cfiCond42) CFA_XSP16 add(XSP16, 23)
          CFI Block cfiCond43 Using cfiCommon0
          CFI (cfiCond43) Function MT_AfIncomingMsg
          CFI (cfiCond43) Conditional ??CrossCallReturnLabel_103
          CFI (cfiCond43) R6 load(1, XDATA, add(CFA_XSP16, literal(-16)))
          CFI (cfiCond43) VB load(1, XDATA, add(CFA_XSP16, literal(-15)))
          CFI (cfiCond43) V0 load(1, XDATA, add(CFA_XSP16, literal(-14)))
          CFI (cfiCond43) V1 load(1, XDATA, add(CFA_XSP16, literal(-13)))
          CFI (cfiCond43) V2 load(1, XDATA, add(CFA_XSP16, literal(-12)))
          CFI (cfiCond43) V3 load(1, XDATA, add(CFA_XSP16, literal(-11)))
          CFI (cfiCond43) V4 load(1, XDATA, add(CFA_XSP16, literal(-10)))
          CFI (cfiCond43) V5 load(1, XDATA, add(CFA_XSP16, literal(-9)))
          CFI (cfiCond43) V6 load(1, XDATA, add(CFA_XSP16, literal(-8)))
          CFI (cfiCond43) V7 load(1, XDATA, add(CFA_XSP16, literal(-7)))
          CFI (cfiCond43) R7 load(1, XDATA, add(CFA_XSP16, literal(-6)))
          CFI (cfiCond43) ?RET_LOW load(1, XDATA, add(CFA_XSP16, literal(-5)))
          CFI (cfiCond43) ?RET_HIGH load(1, XDATA, add(CFA_XSP16, literal(-4)))
          CFI (cfiCond43) ?BRET_EXT load(1, XDATA, add(CFA_XSP16, literal(-3)))
          CFI (cfiCond43) DPL0 load(1, XDATA, add(CFA_XSP16, literal(-2)))
          CFI (cfiCond43) DPH0 load(1, XDATA, add(CFA_XSP16, literal(-1)))
          CFI (cfiCond43) CFA_SP SP+-2
          CFI (cfiCond43) CFA_XSP16 add(XSP16, 23)
          CFI Block cfiPicker44 Using cfiCommon1
          CFI (cfiPicker44) NoFunction
          CFI (cfiPicker44) Picker
        MOVX    @DPTR,A
        MOV     DPL,R2
        MOV     DPH,R3
        MOV     R0,#?V0
        RET
          CFI EndBlock cfiCond41
          CFI EndBlock cfiCond42
          CFI EndBlock cfiCond43
          CFI EndBlock cfiPicker44

        RSEG BANKED_CODE:HUGECODE:NOROOT(0)
?Subroutine34:
          CFI Block cfiCond45 Using cfiCommon0
          CFI Function MT_AfExec
          CFI Conditional ??CrossCallReturnLabel_59
          CFI R6 load(1, XDATA, add(CFA_XSP16, literal(-9)))
          CFI VB load(1, XDATA, add(CFA_XSP16, literal(-8)))
          CFI V0 load(1, XDATA, add(CFA_XSP16, literal(-7)))
          CFI R7 load(1, XDATA, add(CFA_XSP16, literal(-6)))
          CFI ?RET_LOW load(1, XDATA, add(CFA_XSP16, literal(-5)))
          CFI ?RET_HIGH load(1, XDATA, add(CFA_XSP16, literal(-4)))
          CFI ?BRET_EXT load(1, XDATA, add(CFA_XSP16, literal(-3)))
          CFI DPL0 load(1, XDATA, add(CFA_XSP16, literal(-2)))
          CFI DPH0 load(1, XDATA, add(CFA_XSP16, literal(-1)))
          CFI CFA_SP SP+-2
          CFI CFA_XSP16 add(XSP16, 9)
          CFI Block cfiCond46 Using cfiCommon0
          CFI (cfiCond46) Function MT_AfDataRequest
          CFI (cfiCond46) Conditional ??CrossCallReturnLabel_60
          CFI (cfiCond46) R6 load(1, XDATA, add(CFA_XSP16, literal(-16)))
          CFI (cfiCond46) VB load(1, XDATA, add(CFA_XSP16, literal(-15)))
          CFI (cfiCond46) V0 load(1, XDATA, add(CFA_XSP16, literal(-14)))
          CFI (cfiCond46) V1 load(1, XDATA, add(CFA_XSP16, literal(-13)))
          CFI (cfiCond46) V2 load(1, XDATA, add(CFA_XSP16, literal(-12)))
          CFI (cfiCond46) V3 load(1, XDATA, add(CFA_XSP16, literal(-11)))
          CFI (cfiCond46) V4 load(1, XDATA, add(CFA_XSP16, literal(-10)))
          CFI (cfiCond46) V5 load(1, XDATA, add(CFA_XSP16, literal(-9)))
          CFI (cfiCond46) V6 load(1, XDATA, add(CFA_XSP16, literal(-8)))
          CFI (cfiCond46) V7 load(1, XDATA, add(CFA_XSP16, literal(-7)))
          CFI (cfiCond46) R7 load(1, XDATA, add(CFA_XSP16, literal(-6)))
          CFI (cfiCond46) ?RET_LOW load(1, XDATA, add(CFA_XSP16, literal(-5)))
          CFI (cfiCond46) ?RET_HIGH load(1, XDATA, add(CFA_XSP16, literal(-4)))
          CFI (cfiCond46) ?BRET_EXT load(1, XDATA, add(CFA_XSP16, literal(-3)))
          CFI (cfiCond46) DPL0 load(1, XDATA, add(CFA_XSP16, literal(-2)))
          CFI (cfiCond46) DPH0 load(1, XDATA, add(CFA_XSP16, literal(-1)))
          CFI (cfiCond46) CFA_SP SP+-2
          CFI (cfiCond46) CFA_XSP16 add(XSP16, 33)
          CFI Block cfiCond47 Using cfiCommon0
          CFI (cfiCond47) Function MT_AfDataRequest
          CFI (cfiCond47) Conditional ??CrossCallReturnLabel_61
          CFI (cfiCond47) R6 load(1, XDATA, add(CFA_XSP16, literal(-16)))
          CFI (cfiCond47) VB load(1, XDATA, add(CFA_XSP16, literal(-15)))
          CFI (cfiCond47) V0 load(1, XDATA, add(CFA_XSP16, literal(-14)))
          CFI (cfiCond47) V1 load(1, XDATA, add(CFA_XSP16, literal(-13)))
          CFI (cfiCond47) V2 load(1, XDATA, add(CFA_XSP16, literal(-12)))
          CFI (cfiCond47) V3 load(1, XDATA, add(CFA_XSP16, literal(-11)))
          CFI (cfiCond47) V4 load(1, XDATA, add(CFA_XSP16, literal(-10)))
          CFI (cfiCond47) V5 load(1, XDATA, add(CFA_XSP16, literal(-9)))
          CFI (cfiCond47) V6 load(1, XDATA, add(CFA_XSP16, literal(-8)))
          CFI (cfiCond47) V7 load(1, XDATA, add(CFA_XSP16, literal(-7)))
          CFI (cfiCond47) R7 load(1, XDATA, add(CFA_XSP16, literal(-6)))
          CFI (cfiCond47) ?RET_LOW load(1, XDATA, add(CFA_XSP16, literal(-5)))
          CFI (cfiCond47) ?RET_HIGH load(1, XDATA, add(CFA_XSP16, literal(-4)))
          CFI (cfiCond47) ?BRET_EXT load(1, XDATA, add(CFA_XSP16, literal(-3)))
          CFI (cfiCond47) DPL0 load(1, XDATA, add(CFA_XSP16, literal(-2)))
          CFI (cfiCond47) DPH0 load(1, XDATA, add(CFA_XSP16, literal(-1)))
          CFI (cfiCond47) CFA_SP SP+-2
          CFI (cfiCond47) CFA_XSP16 add(XSP16, 33)
          CFI Block cfiCond48 Using cfiCommon0
          CFI (cfiCond48) Function MT_AfDataRequest
          CFI (cfiCond48) Conditional ??CrossCallReturnLabel_62
          CFI (cfiCond48) R6 load(1, XDATA, add(CFA_XSP16, literal(-16)))
          CFI (cfiCond48) VB load(1, XDATA, add(CFA_XSP16, literal(-15)))
          CFI (cfiCond48) V0 load(1, XDATA, add(CFA_XSP16, literal(-14)))
          CFI (cfiCond48) V1 load(1, XDATA, add(CFA_XSP16, literal(-13)))
          CFI (cfiCond48) V2 load(1, XDATA, add(CFA_XSP16, literal(-12)))
          CFI (cfiCond48) V3 load(1, XDATA, add(CFA_XSP16, literal(-11)))
          CFI (cfiCond48) V4 load(1, XDATA, add(CFA_XSP16, literal(-10)))
          CFI (cfiCond48) V5 load(1, XDATA, add(CFA_XSP16, literal(-9)))
          CFI (cfiCond48) V6 load(1, XDATA, add(CFA_XSP16, literal(-8)))
          CFI (cfiCond48) V7 load(1, XDATA, add(CFA_XSP16, literal(-7)))
          CFI (cfiCond48) R7 load(1, XDATA, add(CFA_XSP16, literal(-6)))
          CFI (cfiCond48) ?RET_LOW load(1, XDATA, add(CFA_XSP16, literal(-5)))
          CFI (cfiCond48) ?RET_HIGH load(1, XDATA, add(CFA_XSP16, literal(-4)))
          CFI (cfiCond48) ?BRET_EXT load(1, XDATA, add(CFA_XSP16, literal(-3)))
          CFI (cfiCond48) DPL0 load(1, XDATA, add(CFA_XSP16, literal(-2)))
          CFI (cfiCond48) DPH0 load(1, XDATA, add(CFA_XSP16, literal(-1)))
          CFI (cfiCond48) CFA_SP SP+-2
          CFI (cfiCond48) CFA_XSP16 add(XSP16, 33)
          CFI Block cfiCond49 Using cfiCommon0
          CFI (cfiCond49) Function MT_AfIncomingMsg
          CFI (cfiCond49) Conditional ??CrossCallReturnLabel_63
          CFI (cfiCond49) R6 load(1, XDATA, add(CFA_XSP16, literal(-16)))
          CFI (cfiCond49) VB load(1, XDATA, add(CFA_XSP16, literal(-15)))
          CFI (cfiCond49) V0 load(1, XDATA, add(CFA_XSP16, literal(-14)))
          CFI (cfiCond49) V1 load(1, XDATA, add(CFA_XSP16, literal(-13)))
          CFI (cfiCond49) V2 load(1, XDATA, add(CFA_XSP16, literal(-12)))
          CFI (cfiCond49) V3 load(1, XDATA, add(CFA_XSP16, literal(-11)))
          CFI (cfiCond49) V4 load(1, XDATA, add(CFA_XSP16, literal(-10)))
          CFI (cfiCond49) V5 load(1, XDATA, add(CFA_XSP16, literal(-9)))
          CFI (cfiCond49) V6 load(1, XDATA, add(CFA_XSP16, literal(-8)))
          CFI (cfiCond49) V7 load(1, XDATA, add(CFA_XSP16, literal(-7)))
          CFI (cfiCond49) R7 load(1, XDATA, add(CFA_XSP16, literal(-6)))
          CFI (cfiCond49) ?RET_LOW load(1, XDATA, add(CFA_XSP16, literal(-5)))
          CFI (cfiCond49) ?RET_HIGH load(1, XDATA, add(CFA_XSP16, literal(-4)))
          CFI (cfiCond49) ?BRET_EXT load(1, XDATA, add(CFA_XSP16, literal(-3)))
          CFI (cfiCond49) DPL0 load(1, XDATA, add(CFA_XSP16, literal(-2)))
          CFI (cfiCond49) DPH0 load(1, XDATA, add(CFA_XSP16, literal(-1)))
          CFI (cfiCond49) CFA_SP SP+-2
          CFI (cfiCond49) CFA_XSP16 add(XSP16, 23)
          CFI Block cfiCond50 Using cfiCommon0
          CFI (cfiCond50) Function MT_AfIncomingMsg
          CFI (cfiCond50) Conditional ??CrossCallReturnLabel_64
          CFI (cfiCond50) R6 load(1, XDATA, add(CFA_XSP16, literal(-16)))
          CFI (cfiCond50) VB load(1, XDATA, add(CFA_XSP16, literal(-15)))
          CFI (cfiCond50) V0 load(1, XDATA, add(CFA_XSP16, literal(-14)))
          CFI (cfiCond50) V1 load(1, XDATA, add(CFA_XSP16, literal(-13)))
          CFI (cfiCond50) V2 load(1, XDATA, add(CFA_XSP16, literal(-12)))
          CFI (cfiCond50) V3 load(1, XDATA, add(CFA_XSP16, literal(-11)))
          CFI (cfiCond50) V4 load(1, XDATA, add(CFA_XSP16, literal(-10)))
          CFI (cfiCond50) V5 load(1, XDATA, add(CFA_XSP16, literal(-9)))
          CFI (cfiCond50) V6 load(1, XDATA, add(CFA_XSP16, literal(-8)))
          CFI (cfiCond50) V7 load(1, XDATA, add(CFA_XSP16, literal(-7)))
          CFI (cfiCond50) R7 load(1, XDATA, add(CFA_XSP16, literal(-6)))
          CFI (cfiCond50) ?RET_LOW load(1, XDATA, add(CFA_XSP16, literal(-5)))
          CFI (cfiCond50) ?RET_HIGH load(1, XDATA, add(CFA_XSP16, literal(-4)))
          CFI (cfiCond50) ?BRET_EXT load(1, XDATA, add(CFA_XSP16, literal(-3)))
          CFI (cfiCond50) DPL0 load(1, XDATA, add(CFA_XSP16, literal(-2)))
          CFI (cfiCond50) DPH0 load(1, XDATA, add(CFA_XSP16, literal(-1)))
          CFI (cfiCond50) CFA_SP SP+-2
          CFI (cfiCond50) CFA_XSP16 add(XSP16, 23)
          CFI Block cfiCond51 Using cfiCommon0
          CFI (cfiCond51) Function MT_AfDataRetrieve
          CFI (cfiCond51) Conditional ??CrossCallReturnLabel_65
          CFI (cfiCond51) R6 load(1, XDATA, add(CFA_XSP16, literal(-16)))
          CFI (cfiCond51) VB load(1, XDATA, add(CFA_XSP16, literal(-15)))
          CFI (cfiCond51) V0 load(1, XDATA, add(CFA_XSP16, literal(-14)))
          CFI (cfiCond51) V1 load(1, XDATA, add(CFA_XSP16, literal(-13)))
          CFI (cfiCond51) V2 load(1, XDATA, add(CFA_XSP16, literal(-12)))
          CFI (cfiCond51) V3 load(1, XDATA, add(CFA_XSP16, literal(-11)))
          CFI (cfiCond51) V4 load(1, XDATA, add(CFA_XSP16, literal(-10)))
          CFI (cfiCond51) V5 load(1, XDATA, add(CFA_XSP16, literal(-9)))
          CFI (cfiCond51) V6 load(1, XDATA, add(CFA_XSP16, literal(-8)))
          CFI (cfiCond51) V7 load(1, XDATA, add(CFA_XSP16, literal(-7)))
          CFI (cfiCond51) R7 load(1, XDATA, add(CFA_XSP16, literal(-6)))
          CFI (cfiCond51) ?RET_LOW load(1, XDATA, add(CFA_XSP16, literal(-5)))
          CFI (cfiCond51) ?RET_HIGH load(1, XDATA, add(CFA_XSP16, literal(-4)))
          CFI (cfiCond51) ?BRET_EXT load(1, XDATA, add(CFA_XSP16, literal(-3)))
          CFI (cfiCond51) DPL0 load(1, XDATA, add(CFA_XSP16, literal(-2)))
          CFI (cfiCond51) DPH0 load(1, XDATA, add(CFA_XSP16, literal(-1)))
          CFI (cfiCond51) CFA_SP SP+-2
          CFI (cfiCond51) CFA_XSP16 add(XSP16, 21)
          CFI Block cfiCond52 Using cfiCommon0
          CFI (cfiCond52) Function MT_AfDataRetrieve
          CFI (cfiCond52) Conditional ??CrossCallReturnLabel_66
          CFI (cfiCond52) R6 load(1, XDATA, add(CFA_XSP16, literal(-16)))
          CFI (cfiCond52) VB load(1, XDATA, add(CFA_XSP16, literal(-15)))
          CFI (cfiCond52) V0 load(1, XDATA, add(CFA_XSP16, literal(-14)))
          CFI (cfiCond52) V1 load(1, XDATA, add(CFA_XSP16, literal(-13)))
          CFI (cfiCond52) V2 load(1, XDATA, add(CFA_XSP16, literal(-12)))
          CFI (cfiCond52) V3 load(1, XDATA, add(CFA_XSP16, literal(-11)))
          CFI (cfiCond52) V4 load(1, XDATA, add(CFA_XSP16, literal(-10)))
          CFI (cfiCond52) V5 load(1, XDATA, add(CFA_XSP16, literal(-9)))
          CFI (cfiCond52) V6 load(1, XDATA, add(CFA_XSP16, literal(-8)))
          CFI (cfiCond52) V7 load(1, XDATA, add(CFA_XSP16, literal(-7)))
          CFI (cfiCond52) R7 load(1, XDATA, add(CFA_XSP16, literal(-6)))
          CFI (cfiCond52) ?RET_LOW load(1, XDATA, add(CFA_XSP16, literal(-5)))
          CFI (cfiCond52) ?RET_HIGH load(1, XDATA, add(CFA_XSP16, literal(-4)))
          CFI (cfiCond52) ?BRET_EXT load(1, XDATA, add(CFA_XSP16, literal(-3)))
          CFI (cfiCond52) DPL0 load(1, XDATA, add(CFA_XSP16, literal(-2)))
          CFI (cfiCond52) DPH0 load(1, XDATA, add(CFA_XSP16, literal(-1)))
          CFI (cfiCond52) CFA_SP SP+-2
          CFI (cfiCond52) CFA_XSP16 add(XSP16, 21)
          CFI Block cfiCond53 Using cfiCommon0
          CFI (cfiCond53) Function MT_AfDataRetrieve
          CFI (cfiCond53) Conditional ??CrossCallReturnLabel_67
          CFI (cfiCond53) R6 load(1, XDATA, add(CFA_XSP16, literal(-16)))
          CFI (cfiCond53) VB load(1, XDATA, add(CFA_XSP16, literal(-15)))
          CFI (cfiCond53) V0 load(1, XDATA, add(CFA_XSP16, literal(-14)))
          CFI (cfiCond53) V1 load(1, XDATA, add(CFA_XSP16, literal(-13)))
          CFI (cfiCond53) V2 load(1, XDATA, add(CFA_XSP16, literal(-12)))
          CFI (cfiCond53) V3 load(1, XDATA, add(CFA_XSP16, literal(-11)))
          CFI (cfiCond53) V4 load(1, XDATA, add(CFA_XSP16, literal(-10)))
          CFI (cfiCond53) V5 load(1, XDATA, add(CFA_XSP16, literal(-9)))
          CFI (cfiCond53) V6 load(1, XDATA, add(CFA_XSP16, literal(-8)))
          CFI (cfiCond53) V7 load(1, XDATA, add(CFA_XSP16, literal(-7)))
          CFI (cfiCond53) R7 load(1, XDATA, add(CFA_XSP16, literal(-6)))
          CFI (cfiCond53) ?RET_LOW load(1, XDATA, add(CFA_XSP16, literal(-5)))
          CFI (cfiCond53) ?RET_HIGH load(1, XDATA, add(CFA_XSP16, literal(-4)))
          CFI (cfiCond53) ?BRET_EXT load(1, XDATA, add(CFA_XSP16, literal(-3)))
          CFI (cfiCond53) DPL0 load(1, XDATA, add(CFA_XSP16, literal(-2)))
          CFI (cfiCond53) DPH0 load(1, XDATA, add(CFA_XSP16, literal(-1)))
          CFI (cfiCond53) CFA_SP SP+-2
          CFI (cfiCond53) CFA_XSP16 add(XSP16, 21)
          CFI Block cfiCond54 Using cfiCommon0
          CFI (cfiCond54) Function MT_AfDataRetrieve
          CFI (cfiCond54) Conditional ??CrossCallReturnLabel_68
          CFI (cfiCond54) R6 load(1, XDATA, add(CFA_XSP16, literal(-16)))
          CFI (cfiCond54) VB load(1, XDATA, add(CFA_XSP16, literal(-15)))
          CFI (cfiCond54) V0 load(1, XDATA, add(CFA_XSP16, literal(-14)))
          CFI (cfiCond54) V1 load(1, XDATA, add(CFA_XSP16, literal(-13)))
          CFI (cfiCond54) V2 load(1, XDATA, add(CFA_XSP16, literal(-12)))
          CFI (cfiCond54) V3 load(1, XDATA, add(CFA_XSP16, literal(-11)))
          CFI (cfiCond54) V4 load(1, XDATA, add(CFA_XSP16, literal(-10)))
          CFI (cfiCond54) V5 load(1, XDATA, add(CFA_XSP16, literal(-9)))
          CFI (cfiCond54) V6 load(1, XDATA, add(CFA_XSP16, literal(-8)))
          CFI (cfiCond54) V7 load(1, XDATA, add(CFA_XSP16, literal(-7)))
          CFI (cfiCond54) R7 load(1, XDATA, add(CFA_XSP16, literal(-6)))
          CFI (cfiCond54) ?RET_LOW load(1, XDATA, add(CFA_XSP16, literal(-5)))
          CFI (cfiCond54) ?RET_HIGH load(1, XDATA, add(CFA_XSP16, literal(-4)))
          CFI (cfiCond54) ?BRET_EXT load(1, XDATA, add(CFA_XSP16, literal(-3)))
          CFI (cfiCond54) DPL0 load(1, XDATA, add(CFA_XSP16, literal(-2)))
          CFI (cfiCond54) DPH0 load(1, XDATA, add(CFA_XSP16, literal(-1)))
          CFI (cfiCond54) CFA_SP SP+-2
          CFI (cfiCond54) CFA_XSP16 add(XSP16, 21)
          CFI Block cfiCond55 Using cfiCommon0
          CFI (cfiCond55) Function MT_AfDataRetrieve
          CFI (cfiCond55) Conditional ??CrossCallReturnLabel_69
          CFI (cfiCond55) R6 load(1, XDATA, add(CFA_XSP16, literal(-16)))
          CFI (cfiCond55) VB load(1, XDATA, add(CFA_XSP16, literal(-15)))
          CFI (cfiCond55) V0 load(1, XDATA, add(CFA_XSP16, literal(-14)))
          CFI (cfiCond55) V1 load(1, XDATA, add(CFA_XSP16, literal(-13)))
          CFI (cfiCond55) V2 load(1, XDATA, add(CFA_XSP16, literal(-12)))
          CFI (cfiCond55) V3 load(1, XDATA, add(CFA_XSP16, literal(-11)))
          CFI (cfiCond55) V4 load(1, XDATA, add(CFA_XSP16, literal(-10)))
          CFI (cfiCond55) V5 load(1, XDATA, add(CFA_XSP16, literal(-9)))
          CFI (cfiCond55) V6 load(1, XDATA, add(CFA_XSP16, literal(-8)))
          CFI (cfiCond55) V7 load(1, XDATA, add(CFA_XSP16, literal(-7)))
          CFI (cfiCond55) R7 load(1, XDATA, add(CFA_XSP16, literal(-6)))
          CFI (cfiCond55) ?RET_LOW load(1, XDATA, add(CFA_XSP16, literal(-5)))
          CFI (cfiCond55) ?RET_HIGH load(1, XDATA, add(CFA_XSP16, literal(-4)))
          CFI (cfiCond55) ?BRET_EXT load(1, XDATA, add(CFA_XSP16, literal(-3)))
          CFI (cfiCond55) DPL0 load(1, XDATA, add(CFA_XSP16, literal(-2)))
          CFI (cfiCond55) DPH0 load(1, XDATA, add(CFA_XSP16, literal(-1)))
          CFI (cfiCond55) CFA_SP SP+-2
          CFI (cfiCond55) CFA_XSP16 add(XSP16, 21)
          CFI Block cfiPicker56 Using cfiCommon1
          CFI (cfiPicker56) NoFunction
          CFI (cfiPicker56) Picker
        MOV     A,R0
        MOVX    @DPTR,A
        INC     DPTR
        MOV     A,R1
        MOVX    @DPTR,A
        RET
          CFI EndBlock cfiCond45
          CFI EndBlock cfiCond46
          CFI EndBlock cfiCond47
          CFI EndBlock cfiCond48
          CFI EndBlock cfiCond49
          CFI EndBlock cfiCond50
          CFI EndBlock cfiCond51
          CFI EndBlock cfiCond52
          CFI EndBlock cfiCond53
          CFI EndBlock cfiCond54
          CFI EndBlock cfiCond55
          CFI EndBlock cfiPicker56

        RSEG BANKED_CODE:HUGECODE:NOROOT(0)
?Subroutine33:
          CFI Block cfiCond57 Using cfiCommon0
          CFI Function MT_AfDataRequest
          CFI Conditional ??CrossCallReturnLabel_57
          CFI R6 load(1, XDATA, add(CFA_XSP16, literal(-16)))
          CFI VB load(1, XDATA, add(CFA_XSP16, literal(-15)))
          CFI V0 load(1, XDATA, add(CFA_XSP16, literal(-14)))
          CFI V1 load(1, XDATA, add(CFA_XSP16, literal(-13)))
          CFI V2 load(1, XDATA, add(CFA_XSP16, literal(-12)))
          CFI V3 load(1, XDATA, add(CFA_XSP16, literal(-11)))
          CFI V4 load(1, XDATA, add(CFA_XSP16, literal(-10)))
          CFI V5 load(1, XDATA, add(CFA_XSP16, literal(-9)))
          CFI V6 load(1, XDATA, add(CFA_XSP16, literal(-8)))
          CFI V7 load(1, XDATA, add(CFA_XSP16, literal(-7)))
          CFI R7 load(1, XDATA, add(CFA_XSP16, literal(-6)))
          CFI ?RET_LOW load(1, XDATA, add(CFA_XSP16, literal(-5)))
          CFI ?RET_HIGH load(1, XDATA, add(CFA_XSP16, literal(-4)))
          CFI ?BRET_EXT load(1, XDATA, add(CFA_XSP16, literal(-3)))
          CFI DPL0 load(1, XDATA, add(CFA_XSP16, literal(-2)))
          CFI DPH0 load(1, XDATA, add(CFA_XSP16, literal(-1)))
          CFI CFA_SP SP+-2
          CFI CFA_XSP16 add(XSP16, 33)
          CFI Block cfiCond58 Using cfiCommon0
          CFI (cfiCond58) Function MT_AfIncomingMsg
          CFI (cfiCond58) Conditional ??CrossCallReturnLabel_58
          CFI (cfiCond58) R6 load(1, XDATA, add(CFA_XSP16, literal(-16)))
          CFI (cfiCond58) VB load(1, XDATA, add(CFA_XSP16, literal(-15)))
          CFI (cfiCond58) V0 load(1, XDATA, add(CFA_XSP16, literal(-14)))
          CFI (cfiCond58) V1 load(1, XDATA, add(CFA_XSP16, literal(-13)))
          CFI (cfiCond58) V2 load(1, XDATA, add(CFA_XSP16, literal(-12)))
          CFI (cfiCond58) V3 load(1, XDATA, add(CFA_XSP16, literal(-11)))
          CFI (cfiCond58) V4 load(1, XDATA, add(CFA_XSP16, literal(-10)))
          CFI (cfiCond58) V5 load(1, XDATA, add(CFA_XSP16, literal(-9)))
          CFI (cfiCond58) V6 load(1, XDATA, add(CFA_XSP16, literal(-8)))
          CFI (cfiCond58) V7 load(1, XDATA, add(CFA_XSP16, literal(-7)))
          CFI (cfiCond58) R7 load(1, XDATA, add(CFA_XSP16, literal(-6)))
          CFI (cfiCond58) ?RET_LOW load(1, XDATA, add(CFA_XSP16, literal(-5)))
          CFI (cfiCond58) ?RET_HIGH load(1, XDATA, add(CFA_XSP16, literal(-4)))
          CFI (cfiCond58) ?BRET_EXT load(1, XDATA, add(CFA_XSP16, literal(-3)))
          CFI (cfiCond58) DPL0 load(1, XDATA, add(CFA_XSP16, literal(-2)))
          CFI (cfiCond58) DPH0 load(1, XDATA, add(CFA_XSP16, literal(-1)))
          CFI (cfiCond58) CFA_SP SP+-2
          CFI (cfiCond58) CFA_XSP16 add(XSP16, 23)
          CFI Block cfiPicker59 Using cfiCommon1
          CFI (cfiPicker59) NoFunction
          CFI (cfiPicker59) Picker
        MOV     A,#0xf
        MOVX    @DPTR,A
        ; Setup parameters for call to function osal_start_timerEx
        ; Setup parameters for call to function osal_start_timerEx
        MOV     R4,#-0x18
        MOV     R5,#0x3
        MOV     R2,#0x8
        MOV     R3,#0x0
        MOV     DPTR,#MT_TaskID
        MOVX    A,@DPTR
        MOV     R1,A
        RET
          CFI EndBlock cfiCond57
          CFI EndBlock cfiCond58
          CFI EndBlock cfiPicker59

        RSEG BANKED_CODE:HUGECODE:NOROOT(0)
?Subroutine31:
          CFI Block cfiCond60 Using cfiCommon0
          CFI Function MT_AfIncomingMsg
          CFI Conditional ??CrossCallReturnLabel_51
          CFI R6 load(1, XDATA, add(CFA_XSP16, literal(-16)))
          CFI VB load(1, XDATA, add(CFA_XSP16, literal(-15)))
          CFI V0 load(1, XDATA, add(CFA_XSP16, literal(-14)))
          CFI V1 load(1, XDATA, add(CFA_XSP16, literal(-13)))
          CFI V2 load(1, XDATA, add(CFA_XSP16, literal(-12)))
          CFI V3 load(1, XDATA, add(CFA_XSP16, literal(-11)))
          CFI V4 load(1, XDATA, add(CFA_XSP16, literal(-10)))
          CFI V5 load(1, XDATA, add(CFA_XSP16, literal(-9)))
          CFI V6 load(1, XDATA, add(CFA_XSP16, literal(-8)))
          CFI V7 load(1, XDATA, add(CFA_XSP16, literal(-7)))
          CFI R7 load(1, XDATA, add(CFA_XSP16, literal(-6)))
          CFI ?RET_LOW load(1, XDATA, add(CFA_XSP16, literal(-5)))
          CFI ?RET_HIGH load(1, XDATA, add(CFA_XSP16, literal(-4)))
          CFI ?BRET_EXT load(1, XDATA, add(CFA_XSP16, literal(-3)))
          CFI DPL0 load(1, XDATA, add(CFA_XSP16, literal(-2)))
          CFI DPH0 load(1, XDATA, add(CFA_XSP16, literal(-1)))
          CFI CFA_SP SP+-2
          CFI CFA_XSP16 add(XSP16, 23)
          CFI Block cfiCond61 Using cfiCommon0
          CFI (cfiCond61) Function MT_AfIncomingMsg
          CFI (cfiCond61) Conditional ??CrossCallReturnLabel_52
          CFI (cfiCond61) R6 load(1, XDATA, add(CFA_XSP16, literal(-16)))
          CFI (cfiCond61) VB load(1, XDATA, add(CFA_XSP16, literal(-15)))
          CFI (cfiCond61) V0 load(1, XDATA, add(CFA_XSP16, literal(-14)))
          CFI (cfiCond61) V1 load(1, XDATA, add(CFA_XSP16, literal(-13)))
          CFI (cfiCond61) V2 load(1, XDATA, add(CFA_XSP16, literal(-12)))
          CFI (cfiCond61) V3 load(1, XDATA, add(CFA_XSP16, literal(-11)))
          CFI (cfiCond61) V4 load(1, XDATA, add(CFA_XSP16, literal(-10)))
          CFI (cfiCond61) V5 load(1, XDATA, add(CFA_XSP16, literal(-9)))
          CFI (cfiCond61) V6 load(1, XDATA, add(CFA_XSP16, literal(-8)))
          CFI (cfiCond61) V7 load(1, XDATA, add(CFA_XSP16, literal(-7)))
          CFI (cfiCond61) R7 load(1, XDATA, add(CFA_XSP16, literal(-6)))
          CFI (cfiCond61) ?RET_LOW load(1, XDATA, add(CFA_XSP16, literal(-5)))
          CFI (cfiCond61) ?RET_HIGH load(1, XDATA, add(CFA_XSP16, literal(-4)))
          CFI (cfiCond61) ?BRET_EXT load(1, XDATA, add(CFA_XSP16, literal(-3)))
          CFI (cfiCond61) DPL0 load(1, XDATA, add(CFA_XSP16, literal(-2)))
          CFI (cfiCond61) DPH0 load(1, XDATA, add(CFA_XSP16, literal(-1)))
          CFI (cfiCond61) CFA_SP SP+-2
          CFI (cfiCond61) CFA_XSP16 add(XSP16, 23)
          CFI Block cfiCond62 Using cfiCommon0
          CFI (cfiCond62) Function MT_AfIncomingMsg
          CFI (cfiCond62) Conditional ??CrossCallReturnLabel_53
          CFI (cfiCond62) R6 load(1, XDATA, add(CFA_XSP16, literal(-16)))
          CFI (cfiCond62) VB load(1, XDATA, add(CFA_XSP16, literal(-15)))
          CFI (cfiCond62) V0 load(1, XDATA, add(CFA_XSP16, literal(-14)))
          CFI (cfiCond62) V1 load(1, XDATA, add(CFA_XSP16, literal(-13)))
          CFI (cfiCond62) V2 load(1, XDATA, add(CFA_XSP16, literal(-12)))
          CFI (cfiCond62) V3 load(1, XDATA, add(CFA_XSP16, literal(-11)))
          CFI (cfiCond62) V4 load(1, XDATA, add(CFA_XSP16, literal(-10)))
          CFI (cfiCond62) V5 load(1, XDATA, add(CFA_XSP16, literal(-9)))
          CFI (cfiCond62) V6 load(1, XDATA, add(CFA_XSP16, literal(-8)))
          CFI (cfiCond62) V7 load(1, XDATA, add(CFA_XSP16, literal(-7)))
          CFI (cfiCond62) R7 load(1, XDATA, add(CFA_XSP16, literal(-6)))
          CFI (cfiCond62) ?RET_LOW load(1, XDATA, add(CFA_XSP16, literal(-5)))
          CFI (cfiCond62) ?RET_HIGH load(1, XDATA, add(CFA_XSP16, literal(-4)))
          CFI (cfiCond62) ?BRET_EXT load(1, XDATA, add(CFA_XSP16, literal(-3)))
          CFI (cfiCond62) DPL0 load(1, XDATA, add(CFA_XSP16, literal(-2)))
          CFI (cfiCond62) DPH0 load(1, XDATA, add(CFA_XSP16, literal(-1)))
          CFI (cfiCond62) CFA_SP SP+-2
          CFI (cfiCond62) CFA_XSP16 add(XSP16, 23)
          CFI Block cfiCond63 Using cfiCommon0
          CFI (cfiCond63) Function MT_AfIncomingMsg
          CFI (cfiCond63) Conditional ??CrossCallReturnLabel_54
          CFI (cfiCond63) R6 load(1, XDATA, add(CFA_XSP16, literal(-16)))
          CFI (cfiCond63) VB load(1, XDATA, add(CFA_XSP16, literal(-15)))
          CFI (cfiCond63) V0 load(1, XDATA, add(CFA_XSP16, literal(-14)))
          CFI (cfiCond63) V1 load(1, XDATA, add(CFA_XSP16, literal(-13)))
          CFI (cfiCond63) V2 load(1, XDATA, add(CFA_XSP16, literal(-12)))
          CFI (cfiCond63) V3 load(1, XDATA, add(CFA_XSP16, literal(-11)))
          CFI (cfiCond63) V4 load(1, XDATA, add(CFA_XSP16, literal(-10)))
          CFI (cfiCond63) V5 load(1, XDATA, add(CFA_XSP16, literal(-9)))
          CFI (cfiCond63) V6 load(1, XDATA, add(CFA_XSP16, literal(-8)))
          CFI (cfiCond63) V7 load(1, XDATA, add(CFA_XSP16, literal(-7)))
          CFI (cfiCond63) R7 load(1, XDATA, add(CFA_XSP16, literal(-6)))
          CFI (cfiCond63) ?RET_LOW load(1, XDATA, add(CFA_XSP16, literal(-5)))
          CFI (cfiCond63) ?RET_HIGH load(1, XDATA, add(CFA_XSP16, literal(-4)))
          CFI (cfiCond63) ?BRET_EXT load(1, XDATA, add(CFA_XSP16, literal(-3)))
          CFI (cfiCond63) DPL0 load(1, XDATA, add(CFA_XSP16, literal(-2)))
          CFI (cfiCond63) DPH0 load(1, XDATA, add(CFA_XSP16, literal(-1)))
          CFI (cfiCond63) CFA_SP SP+-2
          CFI (cfiCond63) CFA_XSP16 add(XSP16, 23)
          CFI Block cfiPicker64 Using cfiCommon1
          CFI (cfiPicker64) NoFunction
          CFI (cfiPicker64) Picker
        MOVX    @DPTR,A
        MOV     DPL,R0
        MOV     DPH,R1
        INC     DPTR
        MOVX    A,@DPTR
        RET
          CFI EndBlock cfiCond60
          CFI EndBlock cfiCond61
          CFI EndBlock cfiCond62
          CFI EndBlock cfiCond63
          CFI EndBlock cfiPicker64

        RSEG BANKED_CODE:HUGECODE:NOROOT(0)
?Subroutine30:
          CFI Block cfiCond65 Using cfiCommon0
          CFI Function MT_AfIncomingMsg
          CFI Conditional ??CrossCallReturnLabel_49
          CFI R6 load(1, XDATA, add(CFA_XSP16, literal(-16)))
          CFI VB load(1, XDATA, add(CFA_XSP16, literal(-15)))
          CFI V0 load(1, XDATA, add(CFA_XSP16, literal(-14)))
          CFI V1 load(1, XDATA, add(CFA_XSP16, literal(-13)))
          CFI V2 load(1, XDATA, add(CFA_XSP16, literal(-12)))
          CFI V3 load(1, XDATA, add(CFA_XSP16, literal(-11)))
          CFI V4 load(1, XDATA, add(CFA_XSP16, literal(-10)))
          CFI V5 load(1, XDATA, add(CFA_XSP16, literal(-9)))
          CFI V6 load(1, XDATA, add(CFA_XSP16, literal(-8)))
          CFI V7 load(1, XDATA, add(CFA_XSP16, literal(-7)))
          CFI R7 load(1, XDATA, add(CFA_XSP16, literal(-6)))
          CFI ?RET_LOW load(1, XDATA, add(CFA_XSP16, literal(-5)))
          CFI ?RET_HIGH load(1, XDATA, add(CFA_XSP16, literal(-4)))
          CFI ?BRET_EXT load(1, XDATA, add(CFA_XSP16, literal(-3)))
          CFI DPL0 load(1, XDATA, add(CFA_XSP16, literal(-2)))
          CFI DPH0 load(1, XDATA, add(CFA_XSP16, literal(-1)))
          CFI CFA_SP SP+-2
          CFI CFA_XSP16 add(XSP16, 23)
          CFI Block cfiCond66 Using cfiCommon0
          CFI (cfiCond66) Function MT_AfIncomingMsg
          CFI (cfiCond66) Conditional ??CrossCallReturnLabel_50
          CFI (cfiCond66) R6 load(1, XDATA, add(CFA_XSP16, literal(-16)))
          CFI (cfiCond66) VB load(1, XDATA, add(CFA_XSP16, literal(-15)))
          CFI (cfiCond66) V0 load(1, XDATA, add(CFA_XSP16, literal(-14)))
          CFI (cfiCond66) V1 load(1, XDATA, add(CFA_XSP16, literal(-13)))
          CFI (cfiCond66) V2 load(1, XDATA, add(CFA_XSP16, literal(-12)))
          CFI (cfiCond66) V3 load(1, XDATA, add(CFA_XSP16, literal(-11)))
          CFI (cfiCond66) V4 load(1, XDATA, add(CFA_XSP16, literal(-10)))
          CFI (cfiCond66) V5 load(1, XDATA, add(CFA_XSP16, literal(-9)))
          CFI (cfiCond66) V6 load(1, XDATA, add(CFA_XSP16, literal(-8)))
          CFI (cfiCond66) V7 load(1, XDATA, add(CFA_XSP16, literal(-7)))
          CFI (cfiCond66) R7 load(1, XDATA, add(CFA_XSP16, literal(-6)))
          CFI (cfiCond66) ?RET_LOW load(1, XDATA, add(CFA_XSP16, literal(-5)))
          CFI (cfiCond66) ?RET_HIGH load(1, XDATA, add(CFA_XSP16, literal(-4)))
          CFI (cfiCond66) ?BRET_EXT load(1, XDATA, add(CFA_XSP16, literal(-3)))
          CFI (cfiCond66) DPL0 load(1, XDATA, add(CFA_XSP16, literal(-2)))
          CFI (cfiCond66) DPH0 load(1, XDATA, add(CFA_XSP16, literal(-1)))
          CFI (cfiCond66) CFA_SP SP+-2
          CFI (cfiCond66) CFA_XSP16 add(XSP16, 23)
          CFI Block cfiPicker67 Using cfiCommon1
          CFI (cfiPicker67) NoFunction
          CFI (cfiPicker67) Picker
        LCALL   ?Subroutine45 & 0xFFFF
??CrossCallReturnLabel_83:
        INC     DPTR
        RET
          CFI EndBlock cfiCond65
          CFI EndBlock cfiCond66
          CFI EndBlock cfiPicker67

        RSEG BANKED_CODE:HUGECODE:NOROOT(0)
?Subroutine29:
          CFI Block cfiCond68 Using cfiCommon0
          CFI Function MT_AfIncomingMsg
          CFI Conditional ??CrossCallReturnLabel_47
          CFI R6 load(1, XDATA, add(CFA_XSP16, literal(-16)))
          CFI VB load(1, XDATA, add(CFA_XSP16, literal(-15)))
          CFI V0 load(1, XDATA, add(CFA_XSP16, literal(-14)))
          CFI V1 load(1, XDATA, add(CFA_XSP16, literal(-13)))
          CFI V2 load(1, XDATA, add(CFA_XSP16, literal(-12)))
          CFI V3 load(1, XDATA, add(CFA_XSP16, literal(-11)))
          CFI V4 load(1, XDATA, add(CFA_XSP16, literal(-10)))
          CFI V5 load(1, XDATA, add(CFA_XSP16, literal(-9)))
          CFI V6 load(1, XDATA, add(CFA_XSP16, literal(-8)))
          CFI V7 load(1, XDATA, add(CFA_XSP16, literal(-7)))
          CFI R7 load(1, XDATA, add(CFA_XSP16, literal(-6)))
          CFI ?RET_LOW load(1, XDATA, add(CFA_XSP16, literal(-5)))
          CFI ?RET_HIGH load(1, XDATA, add(CFA_XSP16, literal(-4)))
          CFI ?BRET_EXT load(1, XDATA, add(CFA_XSP16, literal(-3)))
          CFI DPL0 load(1, XDATA, add(CFA_XSP16, literal(-2)))
          CFI DPH0 load(1, XDATA, add(CFA_XSP16, literal(-1)))
          CFI CFA_XSP16 add(XSP16, 23)
          CFI Block cfiCond69 Using cfiCommon0
          CFI (cfiCond69) Function MT_AfIncomingMsg
          CFI (cfiCond69) Conditional ??CrossCallReturnLabel_48
          CFI (cfiCond69) R6 load(1, XDATA, add(CFA_XSP16, literal(-16)))
          CFI (cfiCond69) VB load(1, XDATA, add(CFA_XSP16, literal(-15)))
          CFI (cfiCond69) V0 load(1, XDATA, add(CFA_XSP16, literal(-14)))
          CFI (cfiCond69) V1 load(1, XDATA, add(CFA_XSP16, literal(-13)))
          CFI (cfiCond69) V2 load(1, XDATA, add(CFA_XSP16, literal(-12)))
          CFI (cfiCond69) V3 load(1, XDATA, add(CFA_XSP16, literal(-11)))
          CFI (cfiCond69) V4 load(1, XDATA, add(CFA_XSP16, literal(-10)))
          CFI (cfiCond69) V5 load(1, XDATA, add(CFA_XSP16, literal(-9)))
          CFI (cfiCond69) V6 load(1, XDATA, add(CFA_XSP16, literal(-8)))
          CFI (cfiCond69) V7 load(1, XDATA, add(CFA_XSP16, literal(-7)))
          CFI (cfiCond69) R7 load(1, XDATA, add(CFA_XSP16, literal(-6)))
          CFI (cfiCond69) ?RET_LOW load(1, XDATA, add(CFA_XSP16, literal(-5)))
          CFI (cfiCond69) ?RET_HIGH load(1, XDATA, add(CFA_XSP16, literal(-4)))
          CFI (cfiCond69) ?BRET_EXT load(1, XDATA, add(CFA_XSP16, literal(-3)))
          CFI (cfiCond69) DPL0 load(1, XDATA, add(CFA_XSP16, literal(-2)))
          CFI (cfiCond69) DPH0 load(1, XDATA, add(CFA_XSP16, literal(-1)))
          CFI (cfiCond69) CFA_SP SP+-2
          CFI (cfiCond69) CFA_XSP16 add(XSP16, 23)
          CFI Block cfiPicker70 Using cfiCommon1
          CFI (cfiPicker70) NoFunction
          CFI (cfiPicker70) Picker
        LCALL   ?Subroutine49 & 0xFFFF
??CrossCallReturnLabel_97:
        RET
          CFI EndBlock cfiCond68
          CFI EndBlock cfiCond69
          CFI EndBlock cfiPicker70

        RSEG BANKED_CODE:HUGECODE:NOROOT(0)
?Subroutine49:
          CFI Block cfiCond71 Using cfiCommon0
          CFI Function MT_AfIncomingMsg
          CFI Conditional ??CrossCallReturnLabel_97, ??CrossCallReturnLabel_47
          CFI R6 load(1, XDATA, add(CFA_XSP16, literal(-16)))
          CFI VB load(1, XDATA, add(CFA_XSP16, literal(-15)))
          CFI V0 load(1, XDATA, add(CFA_XSP16, literal(-14)))
          CFI V1 load(1, XDATA, add(CFA_XSP16, literal(-13)))
          CFI V2 load(1, XDATA, add(CFA_XSP16, literal(-12)))
          CFI V3 load(1, XDATA, add(CFA_XSP16, literal(-11)))
          CFI V4 load(1, XDATA, add(CFA_XSP16, literal(-10)))
          CFI V5 load(1, XDATA, add(CFA_XSP16, literal(-9)))
          CFI V6 load(1, XDATA, add(CFA_XSP16, literal(-8)))
          CFI V7 load(1, XDATA, add(CFA_XSP16, literal(-7)))
          CFI R7 load(1, XDATA, add(CFA_XSP16, literal(-6)))
          CFI ?RET_LOW load(1, XDATA, add(CFA_XSP16, literal(-5)))
          CFI ?RET_HIGH load(1, XDATA, add(CFA_XSP16, literal(-4)))
          CFI ?BRET_EXT load(1, XDATA, add(CFA_XSP16, literal(-3)))
          CFI DPL0 load(1, XDATA, add(CFA_XSP16, literal(-2)))
          CFI DPH0 load(1, XDATA, add(CFA_XSP16, literal(-1)))
          CFI CFA_SP SP+-5
          CFI CFA_XSP16 add(XSP16, 23)
          CFI Block cfiCond72 Using cfiCommon0
          CFI (cfiCond72) Function MT_AfIncomingMsg
          CFI (cfiCond72) Conditional ??CrossCallReturnLabel_97, ??CrossCallReturnLabel_48
          CFI (cfiCond72) R6 load(1, XDATA, add(CFA_XSP16, literal(-16)))
          CFI (cfiCond72) VB load(1, XDATA, add(CFA_XSP16, literal(-15)))
          CFI (cfiCond72) V0 load(1, XDATA, add(CFA_XSP16, literal(-14)))
          CFI (cfiCond72) V1 load(1, XDATA, add(CFA_XSP16, literal(-13)))
          CFI (cfiCond72) V2 load(1, XDATA, add(CFA_XSP16, literal(-12)))
          CFI (cfiCond72) V3 load(1, XDATA, add(CFA_XSP16, literal(-11)))
          CFI (cfiCond72) V4 load(1, XDATA, add(CFA_XSP16, literal(-10)))
          CFI (cfiCond72) V5 load(1, XDATA, add(CFA_XSP16, literal(-9)))
          CFI (cfiCond72) V6 load(1, XDATA, add(CFA_XSP16, literal(-8)))
          CFI (cfiCond72) V7 load(1, XDATA, add(CFA_XSP16, literal(-7)))
          CFI (cfiCond72) R7 load(1, XDATA, add(CFA_XSP16, literal(-6)))
          CFI (cfiCond72) ?RET_LOW load(1, XDATA, add(CFA_XSP16, literal(-5)))
          CFI (cfiCond72) ?RET_HIGH load(1, XDATA, add(CFA_XSP16, literal(-4)))
          CFI (cfiCond72) ?BRET_EXT load(1, XDATA, add(CFA_XSP16, literal(-3)))
          CFI (cfiCond72) DPL0 load(1, XDATA, add(CFA_XSP16, literal(-2)))
          CFI (cfiCond72) DPH0 load(1, XDATA, add(CFA_XSP16, literal(-1)))
          CFI (cfiCond72) CFA_SP SP+-4
          CFI (cfiCond72) CFA_XSP16 add(XSP16, 23)
          CFI Block cfiCond73 Using cfiCommon0
          CFI (cfiCond73) Function MT_AfIncomingMsg
          CFI (cfiCond73) Conditional ??CrossCallReturnLabel_98, ??CrossCallReturnLabel_79, ??CrossCallReturnLabel_39
          CFI (cfiCond73) R6 load(1, XDATA, add(CFA_XSP16, literal(-16)))
          CFI (cfiCond73) VB load(1, XDATA, add(CFA_XSP16, literal(-15)))
          CFI (cfiCond73) V0 load(1, XDATA, add(CFA_XSP16, literal(-14)))
          CFI (cfiCond73) V1 load(1, XDATA, add(CFA_XSP16, literal(-13)))
          CFI (cfiCond73) V2 load(1, XDATA, add(CFA_XSP16, literal(-12)))
          CFI (cfiCond73) V3 load(1, XDATA, add(CFA_XSP16, literal(-11)))
          CFI (cfiCond73) V4 load(1, XDATA, add(CFA_XSP16, literal(-10)))
          CFI (cfiCond73) V5 load(1, XDATA, add(CFA_XSP16, literal(-9)))
          CFI (cfiCond73) V6 load(1, XDATA, add(CFA_XSP16, literal(-8)))
          CFI (cfiCond73) V7 load(1, XDATA, add(CFA_XSP16, literal(-7)))
          CFI (cfiCond73) R7 load(1, XDATA, add(CFA_XSP16, literal(-6)))
          CFI (cfiCond73) ?RET_LOW load(1, XDATA, add(CFA_XSP16, literal(-5)))
          CFI (cfiCond73) ?RET_HIGH load(1, XDATA, add(CFA_XSP16, literal(-4)))
          CFI (cfiCond73) ?BRET_EXT load(1, XDATA, add(CFA_XSP16, literal(-3)))
          CFI (cfiCond73) DPL0 load(1, XDATA, add(CFA_XSP16, literal(-2)))
          CFI (cfiCond73) DPH0 load(1, XDATA, add(CFA_XSP16, literal(-1)))
          CFI (cfiCond73) CFA_SP SP+-6
          CFI (cfiCond73) CFA_XSP16 add(XSP16, 23)
          CFI Block cfiCond74 Using cfiCommon0
          CFI (cfiCond74) Function MT_AfIncomingMsg
          CFI (cfiCond74) Conditional ??CrossCallReturnLabel_98, ??CrossCallReturnLabel_79, ??CrossCallReturnLabel_40
          CFI (cfiCond74) R6 load(1, XDATA, add(CFA_XSP16, literal(-16)))
          CFI (cfiCond74) VB load(1, XDATA, add(CFA_XSP16, literal(-15)))
          CFI (cfiCond74) V0 load(1, XDATA, add(CFA_XSP16, literal(-14)))
          CFI (cfiCond74) V1 load(1, XDATA, add(CFA_XSP16, literal(-13)))
          CFI (cfiCond74) V2 load(1, XDATA, add(CFA_XSP16, literal(-12)))
          CFI (cfiCond74) V3 load(1, XDATA, add(CFA_XSP16, literal(-11)))
          CFI (cfiCond74) V4 load(1, XDATA, add(CFA_XSP16, literal(-10)))
          CFI (cfiCond74) V5 load(1, XDATA, add(CFA_XSP16, literal(-9)))
          CFI (cfiCond74) V6 load(1, XDATA, add(CFA_XSP16, literal(-8)))
          CFI (cfiCond74) V7 load(1, XDATA, add(CFA_XSP16, literal(-7)))
          CFI (cfiCond74) R7 load(1, XDATA, add(CFA_XSP16, literal(-6)))
          CFI (cfiCond74) ?RET_LOW load(1, XDATA, add(CFA_XSP16, literal(-5)))
          CFI (cfiCond74) ?RET_HIGH load(1, XDATA, add(CFA_XSP16, literal(-4)))
          CFI (cfiCond74) ?BRET_EXT load(1, XDATA, add(CFA_XSP16, literal(-3)))
          CFI (cfiCond74) DPL0 load(1, XDATA, add(CFA_XSP16, literal(-2)))
          CFI (cfiCond74) DPH0 load(1, XDATA, add(CFA_XSP16, literal(-1)))
          CFI (cfiCond74) CFA_SP SP+-7
          CFI (cfiCond74) CFA_XSP16 add(XSP16, 23)
          CFI Block cfiCond75 Using cfiCommon0
          CFI (cfiCond75) Function MT_AfIncomingMsg
          CFI (cfiCond75) Conditional ??CrossCallReturnLabel_98, ??CrossCallReturnLabel_78, ??CrossCallReturnLabel_33
          CFI (cfiCond75) R6 load(1, XDATA, add(CFA_XSP16, literal(-16)))
          CFI (cfiCond75) VB load(1, XDATA, add(CFA_XSP16, literal(-15)))
          CFI (cfiCond75) V0 load(1, XDATA, add(CFA_XSP16, literal(-14)))
          CFI (cfiCond75) V1 load(1, XDATA, add(CFA_XSP16, literal(-13)))
          CFI (cfiCond75) V2 load(1, XDATA, add(CFA_XSP16, literal(-12)))
          CFI (cfiCond75) V3 load(1, XDATA, add(CFA_XSP16, literal(-11)))
          CFI (cfiCond75) V4 load(1, XDATA, add(CFA_XSP16, literal(-10)))
          CFI (cfiCond75) V5 load(1, XDATA, add(CFA_XSP16, literal(-9)))
          CFI (cfiCond75) V6 load(1, XDATA, add(CFA_XSP16, literal(-8)))
          CFI (cfiCond75) V7 load(1, XDATA, add(CFA_XSP16, literal(-7)))
          CFI (cfiCond75) R7 load(1, XDATA, add(CFA_XSP16, literal(-6)))
          CFI (cfiCond75) ?RET_LOW load(1, XDATA, add(CFA_XSP16, literal(-5)))
          CFI (cfiCond75) ?RET_HIGH load(1, XDATA, add(CFA_XSP16, literal(-4)))
          CFI (cfiCond75) ?BRET_EXT load(1, XDATA, add(CFA_XSP16, literal(-3)))
          CFI (cfiCond75) DPL0 load(1, XDATA, add(CFA_XSP16, literal(-2)))
          CFI (cfiCond75) DPH0 load(1, XDATA, add(CFA_XSP16, literal(-1)))
          CFI (cfiCond75) CFA_SP SP+-7
          CFI (cfiCond75) CFA_XSP16 add(XSP16, 23)
          CFI Block cfiCond76 Using cfiCommon0
          CFI (cfiCond76) Function MT_AfIncomingMsg
          CFI (cfiCond76) Conditional ??CrossCallReturnLabel_98, ??CrossCallReturnLabel_78, ??CrossCallReturnLabel_34
          CFI (cfiCond76) R6 load(1, XDATA, add(CFA_XSP16, literal(-16)))
          CFI (cfiCond76) VB load(1, XDATA, add(CFA_XSP16, literal(-15)))
          CFI (cfiCond76) V0 load(1, XDATA, add(CFA_XSP16, literal(-14)))
          CFI (cfiCond76) V1 load(1, XDATA, add(CFA_XSP16, literal(-13)))
          CFI (cfiCond76) V2 load(1, XDATA, add(CFA_XSP16, literal(-12)))
          CFI (cfiCond76) V3 load(1, XDATA, add(CFA_XSP16, literal(-11)))
          CFI (cfiCond76) V4 load(1, XDATA, add(CFA_XSP16, literal(-10)))
          CFI (cfiCond76) V5 load(1, XDATA, add(CFA_XSP16, literal(-9)))
          CFI (cfiCond76) V6 load(1, XDATA, add(CFA_XSP16, literal(-8)))
          CFI (cfiCond76) V7 load(1, XDATA, add(CFA_XSP16, literal(-7)))
          CFI (cfiCond76) R7 load(1, XDATA, add(CFA_XSP16, literal(-6)))
          CFI (cfiCond76) ?RET_LOW load(1, XDATA, add(CFA_XSP16, literal(-5)))
          CFI (cfiCond76) ?RET_HIGH load(1, XDATA, add(CFA_XSP16, literal(-4)))
          CFI (cfiCond76) ?BRET_EXT load(1, XDATA, add(CFA_XSP16, literal(-3)))
          CFI (cfiCond76) DPL0 load(1, XDATA, add(CFA_XSP16, literal(-2)))
          CFI (cfiCond76) DPH0 load(1, XDATA, add(CFA_XSP16, literal(-1)))
          CFI (cfiCond76) CFA_SP SP+-7
          CFI (cfiCond76) CFA_XSP16 add(XSP16, 23)
          CFI Block cfiPicker77 Using cfiCommon1
          CFI (cfiPicker77) NoFunction
          CFI (cfiPicker77) Picker
        MOVX    A,@DPTR
        MOV     R2,A
        INC     DPTR
        MOVX    A,@DPTR
        MOV     DPH,A
        MOV     DPL,R2
        RET
          CFI EndBlock cfiCond71
          CFI EndBlock cfiCond72
          CFI EndBlock cfiCond73
          CFI EndBlock cfiCond74
          CFI EndBlock cfiCond75
          CFI EndBlock cfiCond76
          CFI EndBlock cfiPicker77

        RSEG BANKED_CODE:HUGECODE:NOROOT(0)
?Subroutine28:
          CFI Block cfiCond78 Using cfiCommon0
          CFI Function MT_AfIncomingMsg
          CFI Conditional ??CrossCallReturnLabel_45
          CFI R6 load(1, XDATA, add(CFA_XSP16, literal(-16)))
          CFI VB load(1, XDATA, add(CFA_XSP16, literal(-15)))
          CFI V0 load(1, XDATA, add(CFA_XSP16, literal(-14)))
          CFI V1 load(1, XDATA, add(CFA_XSP16, literal(-13)))
          CFI V2 load(1, XDATA, add(CFA_XSP16, literal(-12)))
          CFI V3 load(1, XDATA, add(CFA_XSP16, literal(-11)))
          CFI V4 load(1, XDATA, add(CFA_XSP16, literal(-10)))
          CFI V5 load(1, XDATA, add(CFA_XSP16, literal(-9)))
          CFI V6 load(1, XDATA, add(CFA_XSP16, literal(-8)))
          CFI V7 load(1, XDATA, add(CFA_XSP16, literal(-7)))
          CFI R7 load(1, XDATA, add(CFA_XSP16, literal(-6)))
          CFI ?RET_LOW load(1, XDATA, add(CFA_XSP16, literal(-5)))
          CFI ?RET_HIGH load(1, XDATA, add(CFA_XSP16, literal(-4)))
          CFI ?BRET_EXT load(1, XDATA, add(CFA_XSP16, literal(-3)))
          CFI DPL0 load(1, XDATA, add(CFA_XSP16, literal(-2)))
          CFI DPH0 load(1, XDATA, add(CFA_XSP16, literal(-1)))
          CFI CFA_SP SP+-2
          CFI CFA_XSP16 add(XSP16, 23)
          CFI Block cfiCond79 Using cfiCommon0
          CFI (cfiCond79) Function MT_AfIncomingMsg
          CFI (cfiCond79) Conditional ??CrossCallReturnLabel_46
          CFI (cfiCond79) R6 load(1, XDATA, add(CFA_XSP16, literal(-16)))
          CFI (cfiCond79) VB load(1, XDATA, add(CFA_XSP16, literal(-15)))
          CFI (cfiCond79) V0 load(1, XDATA, add(CFA_XSP16, literal(-14)))
          CFI (cfiCond79) V1 load(1, XDATA, add(CFA_XSP16, literal(-13)))
          CFI (cfiCond79) V2 load(1, XDATA, add(CFA_XSP16, literal(-12)))
          CFI (cfiCond79) V3 load(1, XDATA, add(CFA_XSP16, literal(-11)))
          CFI (cfiCond79) V4 load(1, XDATA, add(CFA_XSP16, literal(-10)))
          CFI (cfiCond79) V5 load(1, XDATA, add(CFA_XSP16, literal(-9)))
          CFI (cfiCond79) V6 load(1, XDATA, add(CFA_XSP16, literal(-8)))
          CFI (cfiCond79) V7 load(1, XDATA, add(CFA_XSP16, literal(-7)))
          CFI (cfiCond79) R7 load(1, XDATA, add(CFA_XSP16, literal(-6)))
          CFI (cfiCond79) ?RET_LOW load(1, XDATA, add(CFA_XSP16, literal(-5)))
          CFI (cfiCond79) ?RET_HIGH load(1, XDATA, add(CFA_XSP16, literal(-4)))
          CFI (cfiCond79) ?BRET_EXT load(1, XDATA, add(CFA_XSP16, literal(-3)))
          CFI (cfiCond79) DPL0 load(1, XDATA, add(CFA_XSP16, literal(-2)))
          CFI (cfiCond79) DPH0 load(1, XDATA, add(CFA_XSP16, literal(-1)))
          CFI (cfiCond79) CFA_SP SP+-2
          CFI (cfiCond79) CFA_XSP16 add(XSP16, 23)
          CFI Block cfiPicker80 Using cfiCommon1
          CFI (cfiPicker80) NoFunction
          CFI (cfiPicker80) Picker
        LCALL   ?Subroutine44 & 0xFFFF
??CrossCallReturnLabel_81:
        RET
          CFI EndBlock cfiCond78
          CFI EndBlock cfiCond79
          CFI EndBlock cfiPicker80

        RSEG BANKED_CODE:HUGECODE:NOROOT(0)
?Subroutine44:
          CFI Block cfiCond81 Using cfiCommon0
          CFI Function MT_AfIncomingMsg
          CFI Conditional ??CrossCallReturnLabel_81, ??CrossCallReturnLabel_45
          CFI R6 load(1, XDATA, add(CFA_XSP16, literal(-16)))
          CFI VB load(1, XDATA, add(CFA_XSP16, literal(-15)))
          CFI V0 load(1, XDATA, add(CFA_XSP16, literal(-14)))
          CFI V1 load(1, XDATA, add(CFA_XSP16, literal(-13)))
          CFI V2 load(1, XDATA, add(CFA_XSP16, literal(-12)))
          CFI V3 load(1, XDATA, add(CFA_XSP16, literal(-11)))
          CFI V4 load(1, XDATA, add(CFA_XSP16, literal(-10)))
          CFI V5 load(1, XDATA, add(CFA_XSP16, literal(-9)))
          CFI V6 load(1, XDATA, add(CFA_XSP16, literal(-8)))
          CFI V7 load(1, XDATA, add(CFA_XSP16, literal(-7)))
          CFI R7 load(1, XDATA, add(CFA_XSP16, literal(-6)))
          CFI ?RET_LOW load(1, XDATA, add(CFA_XSP16, literal(-5)))
          CFI ?RET_HIGH load(1, XDATA, add(CFA_XSP16, literal(-4)))
          CFI ?BRET_EXT load(1, XDATA, add(CFA_XSP16, literal(-3)))
          CFI DPL0 load(1, XDATA, add(CFA_XSP16, literal(-2)))
          CFI DPH0 load(1, XDATA, add(CFA_XSP16, literal(-1)))
          CFI CFA_SP SP+-4
          CFI CFA_XSP16 add(XSP16, 23)
          CFI Block cfiCond82 Using cfiCommon0
          CFI (cfiCond82) Function MT_AfIncomingMsg
          CFI (cfiCond82) Conditional ??CrossCallReturnLabel_81, ??CrossCallReturnLabel_46
          CFI (cfiCond82) R6 load(1, XDATA, add(CFA_XSP16, literal(-16)))
          CFI (cfiCond82) VB load(1, XDATA, add(CFA_XSP16, literal(-15)))
          CFI (cfiCond82) V0 load(1, XDATA, add(CFA_XSP16, literal(-14)))
          CFI (cfiCond82) V1 load(1, XDATA, add(CFA_XSP16, literal(-13)))
          CFI (cfiCond82) V2 load(1, XDATA, add(CFA_XSP16, literal(-12)))
          CFI (cfiCond82) V3 load(1, XDATA, add(CFA_XSP16, literal(-11)))
          CFI (cfiCond82) V4 load(1, XDATA, add(CFA_XSP16, literal(-10)))
          CFI (cfiCond82) V5 load(1, XDATA, add(CFA_XSP16, literal(-9)))
          CFI (cfiCond82) V6 load(1, XDATA, add(CFA_XSP16, literal(-8)))
          CFI (cfiCond82) V7 load(1, XDATA, add(CFA_XSP16, literal(-7)))
          CFI (cfiCond82) R7 load(1, XDATA, add(CFA_XSP16, literal(-6)))
          CFI (cfiCond82) ?RET_LOW load(1, XDATA, add(CFA_XSP16, literal(-5)))
          CFI (cfiCond82) ?RET_HIGH load(1, XDATA, add(CFA_XSP16, literal(-4)))
          CFI (cfiCond82) ?BRET_EXT load(1, XDATA, add(CFA_XSP16, literal(-3)))
          CFI (cfiCond82) DPL0 load(1, XDATA, add(CFA_XSP16, literal(-2)))
          CFI (cfiCond82) DPH0 load(1, XDATA, add(CFA_XSP16, literal(-1)))
          CFI (cfiCond82) CFA_SP SP+-4
          CFI (cfiCond82) CFA_XSP16 add(XSP16, 23)
          CFI Block cfiCond83 Using cfiCommon0
          CFI (cfiCond83) Function MT_AfIncomingMsg
          CFI (cfiCond83) Conditional ??CrossCallReturnLabel_80, ??CrossCallReturnLabel_0
          CFI (cfiCond83) R6 load(1, XDATA, add(CFA_XSP16, literal(-16)))
          CFI (cfiCond83) VB load(1, XDATA, add(CFA_XSP16, literal(-15)))
          CFI (cfiCond83) V0 load(1, XDATA, add(CFA_XSP16, literal(-14)))
          CFI (cfiCond83) V1 load(1, XDATA, add(CFA_XSP16, literal(-13)))
          CFI (cfiCond83) V2 load(1, XDATA, add(CFA_XSP16, literal(-12)))
          CFI (cfiCond83) V3 load(1, XDATA, add(CFA_XSP16, literal(-11)))
          CFI (cfiCond83) V4 load(1, XDATA, add(CFA_XSP16, literal(-10)))
          CFI (cfiCond83) V5 load(1, XDATA, add(CFA_XSP16, literal(-9)))
          CFI (cfiCond83) V6 load(1, XDATA, add(CFA_XSP16, literal(-8)))
          CFI (cfiCond83) V7 load(1, XDATA, add(CFA_XSP16, literal(-7)))
          CFI (cfiCond83) R7 load(1, XDATA, add(CFA_XSP16, literal(-6)))
          CFI (cfiCond83) ?RET_LOW load(1, XDATA, add(CFA_XSP16, literal(-5)))
          CFI (cfiCond83) ?RET_HIGH load(1, XDATA, add(CFA_XSP16, literal(-4)))
          CFI (cfiCond83) ?BRET_EXT load(1, XDATA, add(CFA_XSP16, literal(-3)))
          CFI (cfiCond83) DPL0 load(1, XDATA, add(CFA_XSP16, literal(-2)))
          CFI (cfiCond83) DPH0 load(1, XDATA, add(CFA_XSP16, literal(-1)))
          CFI (cfiCond83) CFA_SP SP+-4
          CFI (cfiCond83) CFA_XSP16 add(XSP16, 23)
          CFI Block cfiCond84 Using cfiCommon0
          CFI (cfiCond84) Function MT_AfIncomingMsg
          CFI (cfiCond84) Conditional ??CrossCallReturnLabel_80, ??CrossCallReturnLabel_1
          CFI (cfiCond84) R6 load(1, XDATA, add(CFA_XSP16, literal(-16)))
          CFI (cfiCond84) VB load(1, XDATA, add(CFA_XSP16, literal(-15)))
          CFI (cfiCond84) V0 load(1, XDATA, add(CFA_XSP16, literal(-14)))
          CFI (cfiCond84) V1 load(1, XDATA, add(CFA_XSP16, literal(-13)))
          CFI (cfiCond84) V2 load(1, XDATA, add(CFA_XSP16, literal(-12)))
          CFI (cfiCond84) V3 load(1, XDATA, add(CFA_XSP16, literal(-11)))
          CFI (cfiCond84) V4 load(1, XDATA, add(CFA_XSP16, literal(-10)))
          CFI (cfiCond84) V5 load(1, XDATA, add(CFA_XSP16, literal(-9)))
          CFI (cfiCond84) V6 load(1, XDATA, add(CFA_XSP16, literal(-8)))
          CFI (cfiCond84) V7 load(1, XDATA, add(CFA_XSP16, literal(-7)))
          CFI (cfiCond84) R7 load(1, XDATA, add(CFA_XSP16, literal(-6)))
          CFI (cfiCond84) ?RET_LOW load(1, XDATA, add(CFA_XSP16, literal(-5)))
          CFI (cfiCond84) ?RET_HIGH load(1, XDATA, add(CFA_XSP16, literal(-4)))
          CFI (cfiCond84) ?BRET_EXT load(1, XDATA, add(CFA_XSP16, literal(-3)))
          CFI (cfiCond84) DPL0 load(1, XDATA, add(CFA_XSP16, literal(-2)))
          CFI (cfiCond84) DPH0 load(1, XDATA, add(CFA_XSP16, literal(-1)))
          CFI (cfiCond84) CFA_SP SP+-4
          CFI (cfiCond84) CFA_XSP16 add(XSP16, 23)
          CFI Block cfiPicker85 Using cfiCommon1
          CFI (cfiPicker85) NoFunction
          CFI (cfiPicker85) Picker
        MOVX    A,@DPTR
        MOV     DPL,?V4
        MOV     DPH,?V5
        INC     DPTR
        INC     DPTR
        RET
          CFI EndBlock cfiCond81
          CFI EndBlock cfiCond82
          CFI EndBlock cfiCond83
          CFI EndBlock cfiCond84
          CFI EndBlock cfiPicker85

        RSEG BANKED_CODE:HUGECODE:NOROOT(0)
?Subroutine25:
          CFI Block cfiCond86 Using cfiCommon0
          CFI Function MT_AfIncomingMsg
          CFI Conditional ??CrossCallReturnLabel_39
          CFI R6 load(1, XDATA, add(CFA_XSP16, literal(-16)))
          CFI VB load(1, XDATA, add(CFA_XSP16, literal(-15)))
          CFI V0 load(1, XDATA, add(CFA_XSP16, literal(-14)))
          CFI V1 load(1, XDATA, add(CFA_XSP16, literal(-13)))
          CFI V2 load(1, XDATA, add(CFA_XSP16, literal(-12)))
          CFI V3 load(1, XDATA, add(CFA_XSP16, literal(-11)))
          CFI V4 load(1, XDATA, add(CFA_XSP16, literal(-10)))
          CFI V5 load(1, XDATA, add(CFA_XSP16, literal(-9)))
          CFI V6 load(1, XDATA, add(CFA_XSP16, literal(-8)))
          CFI V7 load(1, XDATA, add(CFA_XSP16, literal(-7)))
          CFI R7 load(1, XDATA, add(CFA_XSP16, literal(-6)))
          CFI ?RET_LOW load(1, XDATA, add(CFA_XSP16, literal(-5)))
          CFI ?RET_HIGH load(1, XDATA, add(CFA_XSP16, literal(-4)))
          CFI ?BRET_EXT load(1, XDATA, add(CFA_XSP16, literal(-3)))
          CFI DPL0 load(1, XDATA, add(CFA_XSP16, literal(-2)))
          CFI DPH0 load(1, XDATA, add(CFA_XSP16, literal(-1)))
          CFI CFA_SP SP+-2
          CFI CFA_XSP16 add(XSP16, 23)
          CFI Block cfiCond87 Using cfiCommon0
          CFI (cfiCond87) Function MT_AfIncomingMsg
          CFI (cfiCond87) Conditional ??CrossCallReturnLabel_40
          CFI (cfiCond87) R6 load(1, XDATA, add(CFA_XSP16, literal(-16)))
          CFI (cfiCond87) VB load(1, XDATA, add(CFA_XSP16, literal(-15)))
          CFI (cfiCond87) V0 load(1, XDATA, add(CFA_XSP16, literal(-14)))
          CFI (cfiCond87) V1 load(1, XDATA, add(CFA_XSP16, literal(-13)))
          CFI (cfiCond87) V2 load(1, XDATA, add(CFA_XSP16, literal(-12)))
          CFI (cfiCond87) V3 load(1, XDATA, add(CFA_XSP16, literal(-11)))
          CFI (cfiCond87) V4 load(1, XDATA, add(CFA_XSP16, literal(-10)))
          CFI (cfiCond87) V5 load(1, XDATA, add(CFA_XSP16, literal(-9)))
          CFI (cfiCond87) V6 load(1, XDATA, add(CFA_XSP16, literal(-8)))
          CFI (cfiCond87) V7 load(1, XDATA, add(CFA_XSP16, literal(-7)))
          CFI (cfiCond87) R7 load(1, XDATA, add(CFA_XSP16, literal(-6)))
          CFI (cfiCond87) ?RET_LOW load(1, XDATA, add(CFA_XSP16, literal(-5)))
          CFI (cfiCond87) ?RET_HIGH load(1, XDATA, add(CFA_XSP16, literal(-4)))
          CFI (cfiCond87) ?BRET_EXT load(1, XDATA, add(CFA_XSP16, literal(-3)))
          CFI (cfiCond87) DPL0 load(1, XDATA, add(CFA_XSP16, literal(-2)))
          CFI (cfiCond87) DPH0 load(1, XDATA, add(CFA_XSP16, literal(-1)))
          CFI (cfiCond87) CFA_XSP16 add(XSP16, 23)
          CFI Block cfiPicker88 Using cfiCommon1
          CFI (cfiPicker88) NoFunction
          CFI (cfiPicker88) Picker
        LCALL   ?Subroutine42 & 0xFFFF
??CrossCallReturnLabel_79:
        RET
          CFI EndBlock cfiCond86
          CFI EndBlock cfiCond87
          CFI EndBlock cfiPicker88

        RSEG BANKED_CODE:HUGECODE:NOROOT(0)
?Subroutine42:
          CFI Block cfiCond89 Using cfiCommon0
          CFI Function MT_AfIncomingMsg
          CFI Conditional ??CrossCallReturnLabel_79, ??CrossCallReturnLabel_39
          CFI R6 load(1, XDATA, add(CFA_XSP16, literal(-16)))
          CFI VB load(1, XDATA, add(CFA_XSP16, literal(-15)))
          CFI V0 load(1, XDATA, add(CFA_XSP16, literal(-14)))
          CFI V1 load(1, XDATA, add(CFA_XSP16, literal(-13)))
          CFI V2 load(1, XDATA, add(CFA_XSP16, literal(-12)))
          CFI V3 load(1, XDATA, add(CFA_XSP16, literal(-11)))
          CFI V4 load(1, XDATA, add(CFA_XSP16, literal(-10)))
          CFI V5 load(1, XDATA, add(CFA_XSP16, literal(-9)))
          CFI V6 load(1, XDATA, add(CFA_XSP16, literal(-8)))
          CFI V7 load(1, XDATA, add(CFA_XSP16, literal(-7)))
          CFI R7 load(1, XDATA, add(CFA_XSP16, literal(-6)))
          CFI ?RET_LOW load(1, XDATA, add(CFA_XSP16, literal(-5)))
          CFI ?RET_HIGH load(1, XDATA, add(CFA_XSP16, literal(-4)))
          CFI ?BRET_EXT load(1, XDATA, add(CFA_XSP16, literal(-3)))
          CFI DPL0 load(1, XDATA, add(CFA_XSP16, literal(-2)))
          CFI DPH0 load(1, XDATA, add(CFA_XSP16, literal(-1)))
          CFI CFA_SP SP+-4
          CFI CFA_XSP16 add(XSP16, 23)
          CFI Block cfiCond90 Using cfiCommon0
          CFI (cfiCond90) Function MT_AfIncomingMsg
          CFI (cfiCond90) Conditional ??CrossCallReturnLabel_79, ??CrossCallReturnLabel_40
          CFI (cfiCond90) R6 load(1, XDATA, add(CFA_XSP16, literal(-16)))
          CFI (cfiCond90) VB load(1, XDATA, add(CFA_XSP16, literal(-15)))
          CFI (cfiCond90) V0 load(1, XDATA, add(CFA_XSP16, literal(-14)))
          CFI (cfiCond90) V1 load(1, XDATA, add(CFA_XSP16, literal(-13)))
          CFI (cfiCond90) V2 load(1, XDATA, add(CFA_XSP16, literal(-12)))
          CFI (cfiCond90) V3 load(1, XDATA, add(CFA_XSP16, literal(-11)))
          CFI (cfiCond90) V4 load(1, XDATA, add(CFA_XSP16, literal(-10)))
          CFI (cfiCond90) V5 load(1, XDATA, add(CFA_XSP16, literal(-9)))
          CFI (cfiCond90) V6 load(1, XDATA, add(CFA_XSP16, literal(-8)))
          CFI (cfiCond90) V7 load(1, XDATA, add(CFA_XSP16, literal(-7)))
          CFI (cfiCond90) R7 load(1, XDATA, add(CFA_XSP16, literal(-6)))
          CFI (cfiCond90) ?RET_LOW load(1, XDATA, add(CFA_XSP16, literal(-5)))
          CFI (cfiCond90) ?RET_HIGH load(1, XDATA, add(CFA_XSP16, literal(-4)))
          CFI (cfiCond90) ?BRET_EXT load(1, XDATA, add(CFA_XSP16, literal(-3)))
          CFI (cfiCond90) DPL0 load(1, XDATA, add(CFA_XSP16, literal(-2)))
          CFI (cfiCond90) DPH0 load(1, XDATA, add(CFA_XSP16, literal(-1)))
          CFI (cfiCond90) CFA_SP SP+-5
          CFI (cfiCond90) CFA_XSP16 add(XSP16, 23)
          CFI Block cfiCond91 Using cfiCommon0
          CFI (cfiCond91) Function MT_AfIncomingMsg
          CFI (cfiCond91) Conditional ??CrossCallReturnLabel_78, ??CrossCallReturnLabel_33
          CFI (cfiCond91) R6 load(1, XDATA, add(CFA_XSP16, literal(-16)))
          CFI (cfiCond91) VB load(1, XDATA, add(CFA_XSP16, literal(-15)))
          CFI (cfiCond91) V0 load(1, XDATA, add(CFA_XSP16, literal(-14)))
          CFI (cfiCond91) V1 load(1, XDATA, add(CFA_XSP16, literal(-13)))
          CFI (cfiCond91) V2 load(1, XDATA, add(CFA_XSP16, literal(-12)))
          CFI (cfiCond91) V3 load(1, XDATA, add(CFA_XSP16, literal(-11)))
          CFI (cfiCond91) V4 load(1, XDATA, add(CFA_XSP16, literal(-10)))
          CFI (cfiCond91) V5 load(1, XDATA, add(CFA_XSP16, literal(-9)))
          CFI (cfiCond91) V6 load(1, XDATA, add(CFA_XSP16, literal(-8)))
          CFI (cfiCond91) V7 load(1, XDATA, add(CFA_XSP16, literal(-7)))
          CFI (cfiCond91) R7 load(1, XDATA, add(CFA_XSP16, literal(-6)))
          CFI (cfiCond91) ?RET_LOW load(1, XDATA, add(CFA_XSP16, literal(-5)))
          CFI (cfiCond91) ?RET_HIGH load(1, XDATA, add(CFA_XSP16, literal(-4)))
          CFI (cfiCond91) ?BRET_EXT load(1, XDATA, add(CFA_XSP16, literal(-3)))
          CFI (cfiCond91) DPL0 load(1, XDATA, add(CFA_XSP16, literal(-2)))
          CFI (cfiCond91) DPH0 load(1, XDATA, add(CFA_XSP16, literal(-1)))
          CFI (cfiCond91) CFA_SP SP+-5
          CFI (cfiCond91) CFA_XSP16 add(XSP16, 23)
          CFI Block cfiCond92 Using cfiCommon0
          CFI (cfiCond92) Function MT_AfIncomingMsg
          CFI (cfiCond92) Conditional ??CrossCallReturnLabel_78, ??CrossCallReturnLabel_34
          CFI (cfiCond92) R6 load(1, XDATA, add(CFA_XSP16, literal(-16)))
          CFI (cfiCond92) VB load(1, XDATA, add(CFA_XSP16, literal(-15)))
          CFI (cfiCond92) V0 load(1, XDATA, add(CFA_XSP16, literal(-14)))
          CFI (cfiCond92) V1 load(1, XDATA, add(CFA_XSP16, literal(-13)))
          CFI (cfiCond92) V2 load(1, XDATA, add(CFA_XSP16, literal(-12)))
          CFI (cfiCond92) V3 load(1, XDATA, add(CFA_XSP16, literal(-11)))
          CFI (cfiCond92) V4 load(1, XDATA, add(CFA_XSP16, literal(-10)))
          CFI (cfiCond92) V5 load(1, XDATA, add(CFA_XSP16, literal(-9)))
          CFI (cfiCond92) V6 load(1, XDATA, add(CFA_XSP16, literal(-8)))
          CFI (cfiCond92) V7 load(1, XDATA, add(CFA_XSP16, literal(-7)))
          CFI (cfiCond92) R7 load(1, XDATA, add(CFA_XSP16, literal(-6)))
          CFI (cfiCond92) ?RET_LOW load(1, XDATA, add(CFA_XSP16, literal(-5)))
          CFI (cfiCond92) ?RET_HIGH load(1, XDATA, add(CFA_XSP16, literal(-4)))
          CFI (cfiCond92) ?BRET_EXT load(1, XDATA, add(CFA_XSP16, literal(-3)))
          CFI (cfiCond92) DPL0 load(1, XDATA, add(CFA_XSP16, literal(-2)))
          CFI (cfiCond92) DPH0 load(1, XDATA, add(CFA_XSP16, literal(-1)))
          CFI (cfiCond92) CFA_SP SP+-5
          CFI (cfiCond92) CFA_XSP16 add(XSP16, 23)
          CFI Block cfiPicker93 Using cfiCommon1
          CFI (cfiPicker93) NoFunction
          CFI (cfiPicker93) Picker
        LCALL   ?Subroutine49 & 0xFFFF
??CrossCallReturnLabel_98:
        INC     DPTR
        INC     DPTR
        RET
          CFI EndBlock cfiCond89
          CFI EndBlock cfiCond90
          CFI EndBlock cfiCond91
          CFI EndBlock cfiCond92
          CFI EndBlock cfiPicker93

        RSEG BANKED_CODE:HUGECODE:NOROOT(0)
?Subroutine22:
          CFI Block cfiCond94 Using cfiCommon0
          CFI Function MT_AfExec
          CFI Conditional ??CrossCallReturnLabel_106
          CFI R6 load(1, XDATA, add(CFA_XSP16, literal(-9)))
          CFI VB load(1, XDATA, add(CFA_XSP16, literal(-8)))
          CFI V0 load(1, XDATA, add(CFA_XSP16, literal(-7)))
          CFI R7 load(1, XDATA, add(CFA_XSP16, literal(-6)))
          CFI ?RET_LOW load(1, XDATA, add(CFA_XSP16, literal(-5)))
          CFI ?RET_HIGH load(1, XDATA, add(CFA_XSP16, literal(-4)))
          CFI ?BRET_EXT load(1, XDATA, add(CFA_XSP16, literal(-3)))
          CFI DPL0 load(1, XDATA, add(CFA_XSP16, literal(-2)))
          CFI DPH0 load(1, XDATA, add(CFA_XSP16, literal(-1)))
          CFI CFA_SP SP+-2
          CFI CFA_XSP16 add(XSP16, 9)
          CFI Block cfiCond95 Using cfiCommon0
          CFI (cfiCond95) Function MT_AfIncomingMsg
          CFI (cfiCond95) Conditional ??CrossCallReturnLabel_107
          CFI (cfiCond95) R6 load(1, XDATA, add(CFA_XSP16, literal(-16)))
          CFI (cfiCond95) VB load(1, XDATA, add(CFA_XSP16, literal(-15)))
          CFI (cfiCond95) V0 load(1, XDATA, add(CFA_XSP16, literal(-14)))
          CFI (cfiCond95) V1 load(1, XDATA, add(CFA_XSP16, literal(-13)))
          CFI (cfiCond95) V2 load(1, XDATA, add(CFA_XSP16, literal(-12)))
          CFI (cfiCond95) V3 load(1, XDATA, add(CFA_XSP16, literal(-11)))
          CFI (cfiCond95) V4 load(1, XDATA, add(CFA_XSP16, literal(-10)))
          CFI (cfiCond95) V5 load(1, XDATA, add(CFA_XSP16, literal(-9)))
          CFI (cfiCond95) V6 load(1, XDATA, add(CFA_XSP16, literal(-8)))
          CFI (cfiCond95) V7 load(1, XDATA, add(CFA_XSP16, literal(-7)))
          CFI (cfiCond95) R7 load(1, XDATA, add(CFA_XSP16, literal(-6)))
          CFI (cfiCond95) ?RET_LOW load(1, XDATA, add(CFA_XSP16, literal(-5)))
          CFI (cfiCond95) ?RET_HIGH load(1, XDATA, add(CFA_XSP16, literal(-4)))
          CFI (cfiCond95) ?BRET_EXT load(1, XDATA, add(CFA_XSP16, literal(-3)))
          CFI (cfiCond95) DPL0 load(1, XDATA, add(CFA_XSP16, literal(-2)))
          CFI (cfiCond95) DPH0 load(1, XDATA, add(CFA_XSP16, literal(-1)))
          CFI (cfiCond95) CFA_SP SP+-2
          CFI (cfiCond95) CFA_XSP16 add(XSP16, 23)
          CFI Block cfiCond96 Using cfiCommon0
          CFI (cfiCond96) Function MT_AfDataRetrieve
          CFI (cfiCond96) Conditional ??CrossCallReturnLabel_108
          CFI (cfiCond96) R6 load(1, XDATA, add(CFA_XSP16, literal(-16)))
          CFI (cfiCond96) VB load(1, XDATA, add(CFA_XSP16, literal(-15)))
          CFI (cfiCond96) V0 load(1, XDATA, add(CFA_XSP16, literal(-14)))
          CFI (cfiCond96) V1 load(1, XDATA, add(CFA_XSP16, literal(-13)))
          CFI (cfiCond96) V2 load(1, XDATA, add(CFA_XSP16, literal(-12)))
          CFI (cfiCond96) V3 load(1, XDATA, add(CFA_XSP16, literal(-11)))
          CFI (cfiCond96) V4 load(1, XDATA, add(CFA_XSP16, literal(-10)))
          CFI (cfiCond96) V5 load(1, XDATA, add(CFA_XSP16, literal(-9)))
          CFI (cfiCond96) V6 load(1, XDATA, add(CFA_XSP16, literal(-8)))
          CFI (cfiCond96) V7 load(1, XDATA, add(CFA_XSP16, literal(-7)))
          CFI (cfiCond96) R7 load(1, XDATA, add(CFA_XSP16, literal(-6)))
          CFI (cfiCond96) ?RET_LOW load(1, XDATA, add(CFA_XSP16, literal(-5)))
          CFI (cfiCond96) ?RET_HIGH load(1, XDATA, add(CFA_XSP16, literal(-4)))
          CFI (cfiCond96) ?BRET_EXT load(1, XDATA, add(CFA_XSP16, literal(-3)))
          CFI (cfiCond96) DPL0 load(1, XDATA, add(CFA_XSP16, literal(-2)))
          CFI (cfiCond96) DPH0 load(1, XDATA, add(CFA_XSP16, literal(-1)))
          CFI (cfiCond96) CFA_SP SP+-2
          CFI (cfiCond96) CFA_XSP16 add(XSP16, 21)
          CFI Block cfiCond97 Using cfiCommon0
          CFI (cfiCond97) Function MT_AfDataRetrieve
          CFI (cfiCond97) Conditional ??CrossCallReturnLabel_109
          CFI (cfiCond97) R6 load(1, XDATA, add(CFA_XSP16, literal(-16)))
          CFI (cfiCond97) VB load(1, XDATA, add(CFA_XSP16, literal(-15)))
          CFI (cfiCond97) V0 load(1, XDATA, add(CFA_XSP16, literal(-14)))
          CFI (cfiCond97) V1 load(1, XDATA, add(CFA_XSP16, literal(-13)))
          CFI (cfiCond97) V2 load(1, XDATA, add(CFA_XSP16, literal(-12)))
          CFI (cfiCond97) V3 load(1, XDATA, add(CFA_XSP16, literal(-11)))
          CFI (cfiCond97) V4 load(1, XDATA, add(CFA_XSP16, literal(-10)))
          CFI (cfiCond97) V5 load(1, XDATA, add(CFA_XSP16, literal(-9)))
          CFI (cfiCond97) V6 load(1, XDATA, add(CFA_XSP16, literal(-8)))
          CFI (cfiCond97) V7 load(1, XDATA, add(CFA_XSP16, literal(-7)))
          CFI (cfiCond97) R7 load(1, XDATA, add(CFA_XSP16, literal(-6)))
          CFI (cfiCond97) ?RET_LOW load(1, XDATA, add(CFA_XSP16, literal(-5)))
          CFI (cfiCond97) ?RET_HIGH load(1, XDATA, add(CFA_XSP16, literal(-4)))
          CFI (cfiCond97) ?BRET_EXT load(1, XDATA, add(CFA_XSP16, literal(-3)))
          CFI (cfiCond97) DPL0 load(1, XDATA, add(CFA_XSP16, literal(-2)))
          CFI (cfiCond97) DPH0 load(1, XDATA, add(CFA_XSP16, literal(-1)))
          CFI (cfiCond97) CFA_SP SP+-2
          CFI (cfiCond97) CFA_XSP16 add(XSP16, 21)
          CFI Block cfiPicker98 Using cfiCommon1
          CFI (cfiPicker98) NoFunction
          CFI (cfiPicker98) Picker
        MOV     DPTR,#pMtAfInMsgList
          CFI EndBlock cfiCond94
          CFI EndBlock cfiCond95
          CFI EndBlock cfiCond96
          CFI EndBlock cfiCond97
          CFI EndBlock cfiPicker98
        REQUIRE ??Subroutine52_0
        ; // Fall through to label ??Subroutine52_0

        RSEG BANKED_CODE:HUGECODE:NOROOT(0)
??Subroutine52_0:
          CFI Block cfiCond99 Using cfiCommon0
          CFI Function MT_AfExec
          CFI Conditional ??CrossCallReturnLabel_105
          CFI R6 load(1, XDATA, add(CFA_XSP16, literal(-9)))
          CFI VB load(1, XDATA, add(CFA_XSP16, literal(-8)))
          CFI V0 load(1, XDATA, add(CFA_XSP16, literal(-7)))
          CFI R7 load(1, XDATA, add(CFA_XSP16, literal(-6)))
          CFI ?RET_LOW load(1, XDATA, add(CFA_XSP16, literal(-5)))
          CFI ?RET_HIGH load(1, XDATA, add(CFA_XSP16, literal(-4)))
          CFI ?BRET_EXT load(1, XDATA, add(CFA_XSP16, literal(-3)))
          CFI DPL0 load(1, XDATA, add(CFA_XSP16, literal(-2)))
          CFI DPH0 load(1, XDATA, add(CFA_XSP16, literal(-1)))
          CFI CFA_SP SP+-2
          CFI CFA_XSP16 add(XSP16, 9)
          CFI Block cfiCond100 Using cfiCommon0
          CFI (cfiCond100) Function MT_AfExec
          CFI (cfiCond100) Conditional ??CrossCallReturnLabel_106
          CFI (cfiCond100) R6 load(1, XDATA, add(CFA_XSP16, literal(-9)))
          CFI (cfiCond100) VB load(1, XDATA, add(CFA_XSP16, literal(-8)))
          CFI (cfiCond100) V0 load(1, XDATA, add(CFA_XSP16, literal(-7)))
          CFI (cfiCond100) R7 load(1, XDATA, add(CFA_XSP16, literal(-6)))
          CFI (cfiCond100) ?RET_LOW load(1, XDATA, add(CFA_XSP16, literal(-5)))
          CFI (cfiCond100) ?RET_HIGH load(1, XDATA, add(CFA_XSP16, literal(-4)))
          CFI (cfiCond100) ?BRET_EXT load(1, XDATA, add(CFA_XSP16, literal(-3)))
          CFI (cfiCond100) DPL0 load(1, XDATA, add(CFA_XSP16, literal(-2)))
          CFI (cfiCond100) DPH0 load(1, XDATA, add(CFA_XSP16, literal(-1)))
          CFI (cfiCond100) CFA_SP SP+-2
          CFI (cfiCond100) CFA_XSP16 add(XSP16, 9)
          CFI Block cfiCond101 Using cfiCommon0
          CFI (cfiCond101) Function MT_AfIncomingMsg
          CFI (cfiCond101) Conditional ??CrossCallReturnLabel_107
          CFI (cfiCond101) R6 load(1, XDATA, add(CFA_XSP16, literal(-16)))
          CFI (cfiCond101) VB load(1, XDATA, add(CFA_XSP16, literal(-15)))
          CFI (cfiCond101) V0 load(1, XDATA, add(CFA_XSP16, literal(-14)))
          CFI (cfiCond101) V1 load(1, XDATA, add(CFA_XSP16, literal(-13)))
          CFI (cfiCond101) V2 load(1, XDATA, add(CFA_XSP16, literal(-12)))
          CFI (cfiCond101) V3 load(1, XDATA, add(CFA_XSP16, literal(-11)))
          CFI (cfiCond101) V4 load(1, XDATA, add(CFA_XSP16, literal(-10)))
          CFI (cfiCond101) V5 load(1, XDATA, add(CFA_XSP16, literal(-9)))
          CFI (cfiCond101) V6 load(1, XDATA, add(CFA_XSP16, literal(-8)))
          CFI (cfiCond101) V7 load(1, XDATA, add(CFA_XSP16, literal(-7)))
          CFI (cfiCond101) R7 load(1, XDATA, add(CFA_XSP16, literal(-6)))
          CFI (cfiCond101) ?RET_LOW load(1, XDATA, add(CFA_XSP16, literal(-5)))
          CFI (cfiCond101) ?RET_HIGH load(1, XDATA, add(CFA_XSP16, literal(-4)))
          CFI (cfiCond101) ?BRET_EXT load(1, XDATA, add(CFA_XSP16, literal(-3)))
          CFI (cfiCond101) DPL0 load(1, XDATA, add(CFA_XSP16, literal(-2)))
          CFI (cfiCond101) DPH0 load(1, XDATA, add(CFA_XSP16, literal(-1)))
          CFI (cfiCond101) CFA_SP SP+-2
          CFI (cfiCond101) CFA_XSP16 add(XSP16, 23)
          CFI Block cfiCond102 Using cfiCommon0
          CFI (cfiCond102) Function MT_AfDataRetrieve
          CFI (cfiCond102) Conditional ??CrossCallReturnLabel_108
          CFI (cfiCond102) R6 load(1, XDATA, add(CFA_XSP16, literal(-16)))
          CFI (cfiCond102) VB load(1, XDATA, add(CFA_XSP16, literal(-15)))
          CFI (cfiCond102) V0 load(1, XDATA, add(CFA_XSP16, literal(-14)))
          CFI (cfiCond102) V1 load(1, XDATA, add(CFA_XSP16, literal(-13)))
          CFI (cfiCond102) V2 load(1, XDATA, add(CFA_XSP16, literal(-12)))
          CFI (cfiCond102) V3 load(1, XDATA, add(CFA_XSP16, literal(-11)))
          CFI (cfiCond102) V4 load(1, XDATA, add(CFA_XSP16, literal(-10)))
          CFI (cfiCond102) V5 load(1, XDATA, add(CFA_XSP16, literal(-9)))
          CFI (cfiCond102) V6 load(1, XDATA, add(CFA_XSP16, literal(-8)))
          CFI (cfiCond102) V7 load(1, XDATA, add(CFA_XSP16, literal(-7)))
          CFI (cfiCond102) R7 load(1, XDATA, add(CFA_XSP16, literal(-6)))
          CFI (cfiCond102) ?RET_LOW load(1, XDATA, add(CFA_XSP16, literal(-5)))
          CFI (cfiCond102) ?RET_HIGH load(1, XDATA, add(CFA_XSP16, literal(-4)))
          CFI (cfiCond102) ?BRET_EXT load(1, XDATA, add(CFA_XSP16, literal(-3)))
          CFI (cfiCond102) DPL0 load(1, XDATA, add(CFA_XSP16, literal(-2)))
          CFI (cfiCond102) DPH0 load(1, XDATA, add(CFA_XSP16, literal(-1)))
          CFI (cfiCond102) CFA_SP SP+-2
          CFI (cfiCond102) CFA_XSP16 add(XSP16, 21)
          CFI Block cfiCond103 Using cfiCommon0
          CFI (cfiCond103) Function MT_AfDataRetrieve
          CFI (cfiCond103) Conditional ??CrossCallReturnLabel_109
          CFI (cfiCond103) R6 load(1, XDATA, add(CFA_XSP16, literal(-16)))
          CFI (cfiCond103) VB load(1, XDATA, add(CFA_XSP16, literal(-15)))
          CFI (cfiCond103) V0 load(1, XDATA, add(CFA_XSP16, literal(-14)))
          CFI (cfiCond103) V1 load(1, XDATA, add(CFA_XSP16, literal(-13)))
          CFI (cfiCond103) V2 load(1, XDATA, add(CFA_XSP16, literal(-12)))
          CFI (cfiCond103) V3 load(1, XDATA, add(CFA_XSP16, literal(-11)))
          CFI (cfiCond103) V4 load(1, XDATA, add(CFA_XSP16, literal(-10)))
          CFI (cfiCond103) V5 load(1, XDATA, add(CFA_XSP16, literal(-9)))
          CFI (cfiCond103) V6 load(1, XDATA, add(CFA_XSP16, literal(-8)))
          CFI (cfiCond103) V7 load(1, XDATA, add(CFA_XSP16, literal(-7)))
          CFI (cfiCond103) R7 load(1, XDATA, add(CFA_XSP16, literal(-6)))
          CFI (cfiCond103) ?RET_LOW load(1, XDATA, add(CFA_XSP16, literal(-5)))
          CFI (cfiCond103) ?RET_HIGH load(1, XDATA, add(CFA_XSP16, literal(-4)))
          CFI (cfiCond103) ?BRET_EXT load(1, XDATA, add(CFA_XSP16, literal(-3)))
          CFI (cfiCond103) DPL0 load(1, XDATA, add(CFA_XSP16, literal(-2)))
          CFI (cfiCond103) DPH0 load(1, XDATA, add(CFA_XSP16, literal(-1)))
          CFI (cfiCond103) CFA_SP SP+-2
          CFI (cfiCond103) CFA_XSP16 add(XSP16, 21)
          CFI Block cfiPicker104 Using cfiCommon1
          CFI (cfiPicker104) NoFunction
          CFI (cfiPicker104) Picker
        LCALL   ?Subroutine43 & 0xFFFF
??CrossCallReturnLabel_156:
        RET
          CFI EndBlock cfiCond99
          CFI EndBlock cfiCond100
          CFI EndBlock cfiCond101
          CFI EndBlock cfiCond102
          CFI EndBlock cfiCond103
          CFI EndBlock cfiPicker104

        RSEG BANKED_CODE:HUGECODE:NOROOT(0)
?Subroutine21:
          CFI Block cfiCond105 Using cfiCommon0
          CFI Function MT_AfIncomingMsg
          CFI Conditional ??CrossCallReturnLabel_33
          CFI R6 load(1, XDATA, add(CFA_XSP16, literal(-16)))
          CFI VB load(1, XDATA, add(CFA_XSP16, literal(-15)))
          CFI V0 load(1, XDATA, add(CFA_XSP16, literal(-14)))
          CFI V1 load(1, XDATA, add(CFA_XSP16, literal(-13)))
          CFI V2 load(1, XDATA, add(CFA_XSP16, literal(-12)))
          CFI V3 load(1, XDATA, add(CFA_XSP16, literal(-11)))
          CFI V4 load(1, XDATA, add(CFA_XSP16, literal(-10)))
          CFI V5 load(1, XDATA, add(CFA_XSP16, literal(-9)))
          CFI V6 load(1, XDATA, add(CFA_XSP16, literal(-8)))
          CFI V7 load(1, XDATA, add(CFA_XSP16, literal(-7)))
          CFI R7 load(1, XDATA, add(CFA_XSP16, literal(-6)))
          CFI ?RET_LOW load(1, XDATA, add(CFA_XSP16, literal(-5)))
          CFI ?RET_HIGH load(1, XDATA, add(CFA_XSP16, literal(-4)))
          CFI ?BRET_EXT load(1, XDATA, add(CFA_XSP16, literal(-3)))
          CFI DPL0 load(1, XDATA, add(CFA_XSP16, literal(-2)))
          CFI DPH0 load(1, XDATA, add(CFA_XSP16, literal(-1)))
          CFI CFA_XSP16 add(XSP16, 23)
          CFI Block cfiCond106 Using cfiCommon0
          CFI (cfiCond106) Function MT_AfIncomingMsg
          CFI (cfiCond106) Conditional ??CrossCallReturnLabel_34
          CFI (cfiCond106) R6 load(1, XDATA, add(CFA_XSP16, literal(-16)))
          CFI (cfiCond106) VB load(1, XDATA, add(CFA_XSP16, literal(-15)))
          CFI (cfiCond106) V0 load(1, XDATA, add(CFA_XSP16, literal(-14)))
          CFI (cfiCond106) V1 load(1, XDATA, add(CFA_XSP16, literal(-13)))
          CFI (cfiCond106) V2 load(1, XDATA, add(CFA_XSP16, literal(-12)))
          CFI (cfiCond106) V3 load(1, XDATA, add(CFA_XSP16, literal(-11)))
          CFI (cfiCond106) V4 load(1, XDATA, add(CFA_XSP16, literal(-10)))
          CFI (cfiCond106) V5 load(1, XDATA, add(CFA_XSP16, literal(-9)))
          CFI (cfiCond106) V6 load(1, XDATA, add(CFA_XSP16, literal(-8)))
          CFI (cfiCond106) V7 load(1, XDATA, add(CFA_XSP16, literal(-7)))
          CFI (cfiCond106) R7 load(1, XDATA, add(CFA_XSP16, literal(-6)))
          CFI (cfiCond106) ?RET_LOW load(1, XDATA, add(CFA_XSP16, literal(-5)))
          CFI (cfiCond106) ?RET_HIGH load(1, XDATA, add(CFA_XSP16, literal(-4)))
          CFI (cfiCond106) ?BRET_EXT load(1, XDATA, add(CFA_XSP16, literal(-3)))
          CFI (cfiCond106) DPL0 load(1, XDATA, add(CFA_XSP16, literal(-2)))
          CFI (cfiCond106) DPH0 load(1, XDATA, add(CFA_XSP16, literal(-1)))
          CFI (cfiCond106) CFA_XSP16 add(XSP16, 23)
          CFI Block cfiPicker107 Using cfiCommon1
          CFI (cfiPicker107) NoFunction
          CFI (cfiPicker107) Picker
        LCALL   ?Subroutine42 & 0xFFFF
??CrossCallReturnLabel_78:
        INC     DPTR
        INC     DPTR
        RET
          CFI EndBlock cfiCond105
          CFI EndBlock cfiCond106
          CFI EndBlock cfiPicker107

        RSEG BANKED_CODE:HUGECODE:NOROOT(0)
?Subroutine20:
          CFI Block cfiCond108 Using cfiCommon0
          CFI Function MT_AfIncomingMsg
          CFI Conditional ??CrossCallReturnLabel_110
          CFI R6 load(1, XDATA, add(CFA_XSP16, literal(-16)))
          CFI VB load(1, XDATA, add(CFA_XSP16, literal(-15)))
          CFI V0 load(1, XDATA, add(CFA_XSP16, literal(-14)))
          CFI V1 load(1, XDATA, add(CFA_XSP16, literal(-13)))
          CFI V2 load(1, XDATA, add(CFA_XSP16, literal(-12)))
          CFI V3 load(1, XDATA, add(CFA_XSP16, literal(-11)))
          CFI V4 load(1, XDATA, add(CFA_XSP16, literal(-10)))
          CFI V5 load(1, XDATA, add(CFA_XSP16, literal(-9)))
          CFI V6 load(1, XDATA, add(CFA_XSP16, literal(-8)))
          CFI V7 load(1, XDATA, add(CFA_XSP16, literal(-7)))
          CFI R7 load(1, XDATA, add(CFA_XSP16, literal(-6)))
          CFI ?RET_LOW load(1, XDATA, add(CFA_XSP16, literal(-5)))
          CFI ?RET_HIGH load(1, XDATA, add(CFA_XSP16, literal(-4)))
          CFI ?BRET_EXT load(1, XDATA, add(CFA_XSP16, literal(-3)))
          CFI DPL0 load(1, XDATA, add(CFA_XSP16, literal(-2)))
          CFI DPH0 load(1, XDATA, add(CFA_XSP16, literal(-1)))
          CFI CFA_SP SP+-2
          CFI CFA_XSP16 add(XSP16, 23)
          CFI Block cfiCond109 Using cfiCommon0
          CFI (cfiCond109) Function MT_AfIncomingMsg
          CFI (cfiCond109) Conditional ??CrossCallReturnLabel_111
          CFI (cfiCond109) R6 load(1, XDATA, add(CFA_XSP16, literal(-16)))
          CFI (cfiCond109) VB load(1, XDATA, add(CFA_XSP16, literal(-15)))
          CFI (cfiCond109) V0 load(1, XDATA, add(CFA_XSP16, literal(-14)))
          CFI (cfiCond109) V1 load(1, XDATA, add(CFA_XSP16, literal(-13)))
          CFI (cfiCond109) V2 load(1, XDATA, add(CFA_XSP16, literal(-12)))
          CFI (cfiCond109) V3 load(1, XDATA, add(CFA_XSP16, literal(-11)))
          CFI (cfiCond109) V4 load(1, XDATA, add(CFA_XSP16, literal(-10)))
          CFI (cfiCond109) V5 load(1, XDATA, add(CFA_XSP16, literal(-9)))
          CFI (cfiCond109) V6 load(1, XDATA, add(CFA_XSP16, literal(-8)))
          CFI (cfiCond109) V7 load(1, XDATA, add(CFA_XSP16, literal(-7)))
          CFI (cfiCond109) R7 load(1, XDATA, add(CFA_XSP16, literal(-6)))
          CFI (cfiCond109) ?RET_LOW load(1, XDATA, add(CFA_XSP16, literal(-5)))
          CFI (cfiCond109) ?RET_HIGH load(1, XDATA, add(CFA_XSP16, literal(-4)))
          CFI (cfiCond109) ?BRET_EXT load(1, XDATA, add(CFA_XSP16, literal(-3)))
          CFI (cfiCond109) DPL0 load(1, XDATA, add(CFA_XSP16, literal(-2)))
          CFI (cfiCond109) DPH0 load(1, XDATA, add(CFA_XSP16, literal(-1)))
          CFI (cfiCond109) CFA_SP SP+-2
          CFI (cfiCond109) CFA_XSP16 add(XSP16, 23)
          CFI Block cfiCond110 Using cfiCommon0
          CFI (cfiCond110) Function MT_AfIncomingMsg
          CFI (cfiCond110) Conditional ??CrossCallReturnLabel_112
          CFI (cfiCond110) R6 load(1, XDATA, add(CFA_XSP16, literal(-16)))
          CFI (cfiCond110) VB load(1, XDATA, add(CFA_XSP16, literal(-15)))
          CFI (cfiCond110) V0 load(1, XDATA, add(CFA_XSP16, literal(-14)))
          CFI (cfiCond110) V1 load(1, XDATA, add(CFA_XSP16, literal(-13)))
          CFI (cfiCond110) V2 load(1, XDATA, add(CFA_XSP16, literal(-12)))
          CFI (cfiCond110) V3 load(1, XDATA, add(CFA_XSP16, literal(-11)))
          CFI (cfiCond110) V4 load(1, XDATA, add(CFA_XSP16, literal(-10)))
          CFI (cfiCond110) V5 load(1, XDATA, add(CFA_XSP16, literal(-9)))
          CFI (cfiCond110) V6 load(1, XDATA, add(CFA_XSP16, literal(-8)))
          CFI (cfiCond110) V7 load(1, XDATA, add(CFA_XSP16, literal(-7)))
          CFI (cfiCond110) R7 load(1, XDATA, add(CFA_XSP16, literal(-6)))
          CFI (cfiCond110) ?RET_LOW load(1, XDATA, add(CFA_XSP16, literal(-5)))
          CFI (cfiCond110) ?RET_HIGH load(1, XDATA, add(CFA_XSP16, literal(-4)))
          CFI (cfiCond110) ?BRET_EXT load(1, XDATA, add(CFA_XSP16, literal(-3)))
          CFI (cfiCond110) DPL0 load(1, XDATA, add(CFA_XSP16, literal(-2)))
          CFI (cfiCond110) DPH0 load(1, XDATA, add(CFA_XSP16, literal(-1)))
          CFI (cfiCond110) CFA_SP SP+-2
          CFI (cfiCond110) CFA_XSP16 add(XSP16, 23)
          CFI Block cfiPicker111 Using cfiCommon1
          CFI (cfiPicker111) NoFunction
          CFI (cfiPicker111) Picker
        MOVX    @DPTR,A
          CFI EndBlock cfiCond108
          CFI EndBlock cfiCond109
          CFI EndBlock cfiCond110
          CFI EndBlock cfiPicker111
        REQUIRE ??Subroutine53_0
        ; // Fall through to label ??Subroutine53_0

        RSEG BANKED_CODE:HUGECODE:NOROOT(0)
??Subroutine53_0:
          CFI Block cfiCond112 Using cfiCommon0
          CFI Function MT_AfIncomingMsg
          CFI Conditional ??CrossCallReturnLabel_117
          CFI R6 load(1, XDATA, add(CFA_XSP16, literal(-16)))
          CFI VB load(1, XDATA, add(CFA_XSP16, literal(-15)))
          CFI V0 load(1, XDATA, add(CFA_XSP16, literal(-14)))
          CFI V1 load(1, XDATA, add(CFA_XSP16, literal(-13)))
          CFI V2 load(1, XDATA, add(CFA_XSP16, literal(-12)))
          CFI V3 load(1, XDATA, add(CFA_XSP16, literal(-11)))
          CFI V4 load(1, XDATA, add(CFA_XSP16, literal(-10)))
          CFI V5 load(1, XDATA, add(CFA_XSP16, literal(-9)))
          CFI V6 load(1, XDATA, add(CFA_XSP16, literal(-8)))
          CFI V7 load(1, XDATA, add(CFA_XSP16, literal(-7)))
          CFI R7 load(1, XDATA, add(CFA_XSP16, literal(-6)))
          CFI ?RET_LOW load(1, XDATA, add(CFA_XSP16, literal(-5)))
          CFI ?RET_HIGH load(1, XDATA, add(CFA_XSP16, literal(-4)))
          CFI ?BRET_EXT load(1, XDATA, add(CFA_XSP16, literal(-3)))
          CFI DPL0 load(1, XDATA, add(CFA_XSP16, literal(-2)))
          CFI DPH0 load(1, XDATA, add(CFA_XSP16, literal(-1)))
          CFI CFA_SP SP+-2
          CFI CFA_XSP16 add(XSP16, 23)
          CFI Block cfiCond113 Using cfiCommon0
          CFI (cfiCond113) Function MT_AfIncomingMsg
          CFI (cfiCond113) Conditional ??CrossCallReturnLabel_118
          CFI (cfiCond113) R6 load(1, XDATA, add(CFA_XSP16, literal(-16)))
          CFI (cfiCond113) VB load(1, XDATA, add(CFA_XSP16, literal(-15)))
          CFI (cfiCond113) V0 load(1, XDATA, add(CFA_XSP16, literal(-14)))
          CFI (cfiCond113) V1 load(1, XDATA, add(CFA_XSP16, literal(-13)))
          CFI (cfiCond113) V2 load(1, XDATA, add(CFA_XSP16, literal(-12)))
          CFI (cfiCond113) V3 load(1, XDATA, add(CFA_XSP16, literal(-11)))
          CFI (cfiCond113) V4 load(1, XDATA, add(CFA_XSP16, literal(-10)))
          CFI (cfiCond113) V5 load(1, XDATA, add(CFA_XSP16, literal(-9)))
          CFI (cfiCond113) V6 load(1, XDATA, add(CFA_XSP16, literal(-8)))
          CFI (cfiCond113) V7 load(1, XDATA, add(CFA_XSP16, literal(-7)))
          CFI (cfiCond113) R7 load(1, XDATA, add(CFA_XSP16, literal(-6)))
          CFI (cfiCond113) ?RET_LOW load(1, XDATA, add(CFA_XSP16, literal(-5)))
          CFI (cfiCond113) ?RET_HIGH load(1, XDATA, add(CFA_XSP16, literal(-4)))
          CFI (cfiCond113) ?BRET_EXT load(1, XDATA, add(CFA_XSP16, literal(-3)))
          CFI (cfiCond113) DPL0 load(1, XDATA, add(CFA_XSP16, literal(-2)))
          CFI (cfiCond113) DPH0 load(1, XDATA, add(CFA_XSP16, literal(-1)))
          CFI (cfiCond113) CFA_SP SP+-2
          CFI (cfiCond113) CFA_XSP16 add(XSP16, 23)
          CFI Block cfiCond114 Using cfiCommon0
          CFI (cfiCond114) Function MT_AfIncomingMsg
          CFI (cfiCond114) Conditional ??CrossCallReturnLabel_119
          CFI (cfiCond114) R6 load(1, XDATA, add(CFA_XSP16, literal(-16)))
          CFI (cfiCond114) VB load(1, XDATA, add(CFA_XSP16, literal(-15)))
          CFI (cfiCond114) V0 load(1, XDATA, add(CFA_XSP16, literal(-14)))
          CFI (cfiCond114) V1 load(1, XDATA, add(CFA_XSP16, literal(-13)))
          CFI (cfiCond114) V2 load(1, XDATA, add(CFA_XSP16, literal(-12)))
          CFI (cfiCond114) V3 load(1, XDATA, add(CFA_XSP16, literal(-11)))
          CFI (cfiCond114) V4 load(1, XDATA, add(CFA_XSP16, literal(-10)))
          CFI (cfiCond114) V5 load(1, XDATA, add(CFA_XSP16, literal(-9)))
          CFI (cfiCond114) V6 load(1, XDATA, add(CFA_XSP16, literal(-8)))
          CFI (cfiCond114) V7 load(1, XDATA, add(CFA_XSP16, literal(-7)))
          CFI (cfiCond114) R7 load(1, XDATA, add(CFA_XSP16, literal(-6)))
          CFI (cfiCond114) ?RET_LOW load(1, XDATA, add(CFA_XSP16, literal(-5)))
          CFI (cfiCond114) ?RET_HIGH load(1, XDATA, add(CFA_XSP16, literal(-4)))
          CFI (cfiCond114) ?BRET_EXT load(1, XDATA, add(CFA_XSP16, literal(-3)))
          CFI (cfiCond114) DPL0 load(1, XDATA, add(CFA_XSP16, literal(-2)))
          CFI (cfiCond114) DPH0 load(1, XDATA, add(CFA_XSP16, literal(-1)))
          CFI (cfiCond114) CFA_SP SP+-2
          CFI (cfiCond114) CFA_XSP16 add(XSP16, 23)
          CFI Block cfiCond115 Using cfiCommon0
          CFI (cfiCond115) Function MT_AfIncomingMsg
          CFI (cfiCond115) Conditional ??CrossCallReturnLabel_110
          CFI (cfiCond115) R6 load(1, XDATA, add(CFA_XSP16, literal(-16)))
          CFI (cfiCond115) VB load(1, XDATA, add(CFA_XSP16, literal(-15)))
          CFI (cfiCond115) V0 load(1, XDATA, add(CFA_XSP16, literal(-14)))
          CFI (cfiCond115) V1 load(1, XDATA, add(CFA_XSP16, literal(-13)))
          CFI (cfiCond115) V2 load(1, XDATA, add(CFA_XSP16, literal(-12)))
          CFI (cfiCond115) V3 load(1, XDATA, add(CFA_XSP16, literal(-11)))
          CFI (cfiCond115) V4 load(1, XDATA, add(CFA_XSP16, literal(-10)))
          CFI (cfiCond115) V5 load(1, XDATA, add(CFA_XSP16, literal(-9)))
          CFI (cfiCond115) V6 load(1, XDATA, add(CFA_XSP16, literal(-8)))
          CFI (cfiCond115) V7 load(1, XDATA, add(CFA_XSP16, literal(-7)))
          CFI (cfiCond115) R7 load(1, XDATA, add(CFA_XSP16, literal(-6)))
          CFI (cfiCond115) ?RET_LOW load(1, XDATA, add(CFA_XSP16, literal(-5)))
          CFI (cfiCond115) ?RET_HIGH load(1, XDATA, add(CFA_XSP16, literal(-4)))
          CFI (cfiCond115) ?BRET_EXT load(1, XDATA, add(CFA_XSP16, literal(-3)))
          CFI (cfiCond115) DPL0 load(1, XDATA, add(CFA_XSP16, literal(-2)))
          CFI (cfiCond115) DPH0 load(1, XDATA, add(CFA_XSP16, literal(-1)))
          CFI (cfiCond115) CFA_SP SP+-2
          CFI (cfiCond115) CFA_XSP16 add(XSP16, 23)
          CFI Block cfiCond116 Using cfiCommon0
          CFI (cfiCond116) Function MT_AfIncomingMsg
          CFI (cfiCond116) Conditional ??CrossCallReturnLabel_111
          CFI (cfiCond116) R6 load(1, XDATA, add(CFA_XSP16, literal(-16)))
          CFI (cfiCond116) VB load(1, XDATA, add(CFA_XSP16, literal(-15)))
          CFI (cfiCond116) V0 load(1, XDATA, add(CFA_XSP16, literal(-14)))
          CFI (cfiCond116) V1 load(1, XDATA, add(CFA_XSP16, literal(-13)))
          CFI (cfiCond116) V2 load(1, XDATA, add(CFA_XSP16, literal(-12)))
          CFI (cfiCond116) V3 load(1, XDATA, add(CFA_XSP16, literal(-11)))
          CFI (cfiCond116) V4 load(1, XDATA, add(CFA_XSP16, literal(-10)))
          CFI (cfiCond116) V5 load(1, XDATA, add(CFA_XSP16, literal(-9)))
          CFI (cfiCond116) V6 load(1, XDATA, add(CFA_XSP16, literal(-8)))
          CFI (cfiCond116) V7 load(1, XDATA, add(CFA_XSP16, literal(-7)))
          CFI (cfiCond116) R7 load(1, XDATA, add(CFA_XSP16, literal(-6)))
          CFI (cfiCond116) ?RET_LOW load(1, XDATA, add(CFA_XSP16, literal(-5)))
          CFI (cfiCond116) ?RET_HIGH load(1, XDATA, add(CFA_XSP16, literal(-4)))
          CFI (cfiCond116) ?BRET_EXT load(1, XDATA, add(CFA_XSP16, literal(-3)))
          CFI (cfiCond116) DPL0 load(1, XDATA, add(CFA_XSP16, literal(-2)))
          CFI (cfiCond116) DPH0 load(1, XDATA, add(CFA_XSP16, literal(-1)))
          CFI (cfiCond116) CFA_SP SP+-2
          CFI (cfiCond116) CFA_XSP16 add(XSP16, 23)
          CFI Block cfiCond117 Using cfiCommon0
          CFI (cfiCond117) Function MT_AfIncomingMsg
          CFI (cfiCond117) Conditional ??CrossCallReturnLabel_112
          CFI (cfiCond117) R6 load(1, XDATA, add(CFA_XSP16, literal(-16)))
          CFI (cfiCond117) VB load(1, XDATA, add(CFA_XSP16, literal(-15)))
          CFI (cfiCond117) V0 load(1, XDATA, add(CFA_XSP16, literal(-14)))
          CFI (cfiCond117) V1 load(1, XDATA, add(CFA_XSP16, literal(-13)))
          CFI (cfiCond117) V2 load(1, XDATA, add(CFA_XSP16, literal(-12)))
          CFI (cfiCond117) V3 load(1, XDATA, add(CFA_XSP16, literal(-11)))
          CFI (cfiCond117) V4 load(1, XDATA, add(CFA_XSP16, literal(-10)))
          CFI (cfiCond117) V5 load(1, XDATA, add(CFA_XSP16, literal(-9)))
          CFI (cfiCond117) V6 load(1, XDATA, add(CFA_XSP16, literal(-8)))
          CFI (cfiCond117) V7 load(1, XDATA, add(CFA_XSP16, literal(-7)))
          CFI (cfiCond117) R7 load(1, XDATA, add(CFA_XSP16, literal(-6)))
          CFI (cfiCond117) ?RET_LOW load(1, XDATA, add(CFA_XSP16, literal(-5)))
          CFI (cfiCond117) ?RET_HIGH load(1, XDATA, add(CFA_XSP16, literal(-4)))
          CFI (cfiCond117) ?BRET_EXT load(1, XDATA, add(CFA_XSP16, literal(-3)))
          CFI (cfiCond117) DPL0 load(1, XDATA, add(CFA_XSP16, literal(-2)))
          CFI (cfiCond117) DPH0 load(1, XDATA, add(CFA_XSP16, literal(-1)))
          CFI (cfiCond117) CFA_SP SP+-2
          CFI (cfiCond117) CFA_XSP16 add(XSP16, 23)
          CFI Block cfiPicker118 Using cfiCommon1
          CFI (cfiPicker118) NoFunction
          CFI (cfiPicker118) Picker
        MOV     DPL,?XSP + 0
        MOV     DPH,?XSP + 1
          CFI EndBlock cfiCond112
          CFI EndBlock cfiCond113
          CFI EndBlock cfiCond114
          CFI EndBlock cfiCond115
          CFI EndBlock cfiCond116
          CFI EndBlock cfiCond117
          CFI EndBlock cfiPicker118
        REQUIRE ??Subroutine54_0
        ; // Fall through to label ??Subroutine54_0

        RSEG BANKED_CODE:HUGECODE:NOROOT(0)
??Subroutine54_0:
          CFI Block cfiCond119 Using cfiCommon0
          CFI Function MT_AfDataRequest
          CFI Conditional ??CrossCallReturnLabel_113
          CFI R6 load(1, XDATA, add(CFA_XSP16, literal(-16)))
          CFI VB load(1, XDATA, add(CFA_XSP16, literal(-15)))
          CFI V0 load(1, XDATA, add(CFA_XSP16, literal(-14)))
          CFI V1 load(1, XDATA, add(CFA_XSP16, literal(-13)))
          CFI V2 load(1, XDATA, add(CFA_XSP16, literal(-12)))
          CFI V3 load(1, XDATA, add(CFA_XSP16, literal(-11)))
          CFI V4 load(1, XDATA, add(CFA_XSP16, literal(-10)))
          CFI V5 load(1, XDATA, add(CFA_XSP16, literal(-9)))
          CFI V6 load(1, XDATA, add(CFA_XSP16, literal(-8)))
          CFI V7 load(1, XDATA, add(CFA_XSP16, literal(-7)))
          CFI R7 load(1, XDATA, add(CFA_XSP16, literal(-6)))
          CFI ?RET_LOW load(1, XDATA, add(CFA_XSP16, literal(-5)))
          CFI ?RET_HIGH load(1, XDATA, add(CFA_XSP16, literal(-4)))
          CFI ?BRET_EXT load(1, XDATA, add(CFA_XSP16, literal(-3)))
          CFI DPL0 load(1, XDATA, add(CFA_XSP16, literal(-2)))
          CFI DPH0 load(1, XDATA, add(CFA_XSP16, literal(-1)))
          CFI CFA_SP SP+-2
          CFI CFA_XSP16 add(XSP16, 33)
          CFI Block cfiCond120 Using cfiCommon0
          CFI (cfiCond120) Function MT_AfDataRequest
          CFI (cfiCond120) Conditional ??CrossCallReturnLabel_114
          CFI (cfiCond120) R6 load(1, XDATA, add(CFA_XSP16, literal(-16)))
          CFI (cfiCond120) VB load(1, XDATA, add(CFA_XSP16, literal(-15)))
          CFI (cfiCond120) V0 load(1, XDATA, add(CFA_XSP16, literal(-14)))
          CFI (cfiCond120) V1 load(1, XDATA, add(CFA_XSP16, literal(-13)))
          CFI (cfiCond120) V2 load(1, XDATA, add(CFA_XSP16, literal(-12)))
          CFI (cfiCond120) V3 load(1, XDATA, add(CFA_XSP16, literal(-11)))
          CFI (cfiCond120) V4 load(1, XDATA, add(CFA_XSP16, literal(-10)))
          CFI (cfiCond120) V5 load(1, XDATA, add(CFA_XSP16, literal(-9)))
          CFI (cfiCond120) V6 load(1, XDATA, add(CFA_XSP16, literal(-8)))
          CFI (cfiCond120) V7 load(1, XDATA, add(CFA_XSP16, literal(-7)))
          CFI (cfiCond120) R7 load(1, XDATA, add(CFA_XSP16, literal(-6)))
          CFI (cfiCond120) ?RET_LOW load(1, XDATA, add(CFA_XSP16, literal(-5)))
          CFI (cfiCond120) ?RET_HIGH load(1, XDATA, add(CFA_XSP16, literal(-4)))
          CFI (cfiCond120) ?BRET_EXT load(1, XDATA, add(CFA_XSP16, literal(-3)))
          CFI (cfiCond120) DPL0 load(1, XDATA, add(CFA_XSP16, literal(-2)))
          CFI (cfiCond120) DPH0 load(1, XDATA, add(CFA_XSP16, literal(-1)))
          CFI (cfiCond120) CFA_SP SP+-2
          CFI (cfiCond120) CFA_XSP16 add(XSP16, 33)
          CFI Block cfiCond121 Using cfiCommon0
          CFI (cfiCond121) Function MT_AfIncomingMsg
          CFI (cfiCond121) Conditional ??CrossCallReturnLabel_115
          CFI (cfiCond121) R6 load(1, XDATA, add(CFA_XSP16, literal(-16)))
          CFI (cfiCond121) VB load(1, XDATA, add(CFA_XSP16, literal(-15)))
          CFI (cfiCond121) V0 load(1, XDATA, add(CFA_XSP16, literal(-14)))
          CFI (cfiCond121) V1 load(1, XDATA, add(CFA_XSP16, literal(-13)))
          CFI (cfiCond121) V2 load(1, XDATA, add(CFA_XSP16, literal(-12)))
          CFI (cfiCond121) V3 load(1, XDATA, add(CFA_XSP16, literal(-11)))
          CFI (cfiCond121) V4 load(1, XDATA, add(CFA_XSP16, literal(-10)))
          CFI (cfiCond121) V5 load(1, XDATA, add(CFA_XSP16, literal(-9)))
          CFI (cfiCond121) V6 load(1, XDATA, add(CFA_XSP16, literal(-8)))
          CFI (cfiCond121) V7 load(1, XDATA, add(CFA_XSP16, literal(-7)))
          CFI (cfiCond121) R7 load(1, XDATA, add(CFA_XSP16, literal(-6)))
          CFI (cfiCond121) ?RET_LOW load(1, XDATA, add(CFA_XSP16, literal(-5)))
          CFI (cfiCond121) ?RET_HIGH load(1, XDATA, add(CFA_XSP16, literal(-4)))
          CFI (cfiCond121) ?BRET_EXT load(1, XDATA, add(CFA_XSP16, literal(-3)))
          CFI (cfiCond121) DPL0 load(1, XDATA, add(CFA_XSP16, literal(-2)))
          CFI (cfiCond121) DPH0 load(1, XDATA, add(CFA_XSP16, literal(-1)))
          CFI (cfiCond121) CFA_XSP16 add(XSP16, 23)
          CFI Block cfiCond122 Using cfiCommon0
          CFI (cfiCond122) Function MT_AfIncomingMsg
          CFI (cfiCond122) Conditional ??CrossCallReturnLabel_116
          CFI (cfiCond122) R6 load(1, XDATA, add(CFA_XSP16, literal(-16)))
          CFI (cfiCond122) VB load(1, XDATA, add(CFA_XSP16, literal(-15)))
          CFI (cfiCond122) V0 load(1, XDATA, add(CFA_XSP16, literal(-14)))
          CFI (cfiCond122) V1 load(1, XDATA, add(CFA_XSP16, literal(-13)))
          CFI (cfiCond122) V2 load(1, XDATA, add(CFA_XSP16, literal(-12)))
          CFI (cfiCond122) V3 load(1, XDATA, add(CFA_XSP16, literal(-11)))
          CFI (cfiCond122) V4 load(1, XDATA, add(CFA_XSP16, literal(-10)))
          CFI (cfiCond122) V5 load(1, XDATA, add(CFA_XSP16, literal(-9)))
          CFI (cfiCond122) V6 load(1, XDATA, add(CFA_XSP16, literal(-8)))
          CFI (cfiCond122) V7 load(1, XDATA, add(CFA_XSP16, literal(-7)))
          CFI (cfiCond122) R7 load(1, XDATA, add(CFA_XSP16, literal(-6)))
          CFI (cfiCond122) ?RET_LOW load(1, XDATA, add(CFA_XSP16, literal(-5)))
          CFI (cfiCond122) ?RET_HIGH load(1, XDATA, add(CFA_XSP16, literal(-4)))
          CFI (cfiCond122) ?BRET_EXT load(1, XDATA, add(CFA_XSP16, literal(-3)))
          CFI (cfiCond122) DPL0 load(1, XDATA, add(CFA_XSP16, literal(-2)))
          CFI (cfiCond122) DPH0 load(1, XDATA, add(CFA_XSP16, literal(-1)))
          CFI (cfiCond122) CFA_SP SP+-2
          CFI (cfiCond122) CFA_XSP16 add(XSP16, 23)
          CFI Block cfiCond123 Using cfiCommon0
          CFI (cfiCond123) Function MT_AfIncomingMsg
          CFI (cfiCond123) Conditional ??CrossCallReturnLabel_117
          CFI (cfiCond123) R6 load(1, XDATA, add(CFA_XSP16, literal(-16)))
          CFI (cfiCond123) VB load(1, XDATA, add(CFA_XSP16, literal(-15)))
          CFI (cfiCond123) V0 load(1, XDATA, add(CFA_XSP16, literal(-14)))
          CFI (cfiCond123) V1 load(1, XDATA, add(CFA_XSP16, literal(-13)))
          CFI (cfiCond123) V2 load(1, XDATA, add(CFA_XSP16, literal(-12)))
          CFI (cfiCond123) V3 load(1, XDATA, add(CFA_XSP16, literal(-11)))
          CFI (cfiCond123) V4 load(1, XDATA, add(CFA_XSP16, literal(-10)))
          CFI (cfiCond123) V5 load(1, XDATA, add(CFA_XSP16, literal(-9)))
          CFI (cfiCond123) V6 load(1, XDATA, add(CFA_XSP16, literal(-8)))
          CFI (cfiCond123) V7 load(1, XDATA, add(CFA_XSP16, literal(-7)))
          CFI (cfiCond123) R7 load(1, XDATA, add(CFA_XSP16, literal(-6)))
          CFI (cfiCond123) ?RET_LOW load(1, XDATA, add(CFA_XSP16, literal(-5)))
          CFI (cfiCond123) ?RET_HIGH load(1, XDATA, add(CFA_XSP16, literal(-4)))
          CFI (cfiCond123) ?BRET_EXT load(1, XDATA, add(CFA_XSP16, literal(-3)))
          CFI (cfiCond123) DPL0 load(1, XDATA, add(CFA_XSP16, literal(-2)))
          CFI (cfiCond123) DPH0 load(1, XDATA, add(CFA_XSP16, literal(-1)))
          CFI (cfiCond123) CFA_SP SP+-2
          CFI (cfiCond123) CFA_XSP16 add(XSP16, 23)
          CFI Block cfiCond124 Using cfiCommon0
          CFI (cfiCond124) Function MT_AfIncomingMsg
          CFI (cfiCond124) Conditional ??CrossCallReturnLabel_118
          CFI (cfiCond124) R6 load(1, XDATA, add(CFA_XSP16, literal(-16)))
          CFI (cfiCond124) VB load(1, XDATA, add(CFA_XSP16, literal(-15)))
          CFI (cfiCond124) V0 load(1, XDATA, add(CFA_XSP16, literal(-14)))
          CFI (cfiCond124) V1 load(1, XDATA, add(CFA_XSP16, literal(-13)))
          CFI (cfiCond124) V2 load(1, XDATA, add(CFA_XSP16, literal(-12)))
          CFI (cfiCond124) V3 load(1, XDATA, add(CFA_XSP16, literal(-11)))
          CFI (cfiCond124) V4 load(1, XDATA, add(CFA_XSP16, literal(-10)))
          CFI (cfiCond124) V5 load(1, XDATA, add(CFA_XSP16, literal(-9)))
          CFI (cfiCond124) V6 load(1, XDATA, add(CFA_XSP16, literal(-8)))
          CFI (cfiCond124) V7 load(1, XDATA, add(CFA_XSP16, literal(-7)))
          CFI (cfiCond124) R7 load(1, XDATA, add(CFA_XSP16, literal(-6)))
          CFI (cfiCond124) ?RET_LOW load(1, XDATA, add(CFA_XSP16, literal(-5)))
          CFI (cfiCond124) ?RET_HIGH load(1, XDATA, add(CFA_XSP16, literal(-4)))
          CFI (cfiCond124) ?BRET_EXT load(1, XDATA, add(CFA_XSP16, literal(-3)))
          CFI (cfiCond124) DPL0 load(1, XDATA, add(CFA_XSP16, literal(-2)))
          CFI (cfiCond124) DPH0 load(1, XDATA, add(CFA_XSP16, literal(-1)))
          CFI (cfiCond124) CFA_SP SP+-2
          CFI (cfiCond124) CFA_XSP16 add(XSP16, 23)
          CFI Block cfiCond125 Using cfiCommon0
          CFI (cfiCond125) Function MT_AfIncomingMsg
          CFI (cfiCond125) Conditional ??CrossCallReturnLabel_119
          CFI (cfiCond125) R6 load(1, XDATA, add(CFA_XSP16, literal(-16)))
          CFI (cfiCond125) VB load(1, XDATA, add(CFA_XSP16, literal(-15)))
          CFI (cfiCond125) V0 load(1, XDATA, add(CFA_XSP16, literal(-14)))
          CFI (cfiCond125) V1 load(1, XDATA, add(CFA_XSP16, literal(-13)))
          CFI (cfiCond125) V2 load(1, XDATA, add(CFA_XSP16, literal(-12)))
          CFI (cfiCond125) V3 load(1, XDATA, add(CFA_XSP16, literal(-11)))
          CFI (cfiCond125) V4 load(1, XDATA, add(CFA_XSP16, literal(-10)))
          CFI (cfiCond125) V5 load(1, XDATA, add(CFA_XSP16, literal(-9)))
          CFI (cfiCond125) V6 load(1, XDATA, add(CFA_XSP16, literal(-8)))
          CFI (cfiCond125) V7 load(1, XDATA, add(CFA_XSP16, literal(-7)))
          CFI (cfiCond125) R7 load(1, XDATA, add(CFA_XSP16, literal(-6)))
          CFI (cfiCond125) ?RET_LOW load(1, XDATA, add(CFA_XSP16, literal(-5)))
          CFI (cfiCond125) ?RET_HIGH load(1, XDATA, add(CFA_XSP16, literal(-4)))
          CFI (cfiCond125) ?BRET_EXT load(1, XDATA, add(CFA_XSP16, literal(-3)))
          CFI (cfiCond125) DPL0 load(1, XDATA, add(CFA_XSP16, literal(-2)))
          CFI (cfiCond125) DPH0 load(1, XDATA, add(CFA_XSP16, literal(-1)))
          CFI (cfiCond125) CFA_SP SP+-2
          CFI (cfiCond125) CFA_XSP16 add(XSP16, 23)
          CFI Block cfiCond126 Using cfiCommon0
          CFI (cfiCond126) Function MT_AfIncomingMsg
          CFI (cfiCond126) Conditional ??CrossCallReturnLabel_110
          CFI (cfiCond126) R6 load(1, XDATA, add(CFA_XSP16, literal(-16)))
          CFI (cfiCond126) VB load(1, XDATA, add(CFA_XSP16, literal(-15)))
          CFI (cfiCond126) V0 load(1, XDATA, add(CFA_XSP16, literal(-14)))
          CFI (cfiCond126) V1 load(1, XDATA, add(CFA_XSP16, literal(-13)))
          CFI (cfiCond126) V2 load(1, XDATA, add(CFA_XSP16, literal(-12)))
          CFI (cfiCond126) V3 load(1, XDATA, add(CFA_XSP16, literal(-11)))
          CFI (cfiCond126) V4 load(1, XDATA, add(CFA_XSP16, literal(-10)))
          CFI (cfiCond126) V5 load(1, XDATA, add(CFA_XSP16, literal(-9)))
          CFI (cfiCond126) V6 load(1, XDATA, add(CFA_XSP16, literal(-8)))
          CFI (cfiCond126) V7 load(1, XDATA, add(CFA_XSP16, literal(-7)))
          CFI (cfiCond126) R7 load(1, XDATA, add(CFA_XSP16, literal(-6)))
          CFI (cfiCond126) ?RET_LOW load(1, XDATA, add(CFA_XSP16, literal(-5)))
          CFI (cfiCond126) ?RET_HIGH load(1, XDATA, add(CFA_XSP16, literal(-4)))
          CFI (cfiCond126) ?BRET_EXT load(1, XDATA, add(CFA_XSP16, literal(-3)))
          CFI (cfiCond126) DPL0 load(1, XDATA, add(CFA_XSP16, literal(-2)))
          CFI (cfiCond126) DPH0 load(1, XDATA, add(CFA_XSP16, literal(-1)))
          CFI (cfiCond126) CFA_SP SP+-2
          CFI (cfiCond126) CFA_XSP16 add(XSP16, 23)
          CFI Block cfiCond127 Using cfiCommon0
          CFI (cfiCond127) Function MT_AfIncomingMsg
          CFI (cfiCond127) Conditional ??CrossCallReturnLabel_111
          CFI (cfiCond127) R6 load(1, XDATA, add(CFA_XSP16, literal(-16)))
          CFI (cfiCond127) VB load(1, XDATA, add(CFA_XSP16, literal(-15)))
          CFI (cfiCond127) V0 load(1, XDATA, add(CFA_XSP16, literal(-14)))
          CFI (cfiCond127) V1 load(1, XDATA, add(CFA_XSP16, literal(-13)))
          CFI (cfiCond127) V2 load(1, XDATA, add(CFA_XSP16, literal(-12)))
          CFI (cfiCond127) V3 load(1, XDATA, add(CFA_XSP16, literal(-11)))
          CFI (cfiCond127) V4 load(1, XDATA, add(CFA_XSP16, literal(-10)))
          CFI (cfiCond127) V5 load(1, XDATA, add(CFA_XSP16, literal(-9)))
          CFI (cfiCond127) V6 load(1, XDATA, add(CFA_XSP16, literal(-8)))
          CFI (cfiCond127) V7 load(1, XDATA, add(CFA_XSP16, literal(-7)))
          CFI (cfiCond127) R7 load(1, XDATA, add(CFA_XSP16, literal(-6)))
          CFI (cfiCond127) ?RET_LOW load(1, XDATA, add(CFA_XSP16, literal(-5)))
          CFI (cfiCond127) ?RET_HIGH load(1, XDATA, add(CFA_XSP16, literal(-4)))
          CFI (cfiCond127) ?BRET_EXT load(1, XDATA, add(CFA_XSP16, literal(-3)))
          CFI (cfiCond127) DPL0 load(1, XDATA, add(CFA_XSP16, literal(-2)))
          CFI (cfiCond127) DPH0 load(1, XDATA, add(CFA_XSP16, literal(-1)))
          CFI (cfiCond127) CFA_SP SP+-2
          CFI (cfiCond127) CFA_XSP16 add(XSP16, 23)
          CFI Block cfiCond128 Using cfiCommon0
          CFI (cfiCond128) Function MT_AfIncomingMsg
          CFI (cfiCond128) Conditional ??CrossCallReturnLabel_112
          CFI (cfiCond128) R6 load(1, XDATA, add(CFA_XSP16, literal(-16)))
          CFI (cfiCond128) VB load(1, XDATA, add(CFA_XSP16, literal(-15)))
          CFI (cfiCond128) V0 load(1, XDATA, add(CFA_XSP16, literal(-14)))
          CFI (cfiCond128) V1 load(1, XDATA, add(CFA_XSP16, literal(-13)))
          CFI (cfiCond128) V2 load(1, XDATA, add(CFA_XSP16, literal(-12)))
          CFI (cfiCond128) V3 load(1, XDATA, add(CFA_XSP16, literal(-11)))
          CFI (cfiCond128) V4 load(1, XDATA, add(CFA_XSP16, literal(-10)))
          CFI (cfiCond128) V5 load(1, XDATA, add(CFA_XSP16, literal(-9)))
          CFI (cfiCond128) V6 load(1, XDATA, add(CFA_XSP16, literal(-8)))
          CFI (cfiCond128) V7 load(1, XDATA, add(CFA_XSP16, literal(-7)))
          CFI (cfiCond128) R7 load(1, XDATA, add(CFA_XSP16, literal(-6)))
          CFI (cfiCond128) ?RET_LOW load(1, XDATA, add(CFA_XSP16, literal(-5)))
          CFI (cfiCond128) ?RET_HIGH load(1, XDATA, add(CFA_XSP16, literal(-4)))
          CFI (cfiCond128) ?BRET_EXT load(1, XDATA, add(CFA_XSP16, literal(-3)))
          CFI (cfiCond128) DPL0 load(1, XDATA, add(CFA_XSP16, literal(-2)))
          CFI (cfiCond128) DPH0 load(1, XDATA, add(CFA_XSP16, literal(-1)))
          CFI (cfiCond128) CFA_SP SP+-2
          CFI (cfiCond128) CFA_XSP16 add(XSP16, 23)
          CFI Block cfiPicker129 Using cfiCommon1
          CFI (cfiPicker129) NoFunction
          CFI (cfiPicker129) Picker
        LCALL   ??Subroutine60_0 & 0xFFFF
??CrossCallReturnLabel_166:
        RET
          CFI EndBlock cfiCond119
          CFI EndBlock cfiCond120
          CFI EndBlock cfiCond121
          CFI EndBlock cfiCond122
          CFI EndBlock cfiCond123
          CFI EndBlock cfiCond124
          CFI EndBlock cfiCond125
          CFI EndBlock cfiCond126
          CFI EndBlock cfiCond127
          CFI EndBlock cfiCond128
          CFI EndBlock cfiPicker129

        RSEG BANKED_CODE:HUGECODE:NOROOT(0)
?Subroutine19:
          CFI Block cfiCond130 Using cfiCommon0
          CFI Function MT_AfDataRequest
          CFI Conditional ??CrossCallReturnLabel_31
          CFI R6 load(1, XDATA, add(CFA_XSP16, literal(-16)))
          CFI VB load(1, XDATA, add(CFA_XSP16, literal(-15)))
          CFI V0 load(1, XDATA, add(CFA_XSP16, literal(-14)))
          CFI V1 load(1, XDATA, add(CFA_XSP16, literal(-13)))
          CFI V2 load(1, XDATA, add(CFA_XSP16, literal(-12)))
          CFI V3 load(1, XDATA, add(CFA_XSP16, literal(-11)))
          CFI V4 load(1, XDATA, add(CFA_XSP16, literal(-10)))
          CFI V5 load(1, XDATA, add(CFA_XSP16, literal(-9)))
          CFI V6 load(1, XDATA, add(CFA_XSP16, literal(-8)))
          CFI V7 load(1, XDATA, add(CFA_XSP16, literal(-7)))
          CFI R7 load(1, XDATA, add(CFA_XSP16, literal(-6)))
          CFI ?RET_LOW load(1, XDATA, add(CFA_XSP16, literal(-5)))
          CFI ?RET_HIGH load(1, XDATA, add(CFA_XSP16, literal(-4)))
          CFI ?BRET_EXT load(1, XDATA, add(CFA_XSP16, literal(-3)))
          CFI DPL0 load(1, XDATA, add(CFA_XSP16, literal(-2)))
          CFI DPH0 load(1, XDATA, add(CFA_XSP16, literal(-1)))
          CFI CFA_SP SP+-2
          CFI CFA_XSP16 add(XSP16, 33)
          CFI Block cfiCond131 Using cfiCommon0
          CFI (cfiCond131) Function MT_AfIncomingMsg
          CFI (cfiCond131) Conditional ??CrossCallReturnLabel_32
          CFI (cfiCond131) R6 load(1, XDATA, add(CFA_XSP16, literal(-16)))
          CFI (cfiCond131) VB load(1, XDATA, add(CFA_XSP16, literal(-15)))
          CFI (cfiCond131) V0 load(1, XDATA, add(CFA_XSP16, literal(-14)))
          CFI (cfiCond131) V1 load(1, XDATA, add(CFA_XSP16, literal(-13)))
          CFI (cfiCond131) V2 load(1, XDATA, add(CFA_XSP16, literal(-12)))
          CFI (cfiCond131) V3 load(1, XDATA, add(CFA_XSP16, literal(-11)))
          CFI (cfiCond131) V4 load(1, XDATA, add(CFA_XSP16, literal(-10)))
          CFI (cfiCond131) V5 load(1, XDATA, add(CFA_XSP16, literal(-9)))
          CFI (cfiCond131) V6 load(1, XDATA, add(CFA_XSP16, literal(-8)))
          CFI (cfiCond131) V7 load(1, XDATA, add(CFA_XSP16, literal(-7)))
          CFI (cfiCond131) R7 load(1, XDATA, add(CFA_XSP16, literal(-6)))
          CFI (cfiCond131) ?RET_LOW load(1, XDATA, add(CFA_XSP16, literal(-5)))
          CFI (cfiCond131) ?RET_HIGH load(1, XDATA, add(CFA_XSP16, literal(-4)))
          CFI (cfiCond131) ?BRET_EXT load(1, XDATA, add(CFA_XSP16, literal(-3)))
          CFI (cfiCond131) DPL0 load(1, XDATA, add(CFA_XSP16, literal(-2)))
          CFI (cfiCond131) DPH0 load(1, XDATA, add(CFA_XSP16, literal(-1)))
          CFI (cfiCond131) CFA_SP SP+-2
          CFI (cfiCond131) CFA_XSP16 add(XSP16, 23)
          CFI Block cfiPicker132 Using cfiCommon1
          CFI (cfiPicker132) NoFunction
          CFI (cfiPicker132) Picker
        LCALL   ??Subroutine60_0 & 0xFFFF
??CrossCallReturnLabel_162:
        ADD     A,#0x16
        MOV     DPL,A
        CLR     A
        ADDC    A,R0
        MOV     DPH,A
        RET
          CFI EndBlock cfiCond130
          CFI EndBlock cfiCond131
          CFI EndBlock cfiPicker132

        RSEG BANKED_CODE:HUGECODE:NOROOT(0)
?Subroutine18:
          CFI Block cfiCond133 Using cfiCommon0
          CFI Function MT_AfDataRequest
          CFI Conditional ??CrossCallReturnLabel_29
          CFI R6 load(1, XDATA, add(CFA_XSP16, literal(-16)))
          CFI VB load(1, XDATA, add(CFA_XSP16, literal(-15)))
          CFI V0 load(1, XDATA, add(CFA_XSP16, literal(-14)))
          CFI V1 load(1, XDATA, add(CFA_XSP16, literal(-13)))
          CFI V2 load(1, XDATA, add(CFA_XSP16, literal(-12)))
          CFI V3 load(1, XDATA, add(CFA_XSP16, literal(-11)))
          CFI V4 load(1, XDATA, add(CFA_XSP16, literal(-10)))
          CFI V5 load(1, XDATA, add(CFA_XSP16, literal(-9)))
          CFI V6 load(1, XDATA, add(CFA_XSP16, literal(-8)))
          CFI V7 load(1, XDATA, add(CFA_XSP16, literal(-7)))
          CFI R7 load(1, XDATA, add(CFA_XSP16, literal(-6)))
          CFI ?RET_LOW load(1, XDATA, add(CFA_XSP16, literal(-5)))
          CFI ?RET_HIGH load(1, XDATA, add(CFA_XSP16, literal(-4)))
          CFI ?BRET_EXT load(1, XDATA, add(CFA_XSP16, literal(-3)))
          CFI DPL0 load(1, XDATA, add(CFA_XSP16, literal(-2)))
          CFI DPH0 load(1, XDATA, add(CFA_XSP16, literal(-1)))
          CFI CFA_XSP16 add(XSP16, 33)
          CFI Block cfiCond134 Using cfiCommon0
          CFI (cfiCond134) Function MT_AfIncomingMsg
          CFI (cfiCond134) Conditional ??CrossCallReturnLabel_30
          CFI (cfiCond134) R6 load(1, XDATA, add(CFA_XSP16, literal(-16)))
          CFI (cfiCond134) VB load(1, XDATA, add(CFA_XSP16, literal(-15)))
          CFI (cfiCond134) V0 load(1, XDATA, add(CFA_XSP16, literal(-14)))
          CFI (cfiCond134) V1 load(1, XDATA, add(CFA_XSP16, literal(-13)))
          CFI (cfiCond134) V2 load(1, XDATA, add(CFA_XSP16, literal(-12)))
          CFI (cfiCond134) V3 load(1, XDATA, add(CFA_XSP16, literal(-11)))
          CFI (cfiCond134) V4 load(1, XDATA, add(CFA_XSP16, literal(-10)))
          CFI (cfiCond134) V5 load(1, XDATA, add(CFA_XSP16, literal(-9)))
          CFI (cfiCond134) V6 load(1, XDATA, add(CFA_XSP16, literal(-8)))
          CFI (cfiCond134) V7 load(1, XDATA, add(CFA_XSP16, literal(-7)))
          CFI (cfiCond134) R7 load(1, XDATA, add(CFA_XSP16, literal(-6)))
          CFI (cfiCond134) ?RET_LOW load(1, XDATA, add(CFA_XSP16, literal(-5)))
          CFI (cfiCond134) ?RET_HIGH load(1, XDATA, add(CFA_XSP16, literal(-4)))
          CFI (cfiCond134) ?BRET_EXT load(1, XDATA, add(CFA_XSP16, literal(-3)))
          CFI (cfiCond134) DPL0 load(1, XDATA, add(CFA_XSP16, literal(-2)))
          CFI (cfiCond134) DPH0 load(1, XDATA, add(CFA_XSP16, literal(-1)))
          CFI (cfiCond134) CFA_SP SP+-2
          CFI (cfiCond134) CFA_XSP16 add(XSP16, 23)
          CFI Block cfiPicker135 Using cfiCommon1
          CFI (cfiPicker135) NoFunction
          CFI (cfiPicker135) Picker
        LCALL   ??Subroutine60_0 & 0xFFFF
??CrossCallReturnLabel_161:
        ADD     A,#0x14
        MOV     DPL,A
        CLR     A
        ADDC    A,R0
        MOV     DPH,A
        RET
          CFI EndBlock cfiCond133
          CFI EndBlock cfiCond134
          CFI EndBlock cfiPicker135

        RSEG BANKED_CODE:HUGECODE:NOROOT(0)
?Subroutine14:
          CFI Block cfiCond136 Using cfiCommon0
          CFI Function MT_AfExec
          CFI Conditional ??CrossCallReturnLabel_21
          CFI R6 load(1, XDATA, add(CFA_XSP16, literal(-9)))
          CFI VB load(1, XDATA, add(CFA_XSP16, literal(-8)))
          CFI V0 load(1, XDATA, add(CFA_XSP16, literal(-7)))
          CFI R7 load(1, XDATA, add(CFA_XSP16, literal(-6)))
          CFI ?RET_LOW load(1, XDATA, add(CFA_XSP16, literal(-5)))
          CFI ?RET_HIGH load(1, XDATA, add(CFA_XSP16, literal(-4)))
          CFI ?BRET_EXT load(1, XDATA, add(CFA_XSP16, literal(-3)))
          CFI DPL0 load(1, XDATA, add(CFA_XSP16, literal(-2)))
          CFI DPH0 load(1, XDATA, add(CFA_XSP16, literal(-1)))
          CFI CFA_SP SP+-2
          CFI CFA_XSP16 add(XSP16, 9)
          CFI Block cfiCond137 Using cfiCommon0
          CFI (cfiCond137) Function MT_AfIncomingMsg
          CFI (cfiCond137) Conditional ??CrossCallReturnLabel_22
          CFI (cfiCond137) R6 load(1, XDATA, add(CFA_XSP16, literal(-16)))
          CFI (cfiCond137) VB load(1, XDATA, add(CFA_XSP16, literal(-15)))
          CFI (cfiCond137) V0 load(1, XDATA, add(CFA_XSP16, literal(-14)))
          CFI (cfiCond137) V1 load(1, XDATA, add(CFA_XSP16, literal(-13)))
          CFI (cfiCond137) V2 load(1, XDATA, add(CFA_XSP16, literal(-12)))
          CFI (cfiCond137) V3 load(1, XDATA, add(CFA_XSP16, literal(-11)))
          CFI (cfiCond137) V4 load(1, XDATA, add(CFA_XSP16, literal(-10)))
          CFI (cfiCond137) V5 load(1, XDATA, add(CFA_XSP16, literal(-9)))
          CFI (cfiCond137) V6 load(1, XDATA, add(CFA_XSP16, literal(-8)))
          CFI (cfiCond137) V7 load(1, XDATA, add(CFA_XSP16, literal(-7)))
          CFI (cfiCond137) R7 load(1, XDATA, add(CFA_XSP16, literal(-6)))
          CFI (cfiCond137) ?RET_LOW load(1, XDATA, add(CFA_XSP16, literal(-5)))
          CFI (cfiCond137) ?RET_HIGH load(1, XDATA, add(CFA_XSP16, literal(-4)))
          CFI (cfiCond137) ?BRET_EXT load(1, XDATA, add(CFA_XSP16, literal(-3)))
          CFI (cfiCond137) DPL0 load(1, XDATA, add(CFA_XSP16, literal(-2)))
          CFI (cfiCond137) DPH0 load(1, XDATA, add(CFA_XSP16, literal(-1)))
          CFI (cfiCond137) CFA_SP SP+-2
          CFI (cfiCond137) CFA_XSP16 add(XSP16, 23)
          CFI Block cfiPicker138 Using cfiCommon1
          CFI (cfiPicker138) NoFunction
          CFI (cfiPicker138) Picker
        LCALL   ?Subroutine43 & 0xFFFF
??CrossCallReturnLabel_155:
        MOV     DPTR,#pMtAfInMsgList
        MOV     A,R0
        MOVX    @DPTR,A
        INC     DPTR
        MOV     A,R1
        MOVX    @DPTR,A
        RET
          CFI EndBlock cfiCond136
          CFI EndBlock cfiCond137
          CFI EndBlock cfiPicker138

        RSEG BANKED_CODE:HUGECODE:NOROOT(0)
?Subroutine11:
          CFI Block cfiCond139 Using cfiCommon0
          CFI Function MT_AfIncomingMsg
          CFI Conditional ??CrossCallReturnLabel_123
          CFI R6 load(1, XDATA, add(CFA_XSP16, literal(-16)))
          CFI VB load(1, XDATA, add(CFA_XSP16, literal(-15)))
          CFI V0 load(1, XDATA, add(CFA_XSP16, literal(-14)))
          CFI V1 load(1, XDATA, add(CFA_XSP16, literal(-13)))
          CFI V2 load(1, XDATA, add(CFA_XSP16, literal(-12)))
          CFI V3 load(1, XDATA, add(CFA_XSP16, literal(-11)))
          CFI V4 load(1, XDATA, add(CFA_XSP16, literal(-10)))
          CFI V5 load(1, XDATA, add(CFA_XSP16, literal(-9)))
          CFI V6 load(1, XDATA, add(CFA_XSP16, literal(-8)))
          CFI V7 load(1, XDATA, add(CFA_XSP16, literal(-7)))
          CFI R7 load(1, XDATA, add(CFA_XSP16, literal(-6)))
          CFI ?RET_LOW load(1, XDATA, add(CFA_XSP16, literal(-5)))
          CFI ?RET_HIGH load(1, XDATA, add(CFA_XSP16, literal(-4)))
          CFI ?BRET_EXT load(1, XDATA, add(CFA_XSP16, literal(-3)))
          CFI DPL0 load(1, XDATA, add(CFA_XSP16, literal(-2)))
          CFI DPH0 load(1, XDATA, add(CFA_XSP16, literal(-1)))
          CFI CFA_XSP16 add(XSP16, 23)
          CFI Block cfiCond140 Using cfiCommon0
          CFI (cfiCond140) Function MT_AfDataRetrieve
          CFI (cfiCond140) Conditional ??CrossCallReturnLabel_124
          CFI (cfiCond140) R6 load(1, XDATA, add(CFA_XSP16, literal(-16)))
          CFI (cfiCond140) VB load(1, XDATA, add(CFA_XSP16, literal(-15)))
          CFI (cfiCond140) V0 load(1, XDATA, add(CFA_XSP16, literal(-14)))
          CFI (cfiCond140) V1 load(1, XDATA, add(CFA_XSP16, literal(-13)))
          CFI (cfiCond140) V2 load(1, XDATA, add(CFA_XSP16, literal(-12)))
          CFI (cfiCond140) V3 load(1, XDATA, add(CFA_XSP16, literal(-11)))
          CFI (cfiCond140) V4 load(1, XDATA, add(CFA_XSP16, literal(-10)))
          CFI (cfiCond140) V5 load(1, XDATA, add(CFA_XSP16, literal(-9)))
          CFI (cfiCond140) V6 load(1, XDATA, add(CFA_XSP16, literal(-8)))
          CFI (cfiCond140) V7 load(1, XDATA, add(CFA_XSP16, literal(-7)))
          CFI (cfiCond140) R7 load(1, XDATA, add(CFA_XSP16, literal(-6)))
          CFI (cfiCond140) ?RET_LOW load(1, XDATA, add(CFA_XSP16, literal(-5)))
          CFI (cfiCond140) ?RET_HIGH load(1, XDATA, add(CFA_XSP16, literal(-4)))
          CFI (cfiCond140) ?BRET_EXT load(1, XDATA, add(CFA_XSP16, literal(-3)))
          CFI (cfiCond140) DPL0 load(1, XDATA, add(CFA_XSP16, literal(-2)))
          CFI (cfiCond140) DPH0 load(1, XDATA, add(CFA_XSP16, literal(-1)))
          CFI (cfiCond140) CFA_XSP16 add(XSP16, 21)
          CFI Block cfiPicker141 Using cfiCommon1
          CFI (cfiPicker141) NoFunction
          CFI (cfiPicker141) Picker
        MOVX    A,@DPTR
        MOV     R0,A
          CFI EndBlock cfiCond139
          CFI EndBlock cfiCond140
          CFI EndBlock cfiPicker141
        REQUIRE ??Subroutine55_0
        ; // Fall through to label ??Subroutine55_0

        RSEG BANKED_CODE:HUGECODE:NOROOT(0)
??Subroutine55_0:
          CFI Block cfiCond142 Using cfiCommon0
          CFI Function MT_AfDataRetrieve
          CFI Conditional ??CrossCallReturnLabel_120
          CFI R6 load(1, XDATA, add(CFA_XSP16, literal(-16)))
          CFI VB load(1, XDATA, add(CFA_XSP16, literal(-15)))
          CFI V0 load(1, XDATA, add(CFA_XSP16, literal(-14)))
          CFI V1 load(1, XDATA, add(CFA_XSP16, literal(-13)))
          CFI V2 load(1, XDATA, add(CFA_XSP16, literal(-12)))
          CFI V3 load(1, XDATA, add(CFA_XSP16, literal(-11)))
          CFI V4 load(1, XDATA, add(CFA_XSP16, literal(-10)))
          CFI V5 load(1, XDATA, add(CFA_XSP16, literal(-9)))
          CFI V6 load(1, XDATA, add(CFA_XSP16, literal(-8)))
          CFI V7 load(1, XDATA, add(CFA_XSP16, literal(-7)))
          CFI R7 load(1, XDATA, add(CFA_XSP16, literal(-6)))
          CFI ?RET_LOW load(1, XDATA, add(CFA_XSP16, literal(-5)))
          CFI ?RET_HIGH load(1, XDATA, add(CFA_XSP16, literal(-4)))
          CFI ?BRET_EXT load(1, XDATA, add(CFA_XSP16, literal(-3)))
          CFI DPL0 load(1, XDATA, add(CFA_XSP16, literal(-2)))
          CFI DPH0 load(1, XDATA, add(CFA_XSP16, literal(-1)))
          CFI CFA_SP SP+-2
          CFI CFA_XSP16 add(XSP16, 21)
          CFI Block cfiCond143 Using cfiCommon0
          CFI (cfiCond143) Function MT_AfDataRetrieve
          CFI (cfiCond143) Conditional ??CrossCallReturnLabel_121
          CFI (cfiCond143) R6 load(1, XDATA, add(CFA_XSP16, literal(-16)))
          CFI (cfiCond143) VB load(1, XDATA, add(CFA_XSP16, literal(-15)))
          CFI (cfiCond143) V0 load(1, XDATA, add(CFA_XSP16, literal(-14)))
          CFI (cfiCond143) V1 load(1, XDATA, add(CFA_XSP16, literal(-13)))
          CFI (cfiCond143) V2 load(1, XDATA, add(CFA_XSP16, literal(-12)))
          CFI (cfiCond143) V3 load(1, XDATA, add(CFA_XSP16, literal(-11)))
          CFI (cfiCond143) V4 load(1, XDATA, add(CFA_XSP16, literal(-10)))
          CFI (cfiCond143) V5 load(1, XDATA, add(CFA_XSP16, literal(-9)))
          CFI (cfiCond143) V6 load(1, XDATA, add(CFA_XSP16, literal(-8)))
          CFI (cfiCond143) V7 load(1, XDATA, add(CFA_XSP16, literal(-7)))
          CFI (cfiCond143) R7 load(1, XDATA, add(CFA_XSP16, literal(-6)))
          CFI (cfiCond143) ?RET_LOW load(1, XDATA, add(CFA_XSP16, literal(-5)))
          CFI (cfiCond143) ?RET_HIGH load(1, XDATA, add(CFA_XSP16, literal(-4)))
          CFI (cfiCond143) ?BRET_EXT load(1, XDATA, add(CFA_XSP16, literal(-3)))
          CFI (cfiCond143) DPL0 load(1, XDATA, add(CFA_XSP16, literal(-2)))
          CFI (cfiCond143) DPH0 load(1, XDATA, add(CFA_XSP16, literal(-1)))
          CFI (cfiCond143) CFA_SP SP+-2
          CFI (cfiCond143) CFA_XSP16 add(XSP16, 21)
          CFI Block cfiCond144 Using cfiCommon0
          CFI (cfiCond144) Function MT_AfDataRetrieve
          CFI (cfiCond144) Conditional ??CrossCallReturnLabel_122
          CFI (cfiCond144) R6 load(1, XDATA, add(CFA_XSP16, literal(-16)))
          CFI (cfiCond144) VB load(1, XDATA, add(CFA_XSP16, literal(-15)))
          CFI (cfiCond144) V0 load(1, XDATA, add(CFA_XSP16, literal(-14)))
          CFI (cfiCond144) V1 load(1, XDATA, add(CFA_XSP16, literal(-13)))
          CFI (cfiCond144) V2 load(1, XDATA, add(CFA_XSP16, literal(-12)))
          CFI (cfiCond144) V3 load(1, XDATA, add(CFA_XSP16, literal(-11)))
          CFI (cfiCond144) V4 load(1, XDATA, add(CFA_XSP16, literal(-10)))
          CFI (cfiCond144) V5 load(1, XDATA, add(CFA_XSP16, literal(-9)))
          CFI (cfiCond144) V6 load(1, XDATA, add(CFA_XSP16, literal(-8)))
          CFI (cfiCond144) V7 load(1, XDATA, add(CFA_XSP16, literal(-7)))
          CFI (cfiCond144) R7 load(1, XDATA, add(CFA_XSP16, literal(-6)))
          CFI (cfiCond144) ?RET_LOW load(1, XDATA, add(CFA_XSP16, literal(-5)))
          CFI (cfiCond144) ?RET_HIGH load(1, XDATA, add(CFA_XSP16, literal(-4)))
          CFI (cfiCond144) ?BRET_EXT load(1, XDATA, add(CFA_XSP16, literal(-3)))
          CFI (cfiCond144) DPL0 load(1, XDATA, add(CFA_XSP16, literal(-2)))
          CFI (cfiCond144) DPH0 load(1, XDATA, add(CFA_XSP16, literal(-1)))
          CFI (cfiCond144) CFA_SP SP+-2
          CFI (cfiCond144) CFA_XSP16 add(XSP16, 21)
          CFI Block cfiCond145 Using cfiCommon0
          CFI (cfiCond145) Function MT_AfIncomingMsg
          CFI (cfiCond145) Conditional ??CrossCallReturnLabel_123
          CFI (cfiCond145) R6 load(1, XDATA, add(CFA_XSP16, literal(-16)))
          CFI (cfiCond145) VB load(1, XDATA, add(CFA_XSP16, literal(-15)))
          CFI (cfiCond145) V0 load(1, XDATA, add(CFA_XSP16, literal(-14)))
          CFI (cfiCond145) V1 load(1, XDATA, add(CFA_XSP16, literal(-13)))
          CFI (cfiCond145) V2 load(1, XDATA, add(CFA_XSP16, literal(-12)))
          CFI (cfiCond145) V3 load(1, XDATA, add(CFA_XSP16, literal(-11)))
          CFI (cfiCond145) V4 load(1, XDATA, add(CFA_XSP16, literal(-10)))
          CFI (cfiCond145) V5 load(1, XDATA, add(CFA_XSP16, literal(-9)))
          CFI (cfiCond145) V6 load(1, XDATA, add(CFA_XSP16, literal(-8)))
          CFI (cfiCond145) V7 load(1, XDATA, add(CFA_XSP16, literal(-7)))
          CFI (cfiCond145) R7 load(1, XDATA, add(CFA_XSP16, literal(-6)))
          CFI (cfiCond145) ?RET_LOW load(1, XDATA, add(CFA_XSP16, literal(-5)))
          CFI (cfiCond145) ?RET_HIGH load(1, XDATA, add(CFA_XSP16, literal(-4)))
          CFI (cfiCond145) ?BRET_EXT load(1, XDATA, add(CFA_XSP16, literal(-3)))
          CFI (cfiCond145) DPL0 load(1, XDATA, add(CFA_XSP16, literal(-2)))
          CFI (cfiCond145) DPH0 load(1, XDATA, add(CFA_XSP16, literal(-1)))
          CFI (cfiCond145) CFA_XSP16 add(XSP16, 23)
          CFI Block cfiCond146 Using cfiCommon0
          CFI (cfiCond146) Function MT_AfDataRetrieve
          CFI (cfiCond146) Conditional ??CrossCallReturnLabel_124
          CFI (cfiCond146) R6 load(1, XDATA, add(CFA_XSP16, literal(-16)))
          CFI (cfiCond146) VB load(1, XDATA, add(CFA_XSP16, literal(-15)))
          CFI (cfiCond146) V0 load(1, XDATA, add(CFA_XSP16, literal(-14)))
          CFI (cfiCond146) V1 load(1, XDATA, add(CFA_XSP16, literal(-13)))
          CFI (cfiCond146) V2 load(1, XDATA, add(CFA_XSP16, literal(-12)))
          CFI (cfiCond146) V3 load(1, XDATA, add(CFA_XSP16, literal(-11)))
          CFI (cfiCond146) V4 load(1, XDATA, add(CFA_XSP16, literal(-10)))
          CFI (cfiCond146) V5 load(1, XDATA, add(CFA_XSP16, literal(-9)))
          CFI (cfiCond146) V6 load(1, XDATA, add(CFA_XSP16, literal(-8)))
          CFI (cfiCond146) V7 load(1, XDATA, add(CFA_XSP16, literal(-7)))
          CFI (cfiCond146) R7 load(1, XDATA, add(CFA_XSP16, literal(-6)))
          CFI (cfiCond146) ?RET_LOW load(1, XDATA, add(CFA_XSP16, literal(-5)))
          CFI (cfiCond146) ?RET_HIGH load(1, XDATA, add(CFA_XSP16, literal(-4)))
          CFI (cfiCond146) ?BRET_EXT load(1, XDATA, add(CFA_XSP16, literal(-3)))
          CFI (cfiCond146) DPL0 load(1, XDATA, add(CFA_XSP16, literal(-2)))
          CFI (cfiCond146) DPH0 load(1, XDATA, add(CFA_XSP16, literal(-1)))
          CFI (cfiCond146) CFA_XSP16 add(XSP16, 21)
          CFI Block cfiPicker147 Using cfiCommon1
          CFI (cfiPicker147) NoFunction
          CFI (cfiPicker147) Picker
        LCALL   ??Subroutine58_0 & 0xFFFF
??CrossCallReturnLabel_142:
        INC     DPTR
        RET
          CFI EndBlock cfiCond142
          CFI EndBlock cfiCond143
          CFI EndBlock cfiCond144
          CFI EndBlock cfiCond145
          CFI EndBlock cfiCond146
          CFI EndBlock cfiPicker147

        RSEG BANKED_CODE:HUGECODE:NOROOT(0)
?Subroutine9:
          CFI Block cfiCond148 Using cfiCommon0
          CFI Function MT_AfExec
          CFI Conditional ??CrossCallReturnLabel_131
          CFI R6 load(1, XDATA, add(CFA_XSP16, literal(-9)))
          CFI VB load(1, XDATA, add(CFA_XSP16, literal(-8)))
          CFI V0 load(1, XDATA, add(CFA_XSP16, literal(-7)))
          CFI R7 load(1, XDATA, add(CFA_XSP16, literal(-6)))
          CFI ?RET_LOW load(1, XDATA, add(CFA_XSP16, literal(-5)))
          CFI ?RET_HIGH load(1, XDATA, add(CFA_XSP16, literal(-4)))
          CFI ?BRET_EXT load(1, XDATA, add(CFA_XSP16, literal(-3)))
          CFI DPL0 load(1, XDATA, add(CFA_XSP16, literal(-2)))
          CFI DPH0 load(1, XDATA, add(CFA_XSP16, literal(-1)))
          CFI CFA_SP SP+-2
          CFI CFA_XSP16 add(XSP16, 9)
          CFI Block cfiCond149 Using cfiCommon0
          CFI (cfiCond149) Function MT_AfDataStore
          CFI (cfiCond149) Conditional ??CrossCallReturnLabel_132
          CFI (cfiCond149) R6 load(1, XDATA, add(CFA_XSP16, literal(-11)))
          CFI (cfiCond149) VB load(1, XDATA, add(CFA_XSP16, literal(-10)))
          CFI (cfiCond149) V0 load(1, XDATA, add(CFA_XSP16, literal(-9)))
          CFI (cfiCond149) V1 load(1, XDATA, add(CFA_XSP16, literal(-8)))
          CFI (cfiCond149) V2 load(1, XDATA, add(CFA_XSP16, literal(-7)))
          CFI (cfiCond149) R7 load(1, XDATA, add(CFA_XSP16, literal(-6)))
          CFI (cfiCond149) ?RET_LOW load(1, XDATA, add(CFA_XSP16, literal(-5)))
          CFI (cfiCond149) ?RET_HIGH load(1, XDATA, add(CFA_XSP16, literal(-4)))
          CFI (cfiCond149) ?BRET_EXT load(1, XDATA, add(CFA_XSP16, literal(-3)))
          CFI (cfiCond149) DPL0 load(1, XDATA, add(CFA_XSP16, literal(-2)))
          CFI (cfiCond149) DPH0 load(1, XDATA, add(CFA_XSP16, literal(-1)))
          CFI (cfiCond149) CFA_SP SP+-2
          CFI (cfiCond149) CFA_XSP16 add(XSP16, 12)
          CFI Block cfiPicker150 Using cfiCommon1
          CFI (cfiPicker150) NoFunction
          CFI (cfiPicker150) Picker
        MOV     DPTR,#pMtAfDataReq
          CFI EndBlock cfiCond148
          CFI EndBlock cfiCond149
          CFI EndBlock cfiPicker150
        REQUIRE ??Subroutine56_0
        ; // Fall through to label ??Subroutine56_0

        RSEG BANKED_CODE:HUGECODE:NOROOT(0)
??Subroutine56_0:
          CFI Block cfiCond151 Using cfiCommon0
          CFI Function MT_AfExec
          CFI Conditional ??CrossCallReturnLabel_125
          CFI R6 load(1, XDATA, add(CFA_XSP16, literal(-9)))
          CFI VB load(1, XDATA, add(CFA_XSP16, literal(-8)))
          CFI V0 load(1, XDATA, add(CFA_XSP16, literal(-7)))
          CFI R7 load(1, XDATA, add(CFA_XSP16, literal(-6)))
          CFI ?RET_LOW load(1, XDATA, add(CFA_XSP16, literal(-5)))
          CFI ?RET_HIGH load(1, XDATA, add(CFA_XSP16, literal(-4)))
          CFI ?BRET_EXT load(1, XDATA, add(CFA_XSP16, literal(-3)))
          CFI DPL0 load(1, XDATA, add(CFA_XSP16, literal(-2)))
          CFI DPH0 load(1, XDATA, add(CFA_XSP16, literal(-1)))
          CFI CFA_SP SP+-2
          CFI CFA_XSP16 add(XSP16, 9)
          CFI Block cfiCond152 Using cfiCommon0
          CFI (cfiCond152) Function MT_AfDataRequest
          CFI (cfiCond152) Conditional ??CrossCallReturnLabel_126
          CFI (cfiCond152) R6 load(1, XDATA, add(CFA_XSP16, literal(-16)))
          CFI (cfiCond152) VB load(1, XDATA, add(CFA_XSP16, literal(-15)))
          CFI (cfiCond152) V0 load(1, XDATA, add(CFA_XSP16, literal(-14)))
          CFI (cfiCond152) V1 load(1, XDATA, add(CFA_XSP16, literal(-13)))
          CFI (cfiCond152) V2 load(1, XDATA, add(CFA_XSP16, literal(-12)))
          CFI (cfiCond152) V3 load(1, XDATA, add(CFA_XSP16, literal(-11)))
          CFI (cfiCond152) V4 load(1, XDATA, add(CFA_XSP16, literal(-10)))
          CFI (cfiCond152) V5 load(1, XDATA, add(CFA_XSP16, literal(-9)))
          CFI (cfiCond152) V6 load(1, XDATA, add(CFA_XSP16, literal(-8)))
          CFI (cfiCond152) V7 load(1, XDATA, add(CFA_XSP16, literal(-7)))
          CFI (cfiCond152) R7 load(1, XDATA, add(CFA_XSP16, literal(-6)))
          CFI (cfiCond152) ?RET_LOW load(1, XDATA, add(CFA_XSP16, literal(-5)))
          CFI (cfiCond152) ?RET_HIGH load(1, XDATA, add(CFA_XSP16, literal(-4)))
          CFI (cfiCond152) ?BRET_EXT load(1, XDATA, add(CFA_XSP16, literal(-3)))
          CFI (cfiCond152) DPL0 load(1, XDATA, add(CFA_XSP16, literal(-2)))
          CFI (cfiCond152) DPH0 load(1, XDATA, add(CFA_XSP16, literal(-1)))
          CFI (cfiCond152) CFA_SP SP+-2
          CFI (cfiCond152) CFA_XSP16 add(XSP16, 33)
          CFI Block cfiCond153 Using cfiCommon0
          CFI (cfiCond153) Function MT_AfDataRequest
          CFI (cfiCond153) Conditional ??CrossCallReturnLabel_127
          CFI (cfiCond153) R6 load(1, XDATA, add(CFA_XSP16, literal(-16)))
          CFI (cfiCond153) VB load(1, XDATA, add(CFA_XSP16, literal(-15)))
          CFI (cfiCond153) V0 load(1, XDATA, add(CFA_XSP16, literal(-14)))
          CFI (cfiCond153) V1 load(1, XDATA, add(CFA_XSP16, literal(-13)))
          CFI (cfiCond153) V2 load(1, XDATA, add(CFA_XSP16, literal(-12)))
          CFI (cfiCond153) V3 load(1, XDATA, add(CFA_XSP16, literal(-11)))
          CFI (cfiCond153) V4 load(1, XDATA, add(CFA_XSP16, literal(-10)))
          CFI (cfiCond153) V5 load(1, XDATA, add(CFA_XSP16, literal(-9)))
          CFI (cfiCond153) V6 load(1, XDATA, add(CFA_XSP16, literal(-8)))
          CFI (cfiCond153) V7 load(1, XDATA, add(CFA_XSP16, literal(-7)))
          CFI (cfiCond153) R7 load(1, XDATA, add(CFA_XSP16, literal(-6)))
          CFI (cfiCond153) ?RET_LOW load(1, XDATA, add(CFA_XSP16, literal(-5)))
          CFI (cfiCond153) ?RET_HIGH load(1, XDATA, add(CFA_XSP16, literal(-4)))
          CFI (cfiCond153) ?BRET_EXT load(1, XDATA, add(CFA_XSP16, literal(-3)))
          CFI (cfiCond153) DPL0 load(1, XDATA, add(CFA_XSP16, literal(-2)))
          CFI (cfiCond153) DPH0 load(1, XDATA, add(CFA_XSP16, literal(-1)))
          CFI (cfiCond153) CFA_SP SP+-2
          CFI (cfiCond153) CFA_XSP16 add(XSP16, 33)
          CFI Block cfiCond154 Using cfiCommon0
          CFI (cfiCond154) Function MT_AfIncomingMsg
          CFI (cfiCond154) Conditional ??CrossCallReturnLabel_128
          CFI (cfiCond154) R6 load(1, XDATA, add(CFA_XSP16, literal(-16)))
          CFI (cfiCond154) VB load(1, XDATA, add(CFA_XSP16, literal(-15)))
          CFI (cfiCond154) V0 load(1, XDATA, add(CFA_XSP16, literal(-14)))
          CFI (cfiCond154) V1 load(1, XDATA, add(CFA_XSP16, literal(-13)))
          CFI (cfiCond154) V2 load(1, XDATA, add(CFA_XSP16, literal(-12)))
          CFI (cfiCond154) V3 load(1, XDATA, add(CFA_XSP16, literal(-11)))
          CFI (cfiCond154) V4 load(1, XDATA, add(CFA_XSP16, literal(-10)))
          CFI (cfiCond154) V5 load(1, XDATA, add(CFA_XSP16, literal(-9)))
          CFI (cfiCond154) V6 load(1, XDATA, add(CFA_XSP16, literal(-8)))
          CFI (cfiCond154) V7 load(1, XDATA, add(CFA_XSP16, literal(-7)))
          CFI (cfiCond154) R7 load(1, XDATA, add(CFA_XSP16, literal(-6)))
          CFI (cfiCond154) ?RET_LOW load(1, XDATA, add(CFA_XSP16, literal(-5)))
          CFI (cfiCond154) ?RET_HIGH load(1, XDATA, add(CFA_XSP16, literal(-4)))
          CFI (cfiCond154) ?BRET_EXT load(1, XDATA, add(CFA_XSP16, literal(-3)))
          CFI (cfiCond154) DPL0 load(1, XDATA, add(CFA_XSP16, literal(-2)))
          CFI (cfiCond154) DPH0 load(1, XDATA, add(CFA_XSP16, literal(-1)))
          CFI (cfiCond154) CFA_SP SP+-2
          CFI (cfiCond154) CFA_XSP16 add(XSP16, 23)
          CFI Block cfiCond155 Using cfiCommon0
          CFI (cfiCond155) Function MT_AfIncomingMsg
          CFI (cfiCond155) Conditional ??CrossCallReturnLabel_129
          CFI (cfiCond155) R6 load(1, XDATA, add(CFA_XSP16, literal(-16)))
          CFI (cfiCond155) VB load(1, XDATA, add(CFA_XSP16, literal(-15)))
          CFI (cfiCond155) V0 load(1, XDATA, add(CFA_XSP16, literal(-14)))
          CFI (cfiCond155) V1 load(1, XDATA, add(CFA_XSP16, literal(-13)))
          CFI (cfiCond155) V2 load(1, XDATA, add(CFA_XSP16, literal(-12)))
          CFI (cfiCond155) V3 load(1, XDATA, add(CFA_XSP16, literal(-11)))
          CFI (cfiCond155) V4 load(1, XDATA, add(CFA_XSP16, literal(-10)))
          CFI (cfiCond155) V5 load(1, XDATA, add(CFA_XSP16, literal(-9)))
          CFI (cfiCond155) V6 load(1, XDATA, add(CFA_XSP16, literal(-8)))
          CFI (cfiCond155) V7 load(1, XDATA, add(CFA_XSP16, literal(-7)))
          CFI (cfiCond155) R7 load(1, XDATA, add(CFA_XSP16, literal(-6)))
          CFI (cfiCond155) ?RET_LOW load(1, XDATA, add(CFA_XSP16, literal(-5)))
          CFI (cfiCond155) ?RET_HIGH load(1, XDATA, add(CFA_XSP16, literal(-4)))
          CFI (cfiCond155) ?BRET_EXT load(1, XDATA, add(CFA_XSP16, literal(-3)))
          CFI (cfiCond155) DPL0 load(1, XDATA, add(CFA_XSP16, literal(-2)))
          CFI (cfiCond155) DPH0 load(1, XDATA, add(CFA_XSP16, literal(-1)))
          CFI (cfiCond155) CFA_SP SP+-2
          CFI (cfiCond155) CFA_XSP16 add(XSP16, 23)
          CFI Block cfiCond156 Using cfiCommon0
          CFI (cfiCond156) Function MT_AfDataRetrieve
          CFI (cfiCond156) Conditional ??CrossCallReturnLabel_130
          CFI (cfiCond156) R6 load(1, XDATA, add(CFA_XSP16, literal(-16)))
          CFI (cfiCond156) VB load(1, XDATA, add(CFA_XSP16, literal(-15)))
          CFI (cfiCond156) V0 load(1, XDATA, add(CFA_XSP16, literal(-14)))
          CFI (cfiCond156) V1 load(1, XDATA, add(CFA_XSP16, literal(-13)))
          CFI (cfiCond156) V2 load(1, XDATA, add(CFA_XSP16, literal(-12)))
          CFI (cfiCond156) V3 load(1, XDATA, add(CFA_XSP16, literal(-11)))
          CFI (cfiCond156) V4 load(1, XDATA, add(CFA_XSP16, literal(-10)))
          CFI (cfiCond156) V5 load(1, XDATA, add(CFA_XSP16, literal(-9)))
          CFI (cfiCond156) V6 load(1, XDATA, add(CFA_XSP16, literal(-8)))
          CFI (cfiCond156) V7 load(1, XDATA, add(CFA_XSP16, literal(-7)))
          CFI (cfiCond156) R7 load(1, XDATA, add(CFA_XSP16, literal(-6)))
          CFI (cfiCond156) ?RET_LOW load(1, XDATA, add(CFA_XSP16, literal(-5)))
          CFI (cfiCond156) ?RET_HIGH load(1, XDATA, add(CFA_XSP16, literal(-4)))
          CFI (cfiCond156) ?BRET_EXT load(1, XDATA, add(CFA_XSP16, literal(-3)))
          CFI (cfiCond156) DPL0 load(1, XDATA, add(CFA_XSP16, literal(-2)))
          CFI (cfiCond156) DPH0 load(1, XDATA, add(CFA_XSP16, literal(-1)))
          CFI (cfiCond156) CFA_SP SP+-2
          CFI (cfiCond156) CFA_XSP16 add(XSP16, 21)
          CFI Block cfiCond157 Using cfiCommon0
          CFI (cfiCond157) Function MT_AfExec
          CFI (cfiCond157) Conditional ??CrossCallReturnLabel_131
          CFI (cfiCond157) R6 load(1, XDATA, add(CFA_XSP16, literal(-9)))
          CFI (cfiCond157) VB load(1, XDATA, add(CFA_XSP16, literal(-8)))
          CFI (cfiCond157) V0 load(1, XDATA, add(CFA_XSP16, literal(-7)))
          CFI (cfiCond157) R7 load(1, XDATA, add(CFA_XSP16, literal(-6)))
          CFI (cfiCond157) ?RET_LOW load(1, XDATA, add(CFA_XSP16, literal(-5)))
          CFI (cfiCond157) ?RET_HIGH load(1, XDATA, add(CFA_XSP16, literal(-4)))
          CFI (cfiCond157) ?BRET_EXT load(1, XDATA, add(CFA_XSP16, literal(-3)))
          CFI (cfiCond157) DPL0 load(1, XDATA, add(CFA_XSP16, literal(-2)))
          CFI (cfiCond157) DPH0 load(1, XDATA, add(CFA_XSP16, literal(-1)))
          CFI (cfiCond157) CFA_SP SP+-2
          CFI (cfiCond157) CFA_XSP16 add(XSP16, 9)
          CFI Block cfiCond158 Using cfiCommon0
          CFI (cfiCond158) Function MT_AfDataStore
          CFI (cfiCond158) Conditional ??CrossCallReturnLabel_132
          CFI (cfiCond158) R6 load(1, XDATA, add(CFA_XSP16, literal(-11)))
          CFI (cfiCond158) VB load(1, XDATA, add(CFA_XSP16, literal(-10)))
          CFI (cfiCond158) V0 load(1, XDATA, add(CFA_XSP16, literal(-9)))
          CFI (cfiCond158) V1 load(1, XDATA, add(CFA_XSP16, literal(-8)))
          CFI (cfiCond158) V2 load(1, XDATA, add(CFA_XSP16, literal(-7)))
          CFI (cfiCond158) R7 load(1, XDATA, add(CFA_XSP16, literal(-6)))
          CFI (cfiCond158) ?RET_LOW load(1, XDATA, add(CFA_XSP16, literal(-5)))
          CFI (cfiCond158) ?RET_HIGH load(1, XDATA, add(CFA_XSP16, literal(-4)))
          CFI (cfiCond158) ?BRET_EXT load(1, XDATA, add(CFA_XSP16, literal(-3)))
          CFI (cfiCond158) DPL0 load(1, XDATA, add(CFA_XSP16, literal(-2)))
          CFI (cfiCond158) DPH0 load(1, XDATA, add(CFA_XSP16, literal(-1)))
          CFI (cfiCond158) CFA_SP SP+-2
          CFI (cfiCond158) CFA_XSP16 add(XSP16, 12)
          CFI Block cfiPicker159 Using cfiCommon1
          CFI (cfiPicker159) NoFunction
          CFI (cfiPicker159) Picker
        MOVX    A,@DPTR
        MOV     R2,A
        INC     DPTR
        MOVX    A,@DPTR
        MOV     R3,A
        RET
          CFI EndBlock cfiCond151
          CFI EndBlock cfiCond152
          CFI EndBlock cfiCond153
          CFI EndBlock cfiCond154
          CFI EndBlock cfiCond155
          CFI EndBlock cfiCond156
          CFI EndBlock cfiCond157
          CFI EndBlock cfiCond158
          CFI EndBlock cfiPicker159

        RSEG BANKED_CODE:HUGECODE:NOROOT(0)
?Subroutine7:
          CFI Block cfiCond160 Using cfiCommon0
          CFI Function MT_AfIncomingMsg
          CFI Conditional ??CrossCallReturnLabel_9
          CFI R6 load(1, XDATA, add(CFA_XSP16, literal(-16)))
          CFI VB load(1, XDATA, add(CFA_XSP16, literal(-15)))
          CFI V0 load(1, XDATA, add(CFA_XSP16, literal(-14)))
          CFI V1 load(1, XDATA, add(CFA_XSP16, literal(-13)))
          CFI V2 load(1, XDATA, add(CFA_XSP16, literal(-12)))
          CFI V3 load(1, XDATA, add(CFA_XSP16, literal(-11)))
          CFI V4 load(1, XDATA, add(CFA_XSP16, literal(-10)))
          CFI V5 load(1, XDATA, add(CFA_XSP16, literal(-9)))
          CFI V6 load(1, XDATA, add(CFA_XSP16, literal(-8)))
          CFI V7 load(1, XDATA, add(CFA_XSP16, literal(-7)))
          CFI R7 load(1, XDATA, add(CFA_XSP16, literal(-6)))
          CFI ?RET_LOW load(1, XDATA, add(CFA_XSP16, literal(-5)))
          CFI ?RET_HIGH load(1, XDATA, add(CFA_XSP16, literal(-4)))
          CFI ?BRET_EXT load(1, XDATA, add(CFA_XSP16, literal(-3)))
          CFI DPL0 load(1, XDATA, add(CFA_XSP16, literal(-2)))
          CFI DPH0 load(1, XDATA, add(CFA_XSP16, literal(-1)))
          CFI CFA_SP SP+-2
          CFI CFA_XSP16 add(XSP16, 23)
          CFI Block cfiCond161 Using cfiCommon0
          CFI (cfiCond161) Function MT_AfIncomingMsg
          CFI (cfiCond161) Conditional ??CrossCallReturnLabel_10
          CFI (cfiCond161) R6 load(1, XDATA, add(CFA_XSP16, literal(-16)))
          CFI (cfiCond161) VB load(1, XDATA, add(CFA_XSP16, literal(-15)))
          CFI (cfiCond161) V0 load(1, XDATA, add(CFA_XSP16, literal(-14)))
          CFI (cfiCond161) V1 load(1, XDATA, add(CFA_XSP16, literal(-13)))
          CFI (cfiCond161) V2 load(1, XDATA, add(CFA_XSP16, literal(-12)))
          CFI (cfiCond161) V3 load(1, XDATA, add(CFA_XSP16, literal(-11)))
          CFI (cfiCond161) V4 load(1, XDATA, add(CFA_XSP16, literal(-10)))
          CFI (cfiCond161) V5 load(1, XDATA, add(CFA_XSP16, literal(-9)))
          CFI (cfiCond161) V6 load(1, XDATA, add(CFA_XSP16, literal(-8)))
          CFI (cfiCond161) V7 load(1, XDATA, add(CFA_XSP16, literal(-7)))
          CFI (cfiCond161) R7 load(1, XDATA, add(CFA_XSP16, literal(-6)))
          CFI (cfiCond161) ?RET_LOW load(1, XDATA, add(CFA_XSP16, literal(-5)))
          CFI (cfiCond161) ?RET_HIGH load(1, XDATA, add(CFA_XSP16, literal(-4)))
          CFI (cfiCond161) ?BRET_EXT load(1, XDATA, add(CFA_XSP16, literal(-3)))
          CFI (cfiCond161) DPL0 load(1, XDATA, add(CFA_XSP16, literal(-2)))
          CFI (cfiCond161) DPH0 load(1, XDATA, add(CFA_XSP16, literal(-1)))
          CFI (cfiCond161) CFA_SP SP+-2
          CFI (cfiCond161) CFA_XSP16 add(XSP16, 23)
          CFI Block cfiPicker162 Using cfiCommon1
          CFI (cfiPicker162) NoFunction
          CFI (cfiPicker162) Picker
        MOV     DPL,?XSP + 0
        MOV     DPH,?XSP + 1
        LCALL   ??Subroutine60_0 & 0xFFFF
??CrossCallReturnLabel_158:
        ADD     A,#0x21
        LCALL   ?Subroutine47 & 0xFFFF
??CrossCallReturnLabel_92:
        MOV     ?V0,A
        INC     DPTR
        MOVX    A,@DPTR
        MOV     ?V1,A
        MOV     R0,#?V0
        RET
          CFI EndBlock cfiCond160
          CFI EndBlock cfiCond161
          CFI EndBlock cfiPicker162

        RSEG BANKED_CODE:HUGECODE:NOROOT(0)
?Subroutine5:
          CFI Block cfiCond163 Using cfiCommon0
          CFI Function MT_AfIncomingMsg
          CFI Conditional ??CrossCallReturnLabel_136
          CFI R6 load(1, XDATA, add(CFA_XSP16, literal(-16)))
          CFI VB load(1, XDATA, add(CFA_XSP16, literal(-15)))
          CFI V0 load(1, XDATA, add(CFA_XSP16, literal(-14)))
          CFI V1 load(1, XDATA, add(CFA_XSP16, literal(-13)))
          CFI V2 load(1, XDATA, add(CFA_XSP16, literal(-12)))
          CFI V3 load(1, XDATA, add(CFA_XSP16, literal(-11)))
          CFI V4 load(1, XDATA, add(CFA_XSP16, literal(-10)))
          CFI V5 load(1, XDATA, add(CFA_XSP16, literal(-9)))
          CFI V6 load(1, XDATA, add(CFA_XSP16, literal(-8)))
          CFI V7 load(1, XDATA, add(CFA_XSP16, literal(-7)))
          CFI R7 load(1, XDATA, add(CFA_XSP16, literal(-6)))
          CFI ?RET_LOW load(1, XDATA, add(CFA_XSP16, literal(-5)))
          CFI ?RET_HIGH load(1, XDATA, add(CFA_XSP16, literal(-4)))
          CFI ?BRET_EXT load(1, XDATA, add(CFA_XSP16, literal(-3)))
          CFI DPL0 load(1, XDATA, add(CFA_XSP16, literal(-2)))
          CFI DPH0 load(1, XDATA, add(CFA_XSP16, literal(-1)))
          CFI CFA_SP SP+-2
          CFI CFA_XSP16 add(XSP16, 23)
          CFI Block cfiCond164 Using cfiCommon0
          CFI (cfiCond164) Function MT_AfIncomingMsg
          CFI (cfiCond164) Conditional ??CrossCallReturnLabel_137
          CFI (cfiCond164) R6 load(1, XDATA, add(CFA_XSP16, literal(-16)))
          CFI (cfiCond164) VB load(1, XDATA, add(CFA_XSP16, literal(-15)))
          CFI (cfiCond164) V0 load(1, XDATA, add(CFA_XSP16, literal(-14)))
          CFI (cfiCond164) V1 load(1, XDATA, add(CFA_XSP16, literal(-13)))
          CFI (cfiCond164) V2 load(1, XDATA, add(CFA_XSP16, literal(-12)))
          CFI (cfiCond164) V3 load(1, XDATA, add(CFA_XSP16, literal(-11)))
          CFI (cfiCond164) V4 load(1, XDATA, add(CFA_XSP16, literal(-10)))
          CFI (cfiCond164) V5 load(1, XDATA, add(CFA_XSP16, literal(-9)))
          CFI (cfiCond164) V6 load(1, XDATA, add(CFA_XSP16, literal(-8)))
          CFI (cfiCond164) V7 load(1, XDATA, add(CFA_XSP16, literal(-7)))
          CFI (cfiCond164) R7 load(1, XDATA, add(CFA_XSP16, literal(-6)))
          CFI (cfiCond164) ?RET_LOW load(1, XDATA, add(CFA_XSP16, literal(-5)))
          CFI (cfiCond164) ?RET_HIGH load(1, XDATA, add(CFA_XSP16, literal(-4)))
          CFI (cfiCond164) ?BRET_EXT load(1, XDATA, add(CFA_XSP16, literal(-3)))
          CFI (cfiCond164) DPL0 load(1, XDATA, add(CFA_XSP16, literal(-2)))
          CFI (cfiCond164) DPH0 load(1, XDATA, add(CFA_XSP16, literal(-1)))
          CFI (cfiCond164) CFA_SP SP+-2
          CFI (cfiCond164) CFA_XSP16 add(XSP16, 23)
          CFI Block cfiPicker165 Using cfiCommon1
          CFI (cfiPicker165) NoFunction
          CFI (cfiPicker165) Picker
        MOVX    A,@DPTR
        ADD     A,#0x6
          CFI EndBlock cfiCond163
          CFI EndBlock cfiCond164
          CFI EndBlock cfiPicker165
        REQUIRE ??Subroutine57_0
        ; // Fall through to label ??Subroutine57_0

        RSEG BANKED_CODE:HUGECODE:NOROOT(0)
??Subroutine57_0:
          CFI Block cfiCond166 Using cfiCommon0
          CFI Function MT_AfIncomingMsg
          CFI Conditional ??CrossCallReturnLabel_133
          CFI R6 load(1, XDATA, add(CFA_XSP16, literal(-16)))
          CFI VB load(1, XDATA, add(CFA_XSP16, literal(-15)))
          CFI V0 load(1, XDATA, add(CFA_XSP16, literal(-14)))
          CFI V1 load(1, XDATA, add(CFA_XSP16, literal(-13)))
          CFI V2 load(1, XDATA, add(CFA_XSP16, literal(-12)))
          CFI V3 load(1, XDATA, add(CFA_XSP16, literal(-11)))
          CFI V4 load(1, XDATA, add(CFA_XSP16, literal(-10)))
          CFI V5 load(1, XDATA, add(CFA_XSP16, literal(-9)))
          CFI V6 load(1, XDATA, add(CFA_XSP16, literal(-8)))
          CFI V7 load(1, XDATA, add(CFA_XSP16, literal(-7)))
          CFI R7 load(1, XDATA, add(CFA_XSP16, literal(-6)))
          CFI ?RET_LOW load(1, XDATA, add(CFA_XSP16, literal(-5)))
          CFI ?RET_HIGH load(1, XDATA, add(CFA_XSP16, literal(-4)))
          CFI ?BRET_EXT load(1, XDATA, add(CFA_XSP16, literal(-3)))
          CFI DPL0 load(1, XDATA, add(CFA_XSP16, literal(-2)))
          CFI DPH0 load(1, XDATA, add(CFA_XSP16, literal(-1)))
          CFI CFA_SP SP+-2
          CFI CFA_XSP16 add(XSP16, 23)
          CFI Block cfiCond167 Using cfiCommon0
          CFI (cfiCond167) Function MT_AfIncomingMsg
          CFI (cfiCond167) Conditional ??CrossCallReturnLabel_134
          CFI (cfiCond167) R6 load(1, XDATA, add(CFA_XSP16, literal(-16)))
          CFI (cfiCond167) VB load(1, XDATA, add(CFA_XSP16, literal(-15)))
          CFI (cfiCond167) V0 load(1, XDATA, add(CFA_XSP16, literal(-14)))
          CFI (cfiCond167) V1 load(1, XDATA, add(CFA_XSP16, literal(-13)))
          CFI (cfiCond167) V2 load(1, XDATA, add(CFA_XSP16, literal(-12)))
          CFI (cfiCond167) V3 load(1, XDATA, add(CFA_XSP16, literal(-11)))
          CFI (cfiCond167) V4 load(1, XDATA, add(CFA_XSP16, literal(-10)))
          CFI (cfiCond167) V5 load(1, XDATA, add(CFA_XSP16, literal(-9)))
          CFI (cfiCond167) V6 load(1, XDATA, add(CFA_XSP16, literal(-8)))
          CFI (cfiCond167) V7 load(1, XDATA, add(CFA_XSP16, literal(-7)))
          CFI (cfiCond167) R7 load(1, XDATA, add(CFA_XSP16, literal(-6)))
          CFI (cfiCond167) ?RET_LOW load(1, XDATA, add(CFA_XSP16, literal(-5)))
          CFI (cfiCond167) ?RET_HIGH load(1, XDATA, add(CFA_XSP16, literal(-4)))
          CFI (cfiCond167) ?BRET_EXT load(1, XDATA, add(CFA_XSP16, literal(-3)))
          CFI (cfiCond167) DPL0 load(1, XDATA, add(CFA_XSP16, literal(-2)))
          CFI (cfiCond167) DPH0 load(1, XDATA, add(CFA_XSP16, literal(-1)))
          CFI (cfiCond167) CFA_SP SP+-2
          CFI (cfiCond167) CFA_XSP16 add(XSP16, 23)
          CFI Block cfiCond168 Using cfiCommon0
          CFI (cfiCond168) Function MT_AfIncomingMsg
          CFI (cfiCond168) Conditional ??CrossCallReturnLabel_135
          CFI (cfiCond168) R6 load(1, XDATA, add(CFA_XSP16, literal(-16)))
          CFI (cfiCond168) VB load(1, XDATA, add(CFA_XSP16, literal(-15)))
          CFI (cfiCond168) V0 load(1, XDATA, add(CFA_XSP16, literal(-14)))
          CFI (cfiCond168) V1 load(1, XDATA, add(CFA_XSP16, literal(-13)))
          CFI (cfiCond168) V2 load(1, XDATA, add(CFA_XSP16, literal(-12)))
          CFI (cfiCond168) V3 load(1, XDATA, add(CFA_XSP16, literal(-11)))
          CFI (cfiCond168) V4 load(1, XDATA, add(CFA_XSP16, literal(-10)))
          CFI (cfiCond168) V5 load(1, XDATA, add(CFA_XSP16, literal(-9)))
          CFI (cfiCond168) V6 load(1, XDATA, add(CFA_XSP16, literal(-8)))
          CFI (cfiCond168) V7 load(1, XDATA, add(CFA_XSP16, literal(-7)))
          CFI (cfiCond168) R7 load(1, XDATA, add(CFA_XSP16, literal(-6)))
          CFI (cfiCond168) ?RET_LOW load(1, XDATA, add(CFA_XSP16, literal(-5)))
          CFI (cfiCond168) ?RET_HIGH load(1, XDATA, add(CFA_XSP16, literal(-4)))
          CFI (cfiCond168) ?BRET_EXT load(1, XDATA, add(CFA_XSP16, literal(-3)))
          CFI (cfiCond168) DPL0 load(1, XDATA, add(CFA_XSP16, literal(-2)))
          CFI (cfiCond168) DPH0 load(1, XDATA, add(CFA_XSP16, literal(-1)))
          CFI (cfiCond168) CFA_SP SP+-2
          CFI (cfiCond168) CFA_XSP16 add(XSP16, 23)
          CFI Block cfiCond169 Using cfiCommon0
          CFI (cfiCond169) Function MT_AfIncomingMsg
          CFI (cfiCond169) Conditional ??CrossCallReturnLabel_136
          CFI (cfiCond169) R6 load(1, XDATA, add(CFA_XSP16, literal(-16)))
          CFI (cfiCond169) VB load(1, XDATA, add(CFA_XSP16, literal(-15)))
          CFI (cfiCond169) V0 load(1, XDATA, add(CFA_XSP16, literal(-14)))
          CFI (cfiCond169) V1 load(1, XDATA, add(CFA_XSP16, literal(-13)))
          CFI (cfiCond169) V2 load(1, XDATA, add(CFA_XSP16, literal(-12)))
          CFI (cfiCond169) V3 load(1, XDATA, add(CFA_XSP16, literal(-11)))
          CFI (cfiCond169) V4 load(1, XDATA, add(CFA_XSP16, literal(-10)))
          CFI (cfiCond169) V5 load(1, XDATA, add(CFA_XSP16, literal(-9)))
          CFI (cfiCond169) V6 load(1, XDATA, add(CFA_XSP16, literal(-8)))
          CFI (cfiCond169) V7 load(1, XDATA, add(CFA_XSP16, literal(-7)))
          CFI (cfiCond169) R7 load(1, XDATA, add(CFA_XSP16, literal(-6)))
          CFI (cfiCond169) ?RET_LOW load(1, XDATA, add(CFA_XSP16, literal(-5)))
          CFI (cfiCond169) ?RET_HIGH load(1, XDATA, add(CFA_XSP16, literal(-4)))
          CFI (cfiCond169) ?BRET_EXT load(1, XDATA, add(CFA_XSP16, literal(-3)))
          CFI (cfiCond169) DPL0 load(1, XDATA, add(CFA_XSP16, literal(-2)))
          CFI (cfiCond169) DPH0 load(1, XDATA, add(CFA_XSP16, literal(-1)))
          CFI (cfiCond169) CFA_SP SP+-2
          CFI (cfiCond169) CFA_XSP16 add(XSP16, 23)
          CFI Block cfiCond170 Using cfiCommon0
          CFI (cfiCond170) Function MT_AfIncomingMsg
          CFI (cfiCond170) Conditional ??CrossCallReturnLabel_137
          CFI (cfiCond170) R6 load(1, XDATA, add(CFA_XSP16, literal(-16)))
          CFI (cfiCond170) VB load(1, XDATA, add(CFA_XSP16, literal(-15)))
          CFI (cfiCond170) V0 load(1, XDATA, add(CFA_XSP16, literal(-14)))
          CFI (cfiCond170) V1 load(1, XDATA, add(CFA_XSP16, literal(-13)))
          CFI (cfiCond170) V2 load(1, XDATA, add(CFA_XSP16, literal(-12)))
          CFI (cfiCond170) V3 load(1, XDATA, add(CFA_XSP16, literal(-11)))
          CFI (cfiCond170) V4 load(1, XDATA, add(CFA_XSP16, literal(-10)))
          CFI (cfiCond170) V5 load(1, XDATA, add(CFA_XSP16, literal(-9)))
          CFI (cfiCond170) V6 load(1, XDATA, add(CFA_XSP16, literal(-8)))
          CFI (cfiCond170) V7 load(1, XDATA, add(CFA_XSP16, literal(-7)))
          CFI (cfiCond170) R7 load(1, XDATA, add(CFA_XSP16, literal(-6)))
          CFI (cfiCond170) ?RET_LOW load(1, XDATA, add(CFA_XSP16, literal(-5)))
          CFI (cfiCond170) ?RET_HIGH load(1, XDATA, add(CFA_XSP16, literal(-4)))
          CFI (cfiCond170) ?BRET_EXT load(1, XDATA, add(CFA_XSP16, literal(-3)))
          CFI (cfiCond170) DPL0 load(1, XDATA, add(CFA_XSP16, literal(-2)))
          CFI (cfiCond170) DPH0 load(1, XDATA, add(CFA_XSP16, literal(-1)))
          CFI (cfiCond170) CFA_SP SP+-2
          CFI (cfiCond170) CFA_XSP16 add(XSP16, 23)
          CFI Block cfiPicker171 Using cfiCommon1
          CFI (cfiPicker171) NoFunction
          CFI (cfiPicker171) Picker
        MOV     R0,A
        INC     DPTR
        MOVX    A,@DPTR
        ADDC    A,#0x0
        MOV     R1,A
        MOV     DPL,R0
        MOV     DPH,R1
        MOVX    A,@DPTR
        RET
          CFI EndBlock cfiCond166
          CFI EndBlock cfiCond167
          CFI EndBlock cfiCond168
          CFI EndBlock cfiCond169
          CFI EndBlock cfiCond170
          CFI EndBlock cfiPicker171

        RSEG BANKED_CODE:HUGECODE:NOROOT(0)
?Subroutine3:
          CFI Block cfiCond172 Using cfiCommon0
          CFI Function MT_AfIncomingMsg
          CFI Conditional ??CrossCallReturnLabel_0
          CFI R6 load(1, XDATA, add(CFA_XSP16, literal(-16)))
          CFI VB load(1, XDATA, add(CFA_XSP16, literal(-15)))
          CFI V0 load(1, XDATA, add(CFA_XSP16, literal(-14)))
          CFI V1 load(1, XDATA, add(CFA_XSP16, literal(-13)))
          CFI V2 load(1, XDATA, add(CFA_XSP16, literal(-12)))
          CFI V3 load(1, XDATA, add(CFA_XSP16, literal(-11)))
          CFI V4 load(1, XDATA, add(CFA_XSP16, literal(-10)))
          CFI V5 load(1, XDATA, add(CFA_XSP16, literal(-9)))
          CFI V6 load(1, XDATA, add(CFA_XSP16, literal(-8)))
          CFI V7 load(1, XDATA, add(CFA_XSP16, literal(-7)))
          CFI R7 load(1, XDATA, add(CFA_XSP16, literal(-6)))
          CFI ?RET_LOW load(1, XDATA, add(CFA_XSP16, literal(-5)))
          CFI ?RET_HIGH load(1, XDATA, add(CFA_XSP16, literal(-4)))
          CFI ?BRET_EXT load(1, XDATA, add(CFA_XSP16, literal(-3)))
          CFI DPL0 load(1, XDATA, add(CFA_XSP16, literal(-2)))
          CFI DPH0 load(1, XDATA, add(CFA_XSP16, literal(-1)))
          CFI CFA_SP SP+-2
          CFI CFA_XSP16 add(XSP16, 23)
          CFI Block cfiCond173 Using cfiCommon0
          CFI (cfiCond173) Function MT_AfIncomingMsg
          CFI (cfiCond173) Conditional ??CrossCallReturnLabel_1
          CFI (cfiCond173) R6 load(1, XDATA, add(CFA_XSP16, literal(-16)))
          CFI (cfiCond173) VB load(1, XDATA, add(CFA_XSP16, literal(-15)))
          CFI (cfiCond173) V0 load(1, XDATA, add(CFA_XSP16, literal(-14)))
          CFI (cfiCond173) V1 load(1, XDATA, add(CFA_XSP16, literal(-13)))
          CFI (cfiCond173) V2 load(1, XDATA, add(CFA_XSP16, literal(-12)))
          CFI (cfiCond173) V3 load(1, XDATA, add(CFA_XSP16, literal(-11)))
          CFI (cfiCond173) V4 load(1, XDATA, add(CFA_XSP16, literal(-10)))
          CFI (cfiCond173) V5 load(1, XDATA, add(CFA_XSP16, literal(-9)))
          CFI (cfiCond173) V6 load(1, XDATA, add(CFA_XSP16, literal(-8)))
          CFI (cfiCond173) V7 load(1, XDATA, add(CFA_XSP16, literal(-7)))
          CFI (cfiCond173) R7 load(1, XDATA, add(CFA_XSP16, literal(-6)))
          CFI (cfiCond173) ?RET_LOW load(1, XDATA, add(CFA_XSP16, literal(-5)))
          CFI (cfiCond173) ?RET_HIGH load(1, XDATA, add(CFA_XSP16, literal(-4)))
          CFI (cfiCond173) ?BRET_EXT load(1, XDATA, add(CFA_XSP16, literal(-3)))
          CFI (cfiCond173) DPL0 load(1, XDATA, add(CFA_XSP16, literal(-2)))
          CFI (cfiCond173) DPH0 load(1, XDATA, add(CFA_XSP16, literal(-1)))
          CFI (cfiCond173) CFA_SP SP+-2
          CFI (cfiCond173) CFA_XSP16 add(XSP16, 23)
          CFI Block cfiPicker174 Using cfiCommon1
          CFI (cfiPicker174) NoFunction
          CFI (cfiPicker174) Picker
        MOV     DPL,A
        CLR     A
        ADDC    A,R0
        MOV     DPH,A
        LCALL   ?Subroutine44 & 0xFFFF
??CrossCallReturnLabel_80:
        INC     DPTR
        INC     DPTR
        INC     DPTR
        INC     DPTR
        INC     DPTR
        INC     DPTR
        LCALL   ?Subroutine45 & 0xFFFF
??CrossCallReturnLabel_84:
        RET
          CFI EndBlock cfiCond172
          CFI EndBlock cfiCond173
          CFI EndBlock cfiPicker174

        RSEG BANKED_CODE:HUGECODE:NOROOT(0)
?Subroutine45:
          CFI Block cfiCond175 Using cfiCommon0
          CFI Function MT_AfIncomingMsg
          CFI Conditional ??CrossCallReturnLabel_82
          CFI R6 load(1, XDATA, add(CFA_XSP16, literal(-16)))
          CFI VB load(1, XDATA, add(CFA_XSP16, literal(-15)))
          CFI V0 load(1, XDATA, add(CFA_XSP16, literal(-14)))
          CFI V1 load(1, XDATA, add(CFA_XSP16, literal(-13)))
          CFI V2 load(1, XDATA, add(CFA_XSP16, literal(-12)))
          CFI V3 load(1, XDATA, add(CFA_XSP16, literal(-11)))
          CFI V4 load(1, XDATA, add(CFA_XSP16, literal(-10)))
          CFI V5 load(1, XDATA, add(CFA_XSP16, literal(-9)))
          CFI V6 load(1, XDATA, add(CFA_XSP16, literal(-8)))
          CFI V7 load(1, XDATA, add(CFA_XSP16, literal(-7)))
          CFI R7 load(1, XDATA, add(CFA_XSP16, literal(-6)))
          CFI ?RET_LOW load(1, XDATA, add(CFA_XSP16, literal(-5)))
          CFI ?RET_HIGH load(1, XDATA, add(CFA_XSP16, literal(-4)))
          CFI ?BRET_EXT load(1, XDATA, add(CFA_XSP16, literal(-3)))
          CFI DPL0 load(1, XDATA, add(CFA_XSP16, literal(-2)))
          CFI DPH0 load(1, XDATA, add(CFA_XSP16, literal(-1)))
          CFI CFA_SP SP+-2
          CFI CFA_XSP16 add(XSP16, 23)
          CFI Block cfiCond176 Using cfiCommon0
          CFI (cfiCond176) Function MT_AfIncomingMsg
          CFI (cfiCond176) Conditional ??CrossCallReturnLabel_83, ??CrossCallReturnLabel_49
          CFI (cfiCond176) R6 load(1, XDATA, add(CFA_XSP16, literal(-16)))
          CFI (cfiCond176) VB load(1, XDATA, add(CFA_XSP16, literal(-15)))
          CFI (cfiCond176) V0 load(1, XDATA, add(CFA_XSP16, literal(-14)))
          CFI (cfiCond176) V1 load(1, XDATA, add(CFA_XSP16, literal(-13)))
          CFI (cfiCond176) V2 load(1, XDATA, add(CFA_XSP16, literal(-12)))
          CFI (cfiCond176) V3 load(1, XDATA, add(CFA_XSP16, literal(-11)))
          CFI (cfiCond176) V4 load(1, XDATA, add(CFA_XSP16, literal(-10)))
          CFI (cfiCond176) V5 load(1, XDATA, add(CFA_XSP16, literal(-9)))
          CFI (cfiCond176) V6 load(1, XDATA, add(CFA_XSP16, literal(-8)))
          CFI (cfiCond176) V7 load(1, XDATA, add(CFA_XSP16, literal(-7)))
          CFI (cfiCond176) R7 load(1, XDATA, add(CFA_XSP16, literal(-6)))
          CFI (cfiCond176) ?RET_LOW load(1, XDATA, add(CFA_XSP16, literal(-5)))
          CFI (cfiCond176) ?RET_HIGH load(1, XDATA, add(CFA_XSP16, literal(-4)))
          CFI (cfiCond176) ?BRET_EXT load(1, XDATA, add(CFA_XSP16, literal(-3)))
          CFI (cfiCond176) DPL0 load(1, XDATA, add(CFA_XSP16, literal(-2)))
          CFI (cfiCond176) DPH0 load(1, XDATA, add(CFA_XSP16, literal(-1)))
          CFI (cfiCond176) CFA_SP SP+-4
          CFI (cfiCond176) CFA_XSP16 add(XSP16, 23)
          CFI Block cfiCond177 Using cfiCommon0
          CFI (cfiCond177) Function MT_AfIncomingMsg
          CFI (cfiCond177) Conditional ??CrossCallReturnLabel_83, ??CrossCallReturnLabel_50
          CFI (cfiCond177) R6 load(1, XDATA, add(CFA_XSP16, literal(-16)))
          CFI (cfiCond177) VB load(1, XDATA, add(CFA_XSP16, literal(-15)))
          CFI (cfiCond177) V0 load(1, XDATA, add(CFA_XSP16, literal(-14)))
          CFI (cfiCond177) V1 load(1, XDATA, add(CFA_XSP16, literal(-13)))
          CFI (cfiCond177) V2 load(1, XDATA, add(CFA_XSP16, literal(-12)))
          CFI (cfiCond177) V3 load(1, XDATA, add(CFA_XSP16, literal(-11)))
          CFI (cfiCond177) V4 load(1, XDATA, add(CFA_XSP16, literal(-10)))
          CFI (cfiCond177) V5 load(1, XDATA, add(CFA_XSP16, literal(-9)))
          CFI (cfiCond177) V6 load(1, XDATA, add(CFA_XSP16, literal(-8)))
          CFI (cfiCond177) V7 load(1, XDATA, add(CFA_XSP16, literal(-7)))
          CFI (cfiCond177) R7 load(1, XDATA, add(CFA_XSP16, literal(-6)))
          CFI (cfiCond177) ?RET_LOW load(1, XDATA, add(CFA_XSP16, literal(-5)))
          CFI (cfiCond177) ?RET_HIGH load(1, XDATA, add(CFA_XSP16, literal(-4)))
          CFI (cfiCond177) ?BRET_EXT load(1, XDATA, add(CFA_XSP16, literal(-3)))
          CFI (cfiCond177) DPL0 load(1, XDATA, add(CFA_XSP16, literal(-2)))
          CFI (cfiCond177) DPH0 load(1, XDATA, add(CFA_XSP16, literal(-1)))
          CFI (cfiCond177) CFA_SP SP+-4
          CFI (cfiCond177) CFA_XSP16 add(XSP16, 23)
          CFI Block cfiCond178 Using cfiCommon0
          CFI (cfiCond178) Function MT_AfIncomingMsg
          CFI (cfiCond178) Conditional ??CrossCallReturnLabel_84, ??CrossCallReturnLabel_0
          CFI (cfiCond178) R6 load(1, XDATA, add(CFA_XSP16, literal(-16)))
          CFI (cfiCond178) VB load(1, XDATA, add(CFA_XSP16, literal(-15)))
          CFI (cfiCond178) V0 load(1, XDATA, add(CFA_XSP16, literal(-14)))
          CFI (cfiCond178) V1 load(1, XDATA, add(CFA_XSP16, literal(-13)))
          CFI (cfiCond178) V2 load(1, XDATA, add(CFA_XSP16, literal(-12)))
          CFI (cfiCond178) V3 load(1, XDATA, add(CFA_XSP16, literal(-11)))
          CFI (cfiCond178) V4 load(1, XDATA, add(CFA_XSP16, literal(-10)))
          CFI (cfiCond178) V5 load(1, XDATA, add(CFA_XSP16, literal(-9)))
          CFI (cfiCond178) V6 load(1, XDATA, add(CFA_XSP16, literal(-8)))
          CFI (cfiCond178) V7 load(1, XDATA, add(CFA_XSP16, literal(-7)))
          CFI (cfiCond178) R7 load(1, XDATA, add(CFA_XSP16, literal(-6)))
          CFI (cfiCond178) ?RET_LOW load(1, XDATA, add(CFA_XSP16, literal(-5)))
          CFI (cfiCond178) ?RET_HIGH load(1, XDATA, add(CFA_XSP16, literal(-4)))
          CFI (cfiCond178) ?BRET_EXT load(1, XDATA, add(CFA_XSP16, literal(-3)))
          CFI (cfiCond178) DPL0 load(1, XDATA, add(CFA_XSP16, literal(-2)))
          CFI (cfiCond178) DPH0 load(1, XDATA, add(CFA_XSP16, literal(-1)))
          CFI (cfiCond178) CFA_SP SP+-4
          CFI (cfiCond178) CFA_XSP16 add(XSP16, 23)
          CFI Block cfiCond179 Using cfiCommon0
          CFI (cfiCond179) Function MT_AfIncomingMsg
          CFI (cfiCond179) Conditional ??CrossCallReturnLabel_84, ??CrossCallReturnLabel_1
          CFI (cfiCond179) R6 load(1, XDATA, add(CFA_XSP16, literal(-16)))
          CFI (cfiCond179) VB load(1, XDATA, add(CFA_XSP16, literal(-15)))
          CFI (cfiCond179) V0 load(1, XDATA, add(CFA_XSP16, literal(-14)))
          CFI (cfiCond179) V1 load(1, XDATA, add(CFA_XSP16, literal(-13)))
          CFI (cfiCond179) V2 load(1, XDATA, add(CFA_XSP16, literal(-12)))
          CFI (cfiCond179) V3 load(1, XDATA, add(CFA_XSP16, literal(-11)))
          CFI (cfiCond179) V4 load(1, XDATA, add(CFA_XSP16, literal(-10)))
          CFI (cfiCond179) V5 load(1, XDATA, add(CFA_XSP16, literal(-9)))
          CFI (cfiCond179) V6 load(1, XDATA, add(CFA_XSP16, literal(-8)))
          CFI (cfiCond179) V7 load(1, XDATA, add(CFA_XSP16, literal(-7)))
          CFI (cfiCond179) R7 load(1, XDATA, add(CFA_XSP16, literal(-6)))
          CFI (cfiCond179) ?RET_LOW load(1, XDATA, add(CFA_XSP16, literal(-5)))
          CFI (cfiCond179) ?RET_HIGH load(1, XDATA, add(CFA_XSP16, literal(-4)))
          CFI (cfiCond179) ?BRET_EXT load(1, XDATA, add(CFA_XSP16, literal(-3)))
          CFI (cfiCond179) DPL0 load(1, XDATA, add(CFA_XSP16, literal(-2)))
          CFI (cfiCond179) DPH0 load(1, XDATA, add(CFA_XSP16, literal(-1)))
          CFI (cfiCond179) CFA_SP SP+-4
          CFI (cfiCond179) CFA_XSP16 add(XSP16, 23)
          CFI Block cfiPicker180 Using cfiCommon1
          CFI (cfiPicker180) NoFunction
          CFI (cfiPicker180) Picker
        MOVX    @DPTR,A
        MOV     DPL,?V4
        MOV     DPH,?V5
        INC     DPTR
        INC     DPTR
        INC     DPTR
        INC     DPTR
        INC     DPTR
        INC     DPTR
        INC     DPTR
        INC     DPTR
        INC     DPTR
        RET
          CFI EndBlock cfiCond175
          CFI EndBlock cfiCond176
          CFI EndBlock cfiCond177
          CFI EndBlock cfiCond178
          CFI EndBlock cfiCond179
          CFI EndBlock cfiPicker180
//  774 
//  775 /**************************************************************************************************
//  776  * @fn          MT_AfDataRetrieve
//  777  *
//  778  * @brief   Process AF Data Retrieve command to incrementally read out a very large
//  779  *          incoming AF message.
//  780  *
//  781  * input parameters
//  782  *
//  783  * @param pBuf - pointer to the received buffer
//  784  *
//  785  * output parameters
//  786  *
//  787  * @param rtrn - AF-Status of the operation.
//  788  *
//  789  * @return      None.
//  790  **************************************************************************************************
//  791  */

        RSEG BANKED_CODE:HUGECODE:NOROOT(0)
//  792 void MT_AfDataRetrieve(uint8 *pBuf)
MT_AfDataRetrieve:
          CFI Block cfiBlock181 Using cfiCommon0
          CFI Function MT_AfDataRetrieve
        CODE
//  793 {
        FUNCALL MT_AfDataRetrieve, osal_mem_free
        LOCFRAME ISTACK, 0, STACK
        LOCFRAME PSTACK, 0, STACK
        LOCFRAME XSTACK, 21, STACK
        LOCFRAME IOVERLAY, 0, STATIC
        LOCFRAME DOVERLAY, 0, STATIC
        ARGFRAME ISTACK, 0, STACK
        ARGFRAME PSTACK, 0, STACK
        ARGFRAME XSTACK, 21, STACK
        ARGFRAME IOVERLAY, 0, STATIC
        ARGFRAME DOVERLAY, 0, STATIC
        FUNCALL MT_AfDataRetrieve, MT_BuildAndSendZToolResponse
        LOCFRAME ISTACK, 0, STACK
        LOCFRAME PSTACK, 0, STACK
        LOCFRAME XSTACK, 21, STACK
        LOCFRAME IOVERLAY, 0, STATIC
        LOCFRAME DOVERLAY, 0, STATIC
        ARGFRAME ISTACK, 0, STACK
        ARGFRAME PSTACK, 0, STACK
        ARGFRAME XSTACK, 21, STACK
        ARGFRAME IOVERLAY, 0, STATIC
        ARGFRAME DOVERLAY, 0, STATIC
        FUNCALL MT_AfDataRetrieve, osal_mem_alloc
        LOCFRAME ISTACK, 0, STACK
        LOCFRAME PSTACK, 0, STACK
        LOCFRAME XSTACK, 21, STACK
        LOCFRAME IOVERLAY, 0, STATIC
        LOCFRAME DOVERLAY, 0, STATIC
        ARGFRAME ISTACK, 0, STACK
        ARGFRAME PSTACK, 0, STACK
        ARGFRAME XSTACK, 21, STACK
        ARGFRAME IOVERLAY, 0, STATIC
        ARGFRAME DOVERLAY, 0, STATIC
        FUNCALL MT_AfDataRetrieve, osal_memcpy
        LOCFRAME ISTACK, 0, STACK
        LOCFRAME PSTACK, 0, STACK
        LOCFRAME XSTACK, 24, STACK
        LOCFRAME IOVERLAY, 0, STATIC
        LOCFRAME DOVERLAY, 0, STATIC
        ARGFRAME ISTACK, 0, STACK
        ARGFRAME PSTACK, 0, STACK
        ARGFRAME XSTACK, 24, STACK
        ARGFRAME IOVERLAY, 0, STATIC
        ARGFRAME DOVERLAY, 0, STATIC
        FUNCALL MT_AfDataRetrieve, MT_BuildAndSendZToolResponse
        LOCFRAME ISTACK, 0, STACK
        LOCFRAME PSTACK, 0, STACK
        LOCFRAME XSTACK, 21, STACK
        LOCFRAME IOVERLAY, 0, STATIC
        LOCFRAME DOVERLAY, 0, STATIC
        ARGFRAME ISTACK, 0, STACK
        ARGFRAME PSTACK, 0, STACK
        ARGFRAME XSTACK, 21, STACK
        ARGFRAME IOVERLAY, 0, STATIC
        ARGFRAME DOVERLAY, 0, STATIC
        FUNCALL MT_AfDataRetrieve, osal_mem_free
        LOCFRAME ISTACK, 0, STACK
        LOCFRAME PSTACK, 0, STACK
        LOCFRAME XSTACK, 21, STACK
        LOCFRAME IOVERLAY, 0, STATIC
        LOCFRAME DOVERLAY, 0, STATIC
        ARGFRAME ISTACK, 0, STACK
        ARGFRAME PSTACK, 0, STACK
        ARGFRAME XSTACK, 21, STACK
        ARGFRAME IOVERLAY, 0, STATIC
        ARGFRAME DOVERLAY, 0, STATIC
        REQUIRE ?V0
        REQUIRE ?V1
        REQUIRE ?V2
        REQUIRE ?V3
        REQUIRE ?V4
        REQUIRE ?V5
        REQUIRE ?V6
        REQUIRE ?V7
        MOV     A,#-0x10
        LCALL   ?BANKED_ENTER_XDATA
          CFI DPH0 load(1, XDATA, add(CFA_XSP16, literal(-1)))
          CFI DPL0 load(1, XDATA, add(CFA_XSP16, literal(-2)))
          CFI ?BRET_EXT load(1, XDATA, add(CFA_XSP16, literal(-3)))
          CFI ?RET_HIGH load(1, XDATA, add(CFA_XSP16, literal(-4)))
          CFI ?RET_LOW load(1, XDATA, add(CFA_XSP16, literal(-5)))
          CFI R7 load(1, XDATA, add(CFA_XSP16, literal(-6)))
          CFI V7 load(1, XDATA, add(CFA_XSP16, literal(-7)))
          CFI V6 load(1, XDATA, add(CFA_XSP16, literal(-8)))
          CFI V5 load(1, XDATA, add(CFA_XSP16, literal(-9)))
          CFI V4 load(1, XDATA, add(CFA_XSP16, literal(-10)))
          CFI V3 load(1, XDATA, add(CFA_XSP16, literal(-11)))
          CFI V2 load(1, XDATA, add(CFA_XSP16, literal(-12)))
          CFI V1 load(1, XDATA, add(CFA_XSP16, literal(-13)))
          CFI V0 load(1, XDATA, add(CFA_XSP16, literal(-14)))
          CFI VB load(1, XDATA, add(CFA_XSP16, literal(-15)))
          CFI R6 load(1, XDATA, add(CFA_XSP16, literal(-16)))
          CFI CFA_SP SP+0
          CFI CFA_XSP16 add(XSP16, 16)
        ; Saved register size: 16
        ; Auto size: 5
        MOV     A,#-0x5
        LCALL   ?ALLOC_XSTACK8
          CFI CFA_XSP16 add(XSP16, 21)
        MOV     A,#0x1
        LCALL   ?XSTACK_DISP0_8
        MOV     A,R2
        MOVX    @DPTR,A
        INC     DPTR
        MOV     A,R3
        MOVX    @DPTR,A
//  794   #define MT_AF_RTV_HDR_SZ  2
//  795 
//  796   uint32 timestamp;
//  797   mtAfInMsgList_t *pPrev, *pItem = pMtAfInMsgList;
        LCALL   ?Subroutine22 & 0xFFFF
??CrossCallReturnLabel_108:
        MOV     A,#0x3
        LCALL   ?XSTACK_DISP0_8
        LCALL   ?Subroutine34 & 0xFFFF
//  798   uint8 rtrn = afStatus_FAILED;
??CrossCallReturnLabel_65:
        MOV     R2,#0x1
//  799   uint8 len = 0;
        MOV     DPL,?XSP + 0
        MOV     DPH,?XSP + 1
        CLR     A
        MOVX    @DPTR,A
//  800 
//  801   pBuf += MT_RPC_FRAME_HDR_SZ;
        INC     A
        LCALL   ?XSTACK_DISP0_8
        MOVX    A,@DPTR
        ADD     A,#0x3
        MOV     R0,A
        INC     DPTR
        MOVX    A,@DPTR
        ADDC    A,#0x0
        MOV     R1,A
        MOV     A,R2
        LCALL   ?XSTACK_DISP0_8
        LCALL   ?Subroutine34 & 0xFFFF
//  802   timestamp = BUILD_UINT32(pBuf[0], pBuf[1], pBuf[2], pBuf[3]);
??CrossCallReturnLabel_66:
        MOV     A,R2
        LCALL   ?XSTACK_DISP0_8
        LCALL   ?Subroutine10 & 0xFFFF
??CrossCallReturnLabel_14:
        MOV     ?V0,A
        CLR     A
        MOV     ?V1,A
        MOV     ?V2,A
        MOV     ?V3,A
        INC     A
        LCALL   ?XSTACK_DISP0_8
        LCALL   ??Subroutine55_0 & 0xFFFF
??CrossCallReturnLabel_120:
        MOVX    A,@DPTR
        MOV     ?V4,A
        CLR     A
        MOV     ?V5,A
        MOV     ?V6,A
        MOV     ?V7,A
        MOV     A,#0x8
        MOV     R0,#?V4
        LCALL   ?L_SHL
        MOV     R0,#?V0
        MOV     R1,#?V4
        LCALL   ?L_ADD
        MOV     A,R2
        LCALL   ?XSTACK_DISP0_8
        LCALL   ?Subroutine4 & 0xFFFF
??CrossCallReturnLabel_3:
        MOV     ?V4,A
        CLR     A
        MOV     ?V5,A
        MOV     A,#0x10
        MOV     R0,#?V4
        LCALL   ?L_SHL
        MOV     R0,#?V0
        MOV     R1,#?V4
        LCALL   ?L_ADD
        MOV     A,R2
        LCALL   ?XSTACK_DISP0_8
        LCALL   ?Subroutine8 & 0xFFFF
??CrossCallReturnLabel_13:
        MOVX    A,@DPTR
        MOV     ?V4,A
        CLR     A
        MOV     ?V6,A
        MOV     A,#0x18
        MOV     R0,#?V4
        LCALL   ?L_SHL
        MOV     R0,#?V0
        MOV     R1,#?V4
        LCALL   ?L_ADD
        SJMP    ??CrossCallReturnLabel_67
//  803 
//  804   while (pItem != NULL)
//  805   {
//  806     pPrev = pItem;
//  807     if (pItem->timestamp == timestamp)
//  808     {
//  809       break;
//  810     }
//  811     pItem = pItem->next;
??MT_AfDataRetrieve_0:
        MOV     A,#0x3
        LCALL   ?XSTACK_DISP0_8
        LCALL   ?Subroutine6 & 0xFFFF
??CrossCallReturnLabel_6:
        MOV     A,#0x3
        LCALL   ?XSTACK_DISP0_8
        LCALL   ?Subroutine34 & 0xFFFF
??CrossCallReturnLabel_67:
        MOV     A,#0x3
        LCALL   ?XSTACK_DISP0_8
        LCALL   ??Subroutine59_0 & 0xFFFF
??CrossCallReturnLabel_148:
        JNZ     $+5
        LJMP    ??MT_AfDataRetrieve_1 & 0xFFFF
        MOV     A,R0
        MOV     R4,A
        MOV     A,R1
        MOV     R5,A
        MOV     A,#0x3
        LCALL   ?XSTACK_DISP0_8
        LCALL   ??Subroutine55_0 & 0xFFFF
//  812   }
??CrossCallReturnLabel_121:
        INC     DPTR
        INC     DPTR
        INC     DPTR
        MOV     R0,#?V0
        LCALL   ?L_EQ_X
        JNZ     ??MT_AfDataRetrieve_0
//  813 
//  814   if (pItem != NULL)
//  815   {
//  816     uint16 idx;
//  817     uint8 *pRsp;
//  818 
//  819     pBuf += 4;
        MOV     A,R2
        LCALL   ?XSTACK_DISP0_8
        MOVX    A,@DPTR
        ADD     A,#0x4
        MOV     R0,A
        INC     DPTR
        MOVX    A,@DPTR
        ADDC    A,#0x0
        MOV     R1,A
        MOV     A,R2
        LCALL   ?XSTACK_DISP0_8
        LCALL   ?Subroutine34 & 0xFFFF
//  820     idx = BUILD_UINT16(pBuf[0], pBuf[1]);
??CrossCallReturnLabel_68:
        MOV     A,R2
        LCALL   ?XSTACK_DISP0_8
        LCALL   ?Subroutine10 & 0xFFFF
??CrossCallReturnLabel_15:
        MOV     R2,A
        MOV     A,#0x1
        LCALL   ?XSTACK_DISP0_8
        LCALL   ??Subroutine55_0 & 0xFFFF
??CrossCallReturnLabel_122:
        LCALL   ?Subroutine23 & 0xFFFF
//  821     len = pBuf[2];
??CrossCallReturnLabel_36:
        MOV     A,#0x1
        LCALL   ?XSTACK_DISP0_8
        LCALL   ?Subroutine4 & 0xFFFF
??CrossCallReturnLabel_4:
        MOV     DPL,?XSP + 0
        MOV     DPH,?XSP + 1
        MOVX    @DPTR,A
//  822 
//  823     if (len == 0)  // Indication to delete the afIncomingMSGPacket.
        JNZ     ??MT_AfDataRetrieve_2
//  824     {
//  825       if (pMtAfInMsgList == pItem)
        LCALL   ?Subroutine22 & 0xFFFF
??CrossCallReturnLabel_109:
        MOV     A,#0x3
        LCALL   ?XSTACK_DISP0_8
        MOVX    A,@DPTR
        XRL     A,R0
        JNZ     ??MT_AfDataRetrieve_3
        INC     DPTR
        MOVX    A,@DPTR
        XRL     A,R1
??MT_AfDataRetrieve_3:
        JNZ     ??MT_AfDataRetrieve_4
//  826       {
//  827         pMtAfInMsgList = pItem->next;
        MOV     A,#0x3
        LCALL   ?XSTACK_DISP0_8
        LCALL   ?Subroutine6 & 0xFFFF
//  828       }
??CrossCallReturnLabel_7:
        MOV     DPTR,#pMtAfInMsgList
        SJMP    ??MT_AfDataRetrieve_5
//  829       else
//  830       {
//  831         pPrev->next = pItem->next;
??MT_AfDataRetrieve_4:
        MOV     A,#0x3
        LCALL   ?XSTACK_DISP0_8
        LCALL   ?Subroutine6 & 0xFFFF
//  832       }
??CrossCallReturnLabel_8:
        MOV     DPL,R4
        MOV     DPH,R5
??MT_AfDataRetrieve_5:
        LCALL   ?Subroutine34 & 0xFFFF
//  833       (void)osal_mem_free(pItem);
??CrossCallReturnLabel_69:
        ; Setup parameters for call to function osal_mem_free
        MOV     A,#0x3
        LCALL   ?XSTACK_DISP0_8
        LCALL   ??Subroutine56_0 & 0xFFFF
??CrossCallReturnLabel_130:
        LCALL   `??osal_mem_free::?relay`; Banked call to: osal_mem_free
//  834       rtrn = afStatus_SUCCESS;
        MOV     R2,#0x0
//  835     }
//  836     else if ((pRsp = osal_mem_alloc(len + MT_AF_RTV_HDR_SZ)) == NULL)
//  837     {
//  838       rtrn = afStatus_MEM_FAIL;
//  839       len = 0;
//  840     }
//  841     else
//  842     {
//  843       pRsp[0] = ZSuccess;
//  844       pRsp[1] = len;
//  845       (void)osal_memcpy(pRsp + MT_AF_RTV_HDR_SZ, pItem->data+idx, len);
//  846       MT_BuildAndSendZToolResponse(((uint8)MT_RPC_CMD_SRSP | (uint8)MT_RPC_SYS_AF), 
//  847                                            MT_AF_DATA_RETRIEVE, len + MT_AF_RTV_HDR_SZ, pRsp);
//  848       (void)osal_mem_free(pRsp);
//  849       return;
//  850     }
//  851   }
//  852 
//  853   pBuf[0] = rtrn;
??MT_AfDataRetrieve_1:
        MOV     A,#0x1
        LCALL   ?XSTACK_DISP0_8
        LCALL   ?Subroutine24 & 0xFFFF
//  854   pBuf[1] = len;
??CrossCallReturnLabel_38:
        MOV     DPL,?XSP + 0
        MOV     DPH,?XSP + 1
        MOVX    A,@DPTR
        PUSH    A
          CFI CFA_SP SP+-1
        MOV     A,#0x1
        LCALL   ?XSTACK_DISP0_8
        LCALL   ?Subroutine11 & 0xFFFF
??CrossCallReturnLabel_124:
        POP     A
          CFI CFA_SP SP+0
        MOVX    @DPTR,A
//  855   MT_BuildAndSendZToolResponse(((uint8)MT_RPC_CMD_SRSP | (uint8)MT_RPC_SYS_AF), 
//  856                                        MT_AF_DATA_RETRIEVE, MT_AF_RTV_HDR_SZ, pBuf);
        ; Setup parameters for call to function MT_BuildAndSendZToolResponse
        MOV     A,#0x1
        LCALL   ?XSTACK_DISP0_8
        MOVX    A,@DPTR
        MOV     R4,A
        INC     DPTR
        MOVX    A,@DPTR
        MOV     R5,A
        MOV     R3,#0x2
        MOV     R2,#0x12
        MOV     R1,#0x64
        LCALL   `??MT_BuildAndSendZToolResponse::?relay`; Banked call to: MT_BuildAndSendZToolResponse
//  857 }
??MT_AfDataRetrieve_6:
        MOV     A,#0x5
        LJMP    ?Subroutine1 & 0xFFFF
??MT_AfDataRetrieve_2:
        ; Setup parameters for call to function osal_mem_alloc
        ADD     A,#0x2
        MOV     R2,A
        CLR     A
        ADDC    A,#0x0
        MOV     R3,A
        LCALL   `??osal_mem_alloc::?relay`; Banked call to: osal_mem_alloc
        MOV     ?V0,R2
        MOV     ?V1,R3
        MOV     A,R2
        ORL     A,?V1
        JNZ     ??MT_AfDataRetrieve_7
        MOV     R2,#0x10
        MOV     DPL,?XSP + 0
        MOV     DPH,?XSP + 1
        CLR     A
        MOVX    @DPTR,A
        SJMP    ??MT_AfDataRetrieve_1
??MT_AfDataRetrieve_7:
        MOV     DPL,R2
        MOV     DPH,R3
        CLR     A
        LCALL   ?Subroutine36 & 0xFFFF
??CrossCallReturnLabel_75:
        MOV     DPL,R2
        MOV     DPH,R3
        INC     DPTR
        MOVX    @DPTR,A
        ; Setup parameters for call to function osal_memcpy
        MOV     A,#0x3
        LCALL   ?XSTACK_DISP0_8
        LCALL   ?Subroutine4 & 0xFFFF
??CrossCallReturnLabel_5:
        ADD     A,R6
        MOV     ?V4,A
        INC     DPTR
        MOVX    A,@DPTR
        ADDC    A,R7
        MOV     ?V5,A
        MOV     R0,#?V4
        LCALL   ?PUSH_XSTACK_I_THREE
          CFI CFA_XSP16 add(XSP16, 24)
        MOV     A,#0x3
        LCALL   ?XSTACK_DISP0_8
        MOVX    A,@DPTR
        MOV     R4,A
        MOV     R5,#0x0
        MOV     A,R2
        ADD     A,#0x2
        MOV     R2,A
        CLR     A
        ADDC    A,?V1
        MOV     R3,A
        LCALL   `??osal_memcpy::?relay`; Banked call to: osal_memcpy
        MOV     A,#0x3
        LCALL   ?DEALLOC_XSTACK8
          CFI CFA_XSP16 add(XSP16, 21)
        ; Setup parameters for call to function MT_BuildAndSendZToolResponse
        MOV     R4,?V0
        MOV     R5,?V1
        MOV     DPL,?XSP + 0
        MOV     DPH,?XSP + 1
        MOVX    A,@DPTR
        ADD     A,#0x2
        MOV     R3,A
        MOV     R2,#0x12
        MOV     R1,#0x64
        LCALL   `??MT_BuildAndSendZToolResponse::?relay`; Banked call to: MT_BuildAndSendZToolResponse
        ; Setup parameters for call to function osal_mem_free
        MOV     R2,?V0
        MOV     R3,?V1
        LCALL   `??osal_mem_free::?relay`; Banked call to: osal_mem_free
        SJMP    ??MT_AfDataRetrieve_6
          CFI EndBlock cfiBlock181

        RSEG BANKED_CODE:HUGECODE:NOROOT(0)
?Subroutine36:
          CFI Block cfiCond182 Using cfiCommon0
          CFI Function MT_AfIncomingMsg
          CFI Conditional ??CrossCallReturnLabel_73
          CFI R6 load(1, XDATA, add(CFA_XSP16, literal(-16)))
          CFI VB load(1, XDATA, add(CFA_XSP16, literal(-15)))
          CFI V0 load(1, XDATA, add(CFA_XSP16, literal(-14)))
          CFI V1 load(1, XDATA, add(CFA_XSP16, literal(-13)))
          CFI V2 load(1, XDATA, add(CFA_XSP16, literal(-12)))
          CFI V3 load(1, XDATA, add(CFA_XSP16, literal(-11)))
          CFI V4 load(1, XDATA, add(CFA_XSP16, literal(-10)))
          CFI V5 load(1, XDATA, add(CFA_XSP16, literal(-9)))
          CFI V6 load(1, XDATA, add(CFA_XSP16, literal(-8)))
          CFI V7 load(1, XDATA, add(CFA_XSP16, literal(-7)))
          CFI R7 load(1, XDATA, add(CFA_XSP16, literal(-6)))
          CFI ?RET_LOW load(1, XDATA, add(CFA_XSP16, literal(-5)))
          CFI ?RET_HIGH load(1, XDATA, add(CFA_XSP16, literal(-4)))
          CFI ?BRET_EXT load(1, XDATA, add(CFA_XSP16, literal(-3)))
          CFI DPL0 load(1, XDATA, add(CFA_XSP16, literal(-2)))
          CFI DPH0 load(1, XDATA, add(CFA_XSP16, literal(-1)))
          CFI CFA_SP SP+-2
          CFI CFA_XSP16 add(XSP16, 23)
          CFI Block cfiCond183 Using cfiCommon0
          CFI (cfiCond183) Function MT_AfIncomingMsg
          CFI (cfiCond183) Conditional ??CrossCallReturnLabel_74
          CFI (cfiCond183) R6 load(1, XDATA, add(CFA_XSP16, literal(-16)))
          CFI (cfiCond183) VB load(1, XDATA, add(CFA_XSP16, literal(-15)))
          CFI (cfiCond183) V0 load(1, XDATA, add(CFA_XSP16, literal(-14)))
          CFI (cfiCond183) V1 load(1, XDATA, add(CFA_XSP16, literal(-13)))
          CFI (cfiCond183) V2 load(1, XDATA, add(CFA_XSP16, literal(-12)))
          CFI (cfiCond183) V3 load(1, XDATA, add(CFA_XSP16, literal(-11)))
          CFI (cfiCond183) V4 load(1, XDATA, add(CFA_XSP16, literal(-10)))
          CFI (cfiCond183) V5 load(1, XDATA, add(CFA_XSP16, literal(-9)))
          CFI (cfiCond183) V6 load(1, XDATA, add(CFA_XSP16, literal(-8)))
          CFI (cfiCond183) V7 load(1, XDATA, add(CFA_XSP16, literal(-7)))
          CFI (cfiCond183) R7 load(1, XDATA, add(CFA_XSP16, literal(-6)))
          CFI (cfiCond183) ?RET_LOW load(1, XDATA, add(CFA_XSP16, literal(-5)))
          CFI (cfiCond183) ?RET_HIGH load(1, XDATA, add(CFA_XSP16, literal(-4)))
          CFI (cfiCond183) ?BRET_EXT load(1, XDATA, add(CFA_XSP16, literal(-3)))
          CFI (cfiCond183) DPL0 load(1, XDATA, add(CFA_XSP16, literal(-2)))
          CFI (cfiCond183) DPH0 load(1, XDATA, add(CFA_XSP16, literal(-1)))
          CFI (cfiCond183) CFA_SP SP+-2
          CFI (cfiCond183) CFA_XSP16 add(XSP16, 23)
          CFI Block cfiCond184 Using cfiCommon0
          CFI (cfiCond184) Function MT_AfDataRetrieve
          CFI (cfiCond184) Conditional ??CrossCallReturnLabel_75
          CFI (cfiCond184) R6 load(1, XDATA, add(CFA_XSP16, literal(-16)))
          CFI (cfiCond184) VB load(1, XDATA, add(CFA_XSP16, literal(-15)))
          CFI (cfiCond184) V0 load(1, XDATA, add(CFA_XSP16, literal(-14)))
          CFI (cfiCond184) V1 load(1, XDATA, add(CFA_XSP16, literal(-13)))
          CFI (cfiCond184) V2 load(1, XDATA, add(CFA_XSP16, literal(-12)))
          CFI (cfiCond184) V3 load(1, XDATA, add(CFA_XSP16, literal(-11)))
          CFI (cfiCond184) V4 load(1, XDATA, add(CFA_XSP16, literal(-10)))
          CFI (cfiCond184) V5 load(1, XDATA, add(CFA_XSP16, literal(-9)))
          CFI (cfiCond184) V6 load(1, XDATA, add(CFA_XSP16, literal(-8)))
          CFI (cfiCond184) V7 load(1, XDATA, add(CFA_XSP16, literal(-7)))
          CFI (cfiCond184) R7 load(1, XDATA, add(CFA_XSP16, literal(-6)))
          CFI (cfiCond184) ?RET_LOW load(1, XDATA, add(CFA_XSP16, literal(-5)))
          CFI (cfiCond184) ?RET_HIGH load(1, XDATA, add(CFA_XSP16, literal(-4)))
          CFI (cfiCond184) ?BRET_EXT load(1, XDATA, add(CFA_XSP16, literal(-3)))
          CFI (cfiCond184) DPL0 load(1, XDATA, add(CFA_XSP16, literal(-2)))
          CFI (cfiCond184) DPH0 load(1, XDATA, add(CFA_XSP16, literal(-1)))
          CFI (cfiCond184) CFA_SP SP+-2
          CFI (cfiCond184) CFA_XSP16 add(XSP16, 21)
          CFI Block cfiPicker185 Using cfiCommon1
          CFI (cfiPicker185) NoFunction
          CFI (cfiPicker185) Picker
        MOVX    @DPTR,A
        MOV     DPL,?XSP + 0
        MOV     DPH,?XSP + 1
        MOVX    A,@DPTR
        RET
          CFI EndBlock cfiCond182
          CFI EndBlock cfiCond183
          CFI EndBlock cfiCond184
          CFI EndBlock cfiPicker185

        RSEG BANKED_CODE:HUGECODE:NOROOT(0)
?Subroutine24:
          CFI Block cfiCond186 Using cfiCommon0
          CFI Function MT_AfDataRequest
          CFI Conditional ??CrossCallReturnLabel_37
          CFI R6 load(1, XDATA, add(CFA_XSP16, literal(-16)))
          CFI VB load(1, XDATA, add(CFA_XSP16, literal(-15)))
          CFI V0 load(1, XDATA, add(CFA_XSP16, literal(-14)))
          CFI V1 load(1, XDATA, add(CFA_XSP16, literal(-13)))
          CFI V2 load(1, XDATA, add(CFA_XSP16, literal(-12)))
          CFI V3 load(1, XDATA, add(CFA_XSP16, literal(-11)))
          CFI V4 load(1, XDATA, add(CFA_XSP16, literal(-10)))
          CFI V5 load(1, XDATA, add(CFA_XSP16, literal(-9)))
          CFI V6 load(1, XDATA, add(CFA_XSP16, literal(-8)))
          CFI V7 load(1, XDATA, add(CFA_XSP16, literal(-7)))
          CFI R7 load(1, XDATA, add(CFA_XSP16, literal(-6)))
          CFI ?RET_LOW load(1, XDATA, add(CFA_XSP16, literal(-5)))
          CFI ?RET_HIGH load(1, XDATA, add(CFA_XSP16, literal(-4)))
          CFI ?BRET_EXT load(1, XDATA, add(CFA_XSP16, literal(-3)))
          CFI DPL0 load(1, XDATA, add(CFA_XSP16, literal(-2)))
          CFI DPH0 load(1, XDATA, add(CFA_XSP16, literal(-1)))
          CFI CFA_SP SP+-2
          CFI CFA_XSP16 add(XSP16, 33)
          CFI Block cfiCond187 Using cfiCommon0
          CFI (cfiCond187) Function MT_AfDataRetrieve
          CFI (cfiCond187) Conditional ??CrossCallReturnLabel_38
          CFI (cfiCond187) R6 load(1, XDATA, add(CFA_XSP16, literal(-16)))
          CFI (cfiCond187) VB load(1, XDATA, add(CFA_XSP16, literal(-15)))
          CFI (cfiCond187) V0 load(1, XDATA, add(CFA_XSP16, literal(-14)))
          CFI (cfiCond187) V1 load(1, XDATA, add(CFA_XSP16, literal(-13)))
          CFI (cfiCond187) V2 load(1, XDATA, add(CFA_XSP16, literal(-12)))
          CFI (cfiCond187) V3 load(1, XDATA, add(CFA_XSP16, literal(-11)))
          CFI (cfiCond187) V4 load(1, XDATA, add(CFA_XSP16, literal(-10)))
          CFI (cfiCond187) V5 load(1, XDATA, add(CFA_XSP16, literal(-9)))
          CFI (cfiCond187) V6 load(1, XDATA, add(CFA_XSP16, literal(-8)))
          CFI (cfiCond187) V7 load(1, XDATA, add(CFA_XSP16, literal(-7)))
          CFI (cfiCond187) R7 load(1, XDATA, add(CFA_XSP16, literal(-6)))
          CFI (cfiCond187) ?RET_LOW load(1, XDATA, add(CFA_XSP16, literal(-5)))
          CFI (cfiCond187) ?RET_HIGH load(1, XDATA, add(CFA_XSP16, literal(-4)))
          CFI (cfiCond187) ?BRET_EXT load(1, XDATA, add(CFA_XSP16, literal(-3)))
          CFI (cfiCond187) DPL0 load(1, XDATA, add(CFA_XSP16, literal(-2)))
          CFI (cfiCond187) DPH0 load(1, XDATA, add(CFA_XSP16, literal(-1)))
          CFI (cfiCond187) CFA_SP SP+-2
          CFI (cfiCond187) CFA_XSP16 add(XSP16, 21)
          CFI Block cfiPicker188 Using cfiCommon1
          CFI (cfiPicker188) NoFunction
          CFI (cfiPicker188) Picker
        LCALL   ?Subroutine41 & 0xFFFF
??CrossCallReturnLabel_141:
        MOV     A,R2
        MOVX    @DPTR,A
        RET
          CFI EndBlock cfiCond186
          CFI EndBlock cfiCond187
          CFI EndBlock cfiPicker188

        RSEG BANKED_CODE:HUGECODE:NOROOT(0)
?Subroutine23:
          CFI Block cfiCond189 Using cfiCommon0
          CFI Function MT_AfDataRequest
          CFI Conditional ??CrossCallReturnLabel_35
          CFI R6 load(1, XDATA, add(CFA_XSP16, literal(-16)))
          CFI VB load(1, XDATA, add(CFA_XSP16, literal(-15)))
          CFI V0 load(1, XDATA, add(CFA_XSP16, literal(-14)))
          CFI V1 load(1, XDATA, add(CFA_XSP16, literal(-13)))
          CFI V2 load(1, XDATA, add(CFA_XSP16, literal(-12)))
          CFI V3 load(1, XDATA, add(CFA_XSP16, literal(-11)))
          CFI V4 load(1, XDATA, add(CFA_XSP16, literal(-10)))
          CFI V5 load(1, XDATA, add(CFA_XSP16, literal(-9)))
          CFI V6 load(1, XDATA, add(CFA_XSP16, literal(-8)))
          CFI V7 load(1, XDATA, add(CFA_XSP16, literal(-7)))
          CFI R7 load(1, XDATA, add(CFA_XSP16, literal(-6)))
          CFI ?RET_LOW load(1, XDATA, add(CFA_XSP16, literal(-5)))
          CFI ?RET_HIGH load(1, XDATA, add(CFA_XSP16, literal(-4)))
          CFI ?BRET_EXT load(1, XDATA, add(CFA_XSP16, literal(-3)))
          CFI DPL0 load(1, XDATA, add(CFA_XSP16, literal(-2)))
          CFI DPH0 load(1, XDATA, add(CFA_XSP16, literal(-1)))
          CFI CFA_SP SP+-2
          CFI CFA_XSP16 add(XSP16, 33)
          CFI Block cfiCond190 Using cfiCommon0
          CFI (cfiCond190) Function MT_AfDataRetrieve
          CFI (cfiCond190) Conditional ??CrossCallReturnLabel_36
          CFI (cfiCond190) R6 load(1, XDATA, add(CFA_XSP16, literal(-16)))
          CFI (cfiCond190) VB load(1, XDATA, add(CFA_XSP16, literal(-15)))
          CFI (cfiCond190) V0 load(1, XDATA, add(CFA_XSP16, literal(-14)))
          CFI (cfiCond190) V1 load(1, XDATA, add(CFA_XSP16, literal(-13)))
          CFI (cfiCond190) V2 load(1, XDATA, add(CFA_XSP16, literal(-12)))
          CFI (cfiCond190) V3 load(1, XDATA, add(CFA_XSP16, literal(-11)))
          CFI (cfiCond190) V4 load(1, XDATA, add(CFA_XSP16, literal(-10)))
          CFI (cfiCond190) V5 load(1, XDATA, add(CFA_XSP16, literal(-9)))
          CFI (cfiCond190) V6 load(1, XDATA, add(CFA_XSP16, literal(-8)))
          CFI (cfiCond190) V7 load(1, XDATA, add(CFA_XSP16, literal(-7)))
          CFI (cfiCond190) R7 load(1, XDATA, add(CFA_XSP16, literal(-6)))
          CFI (cfiCond190) ?RET_LOW load(1, XDATA, add(CFA_XSP16, literal(-5)))
          CFI (cfiCond190) ?RET_HIGH load(1, XDATA, add(CFA_XSP16, literal(-4)))
          CFI (cfiCond190) ?BRET_EXT load(1, XDATA, add(CFA_XSP16, literal(-3)))
          CFI (cfiCond190) DPL0 load(1, XDATA, add(CFA_XSP16, literal(-2)))
          CFI (cfiCond190) DPH0 load(1, XDATA, add(CFA_XSP16, literal(-1)))
          CFI (cfiCond190) CFA_SP SP+-2
          CFI (cfiCond190) CFA_XSP16 add(XSP16, 21)
          CFI Block cfiPicker191 Using cfiCommon1
          CFI (cfiPicker191) NoFunction
          CFI (cfiPicker191) Picker
        MOVX    A,@DPTR
        MOV     R0,A
        CLR     A
        XCH     A,R0
        MOV     R1,A
        MOV     A,R2
        ADD     A,R0
        MOV     R6,A
        CLR     A
        ADDC    A,R1
        MOV     R7,A
        RET
          CFI EndBlock cfiCond189
          CFI EndBlock cfiCond190
          CFI EndBlock cfiPicker191

        RSEG BANKED_CODE:HUGECODE:NOROOT(0)
?Subroutine8:
          CFI Block cfiCond192 Using cfiCommon0
          CFI Function MT_AfIncomingMsg
          CFI Conditional ??CrossCallReturnLabel_11
          CFI R6 load(1, XDATA, add(CFA_XSP16, literal(-16)))
          CFI VB load(1, XDATA, add(CFA_XSP16, literal(-15)))
          CFI V0 load(1, XDATA, add(CFA_XSP16, literal(-14)))
          CFI V1 load(1, XDATA, add(CFA_XSP16, literal(-13)))
          CFI V2 load(1, XDATA, add(CFA_XSP16, literal(-12)))
          CFI V3 load(1, XDATA, add(CFA_XSP16, literal(-11)))
          CFI V4 load(1, XDATA, add(CFA_XSP16, literal(-10)))
          CFI V5 load(1, XDATA, add(CFA_XSP16, literal(-9)))
          CFI V6 load(1, XDATA, add(CFA_XSP16, literal(-8)))
          CFI V7 load(1, XDATA, add(CFA_XSP16, literal(-7)))
          CFI R7 load(1, XDATA, add(CFA_XSP16, literal(-6)))
          CFI ?RET_LOW load(1, XDATA, add(CFA_XSP16, literal(-5)))
          CFI ?RET_HIGH load(1, XDATA, add(CFA_XSP16, literal(-4)))
          CFI ?BRET_EXT load(1, XDATA, add(CFA_XSP16, literal(-3)))
          CFI DPL0 load(1, XDATA, add(CFA_XSP16, literal(-2)))
          CFI DPH0 load(1, XDATA, add(CFA_XSP16, literal(-1)))
          CFI CFA_XSP16 add(XSP16, 23)
          CFI Block cfiCond193 Using cfiCommon0
          CFI (cfiCond193) Function MT_AfIncomingMsg
          CFI (cfiCond193) Conditional ??CrossCallReturnLabel_12
          CFI (cfiCond193) R6 load(1, XDATA, add(CFA_XSP16, literal(-16)))
          CFI (cfiCond193) VB load(1, XDATA, add(CFA_XSP16, literal(-15)))
          CFI (cfiCond193) V0 load(1, XDATA, add(CFA_XSP16, literal(-14)))
          CFI (cfiCond193) V1 load(1, XDATA, add(CFA_XSP16, literal(-13)))
          CFI (cfiCond193) V2 load(1, XDATA, add(CFA_XSP16, literal(-12)))
          CFI (cfiCond193) V3 load(1, XDATA, add(CFA_XSP16, literal(-11)))
          CFI (cfiCond193) V4 load(1, XDATA, add(CFA_XSP16, literal(-10)))
          CFI (cfiCond193) V5 load(1, XDATA, add(CFA_XSP16, literal(-9)))
          CFI (cfiCond193) V6 load(1, XDATA, add(CFA_XSP16, literal(-8)))
          CFI (cfiCond193) V7 load(1, XDATA, add(CFA_XSP16, literal(-7)))
          CFI (cfiCond193) R7 load(1, XDATA, add(CFA_XSP16, literal(-6)))
          CFI (cfiCond193) ?RET_LOW load(1, XDATA, add(CFA_XSP16, literal(-5)))
          CFI (cfiCond193) ?RET_HIGH load(1, XDATA, add(CFA_XSP16, literal(-4)))
          CFI (cfiCond193) ?BRET_EXT load(1, XDATA, add(CFA_XSP16, literal(-3)))
          CFI (cfiCond193) DPL0 load(1, XDATA, add(CFA_XSP16, literal(-2)))
          CFI (cfiCond193) DPH0 load(1, XDATA, add(CFA_XSP16, literal(-1)))
          CFI (cfiCond193) CFA_XSP16 add(XSP16, 23)
          CFI Block cfiCond194 Using cfiCommon0
          CFI (cfiCond194) Function MT_AfDataRetrieve
          CFI (cfiCond194) Conditional ??CrossCallReturnLabel_13
          CFI (cfiCond194) R6 load(1, XDATA, add(CFA_XSP16, literal(-16)))
          CFI (cfiCond194) VB load(1, XDATA, add(CFA_XSP16, literal(-15)))
          CFI (cfiCond194) V0 load(1, XDATA, add(CFA_XSP16, literal(-14)))
          CFI (cfiCond194) V1 load(1, XDATA, add(CFA_XSP16, literal(-13)))
          CFI (cfiCond194) V2 load(1, XDATA, add(CFA_XSP16, literal(-12)))
          CFI (cfiCond194) V3 load(1, XDATA, add(CFA_XSP16, literal(-11)))
          CFI (cfiCond194) V4 load(1, XDATA, add(CFA_XSP16, literal(-10)))
          CFI (cfiCond194) V5 load(1, XDATA, add(CFA_XSP16, literal(-9)))
          CFI (cfiCond194) V6 load(1, XDATA, add(CFA_XSP16, literal(-8)))
          CFI (cfiCond194) V7 load(1, XDATA, add(CFA_XSP16, literal(-7)))
          CFI (cfiCond194) R7 load(1, XDATA, add(CFA_XSP16, literal(-6)))
          CFI (cfiCond194) ?RET_LOW load(1, XDATA, add(CFA_XSP16, literal(-5)))
          CFI (cfiCond194) ?RET_HIGH load(1, XDATA, add(CFA_XSP16, literal(-4)))
          CFI (cfiCond194) ?BRET_EXT load(1, XDATA, add(CFA_XSP16, literal(-3)))
          CFI (cfiCond194) DPL0 load(1, XDATA, add(CFA_XSP16, literal(-2)))
          CFI (cfiCond194) DPH0 load(1, XDATA, add(CFA_XSP16, literal(-1)))
          CFI (cfiCond194) CFA_SP SP+-2
          CFI (cfiCond194) CFA_XSP16 add(XSP16, 21)
          CFI Block cfiPicker195 Using cfiCommon1
          CFI (cfiPicker195) NoFunction
          CFI (cfiPicker195) Picker
        LCALL   ?Subroutine40 & 0xFFFF
??CrossCallReturnLabel_77:
        INC     DPTR
        RET
          CFI EndBlock cfiCond192
          CFI EndBlock cfiCond193
          CFI EndBlock cfiCond194
          CFI EndBlock cfiPicker195

        RSEG BANKED_CODE:HUGECODE:NOROOT(0)
?Subroutine6:
          CFI Block cfiCond196 Using cfiCommon0
          CFI Function MT_AfDataRetrieve
          CFI Conditional ??CrossCallReturnLabel_6
          CFI R6 load(1, XDATA, add(CFA_XSP16, literal(-16)))
          CFI VB load(1, XDATA, add(CFA_XSP16, literal(-15)))
          CFI V0 load(1, XDATA, add(CFA_XSP16, literal(-14)))
          CFI V1 load(1, XDATA, add(CFA_XSP16, literal(-13)))
          CFI V2 load(1, XDATA, add(CFA_XSP16, literal(-12)))
          CFI V3 load(1, XDATA, add(CFA_XSP16, literal(-11)))
          CFI V4 load(1, XDATA, add(CFA_XSP16, literal(-10)))
          CFI V5 load(1, XDATA, add(CFA_XSP16, literal(-9)))
          CFI V6 load(1, XDATA, add(CFA_XSP16, literal(-8)))
          CFI V7 load(1, XDATA, add(CFA_XSP16, literal(-7)))
          CFI R7 load(1, XDATA, add(CFA_XSP16, literal(-6)))
          CFI ?RET_LOW load(1, XDATA, add(CFA_XSP16, literal(-5)))
          CFI ?RET_HIGH load(1, XDATA, add(CFA_XSP16, literal(-4)))
          CFI ?BRET_EXT load(1, XDATA, add(CFA_XSP16, literal(-3)))
          CFI DPL0 load(1, XDATA, add(CFA_XSP16, literal(-2)))
          CFI DPH0 load(1, XDATA, add(CFA_XSP16, literal(-1)))
          CFI CFA_SP SP+-2
          CFI CFA_XSP16 add(XSP16, 21)
          CFI Block cfiCond197 Using cfiCommon0
          CFI (cfiCond197) Function MT_AfDataRetrieve
          CFI (cfiCond197) Conditional ??CrossCallReturnLabel_7
          CFI (cfiCond197) R6 load(1, XDATA, add(CFA_XSP16, literal(-16)))
          CFI (cfiCond197) VB load(1, XDATA, add(CFA_XSP16, literal(-15)))
          CFI (cfiCond197) V0 load(1, XDATA, add(CFA_XSP16, literal(-14)))
          CFI (cfiCond197) V1 load(1, XDATA, add(CFA_XSP16, literal(-13)))
          CFI (cfiCond197) V2 load(1, XDATA, add(CFA_XSP16, literal(-12)))
          CFI (cfiCond197) V3 load(1, XDATA, add(CFA_XSP16, literal(-11)))
          CFI (cfiCond197) V4 load(1, XDATA, add(CFA_XSP16, literal(-10)))
          CFI (cfiCond197) V5 load(1, XDATA, add(CFA_XSP16, literal(-9)))
          CFI (cfiCond197) V6 load(1, XDATA, add(CFA_XSP16, literal(-8)))
          CFI (cfiCond197) V7 load(1, XDATA, add(CFA_XSP16, literal(-7)))
          CFI (cfiCond197) R7 load(1, XDATA, add(CFA_XSP16, literal(-6)))
          CFI (cfiCond197) ?RET_LOW load(1, XDATA, add(CFA_XSP16, literal(-5)))
          CFI (cfiCond197) ?RET_HIGH load(1, XDATA, add(CFA_XSP16, literal(-4)))
          CFI (cfiCond197) ?BRET_EXT load(1, XDATA, add(CFA_XSP16, literal(-3)))
          CFI (cfiCond197) DPL0 load(1, XDATA, add(CFA_XSP16, literal(-2)))
          CFI (cfiCond197) DPH0 load(1, XDATA, add(CFA_XSP16, literal(-1)))
          CFI (cfiCond197) CFA_SP SP+-2
          CFI (cfiCond197) CFA_XSP16 add(XSP16, 21)
          CFI Block cfiCond198 Using cfiCommon0
          CFI (cfiCond198) Function MT_AfDataRetrieve
          CFI (cfiCond198) Conditional ??CrossCallReturnLabel_8
          CFI (cfiCond198) R6 load(1, XDATA, add(CFA_XSP16, literal(-16)))
          CFI (cfiCond198) VB load(1, XDATA, add(CFA_XSP16, literal(-15)))
          CFI (cfiCond198) V0 load(1, XDATA, add(CFA_XSP16, literal(-14)))
          CFI (cfiCond198) V1 load(1, XDATA, add(CFA_XSP16, literal(-13)))
          CFI (cfiCond198) V2 load(1, XDATA, add(CFA_XSP16, literal(-12)))
          CFI (cfiCond198) V3 load(1, XDATA, add(CFA_XSP16, literal(-11)))
          CFI (cfiCond198) V4 load(1, XDATA, add(CFA_XSP16, literal(-10)))
          CFI (cfiCond198) V5 load(1, XDATA, add(CFA_XSP16, literal(-9)))
          CFI (cfiCond198) V6 load(1, XDATA, add(CFA_XSP16, literal(-8)))
          CFI (cfiCond198) V7 load(1, XDATA, add(CFA_XSP16, literal(-7)))
          CFI (cfiCond198) R7 load(1, XDATA, add(CFA_XSP16, literal(-6)))
          CFI (cfiCond198) ?RET_LOW load(1, XDATA, add(CFA_XSP16, literal(-5)))
          CFI (cfiCond198) ?RET_HIGH load(1, XDATA, add(CFA_XSP16, literal(-4)))
          CFI (cfiCond198) ?BRET_EXT load(1, XDATA, add(CFA_XSP16, literal(-3)))
          CFI (cfiCond198) DPL0 load(1, XDATA, add(CFA_XSP16, literal(-2)))
          CFI (cfiCond198) DPH0 load(1, XDATA, add(CFA_XSP16, literal(-1)))
          CFI (cfiCond198) CFA_SP SP+-2
          CFI (cfiCond198) CFA_XSP16 add(XSP16, 21)
          CFI Block cfiPicker199 Using cfiCommon1
          CFI (cfiPicker199) NoFunction
          CFI (cfiPicker199) Picker
        LCALL   ?Subroutine41 & 0xFFFF
??CrossCallReturnLabel_139:
        LCALL   ?Subroutine43 & 0xFFFF
??CrossCallReturnLabel_154:
        RET
          CFI EndBlock cfiCond196
          CFI EndBlock cfiCond197
          CFI EndBlock cfiCond198
          CFI EndBlock cfiPicker199

        RSEG BANKED_CODE:HUGECODE:NOROOT(0)
?Subroutine43:
          CFI Block cfiCond200 Using cfiCommon0
          CFI Function MT_AfExec
          CFI Conditional ??CrossCallReturnLabel_156, ??CrossCallReturnLabel_106
          CFI R6 load(1, XDATA, add(CFA_XSP16, literal(-9)))
          CFI VB load(1, XDATA, add(CFA_XSP16, literal(-8)))
          CFI V0 load(1, XDATA, add(CFA_XSP16, literal(-7)))
          CFI R7 load(1, XDATA, add(CFA_XSP16, literal(-6)))
          CFI ?RET_LOW load(1, XDATA, add(CFA_XSP16, literal(-5)))
          CFI ?RET_HIGH load(1, XDATA, add(CFA_XSP16, literal(-4)))
          CFI ?BRET_EXT load(1, XDATA, add(CFA_XSP16, literal(-3)))
          CFI DPL0 load(1, XDATA, add(CFA_XSP16, literal(-2)))
          CFI DPH0 load(1, XDATA, add(CFA_XSP16, literal(-1)))
          CFI CFA_SP SP+-4
          CFI CFA_XSP16 add(XSP16, 9)
          CFI Block cfiCond201 Using cfiCommon0
          CFI (cfiCond201) Function MT_AfIncomingMsg
          CFI (cfiCond201) Conditional ??CrossCallReturnLabel_156, ??CrossCallReturnLabel_107
          CFI (cfiCond201) R6 load(1, XDATA, add(CFA_XSP16, literal(-16)))
          CFI (cfiCond201) VB load(1, XDATA, add(CFA_XSP16, literal(-15)))
          CFI (cfiCond201) V0 load(1, XDATA, add(CFA_XSP16, literal(-14)))
          CFI (cfiCond201) V1 load(1, XDATA, add(CFA_XSP16, literal(-13)))
          CFI (cfiCond201) V2 load(1, XDATA, add(CFA_XSP16, literal(-12)))
          CFI (cfiCond201) V3 load(1, XDATA, add(CFA_XSP16, literal(-11)))
          CFI (cfiCond201) V4 load(1, XDATA, add(CFA_XSP16, literal(-10)))
          CFI (cfiCond201) V5 load(1, XDATA, add(CFA_XSP16, literal(-9)))
          CFI (cfiCond201) V6 load(1, XDATA, add(CFA_XSP16, literal(-8)))
          CFI (cfiCond201) V7 load(1, XDATA, add(CFA_XSP16, literal(-7)))
          CFI (cfiCond201) R7 load(1, XDATA, add(CFA_XSP16, literal(-6)))
          CFI (cfiCond201) ?RET_LOW load(1, XDATA, add(CFA_XSP16, literal(-5)))
          CFI (cfiCond201) ?RET_HIGH load(1, XDATA, add(CFA_XSP16, literal(-4)))
          CFI (cfiCond201) ?BRET_EXT load(1, XDATA, add(CFA_XSP16, literal(-3)))
          CFI (cfiCond201) DPL0 load(1, XDATA, add(CFA_XSP16, literal(-2)))
          CFI (cfiCond201) DPH0 load(1, XDATA, add(CFA_XSP16, literal(-1)))
          CFI (cfiCond201) CFA_SP SP+-4
          CFI (cfiCond201) CFA_XSP16 add(XSP16, 23)
          CFI Block cfiCond202 Using cfiCommon0
          CFI (cfiCond202) Function MT_AfDataRetrieve
          CFI (cfiCond202) Conditional ??CrossCallReturnLabel_156, ??CrossCallReturnLabel_108
          CFI (cfiCond202) R6 load(1, XDATA, add(CFA_XSP16, literal(-16)))
          CFI (cfiCond202) VB load(1, XDATA, add(CFA_XSP16, literal(-15)))
          CFI (cfiCond202) V0 load(1, XDATA, add(CFA_XSP16, literal(-14)))
          CFI (cfiCond202) V1 load(1, XDATA, add(CFA_XSP16, literal(-13)))
          CFI (cfiCond202) V2 load(1, XDATA, add(CFA_XSP16, literal(-12)))
          CFI (cfiCond202) V3 load(1, XDATA, add(CFA_XSP16, literal(-11)))
          CFI (cfiCond202) V4 load(1, XDATA, add(CFA_XSP16, literal(-10)))
          CFI (cfiCond202) V5 load(1, XDATA, add(CFA_XSP16, literal(-9)))
          CFI (cfiCond202) V6 load(1, XDATA, add(CFA_XSP16, literal(-8)))
          CFI (cfiCond202) V7 load(1, XDATA, add(CFA_XSP16, literal(-7)))
          CFI (cfiCond202) R7 load(1, XDATA, add(CFA_XSP16, literal(-6)))
          CFI (cfiCond202) ?RET_LOW load(1, XDATA, add(CFA_XSP16, literal(-5)))
          CFI (cfiCond202) ?RET_HIGH load(1, XDATA, add(CFA_XSP16, literal(-4)))
          CFI (cfiCond202) ?BRET_EXT load(1, XDATA, add(CFA_XSP16, literal(-3)))
          CFI (cfiCond202) DPL0 load(1, XDATA, add(CFA_XSP16, literal(-2)))
          CFI (cfiCond202) DPH0 load(1, XDATA, add(CFA_XSP16, literal(-1)))
          CFI (cfiCond202) CFA_SP SP+-4
          CFI (cfiCond202) CFA_XSP16 add(XSP16, 21)
          CFI Block cfiCond203 Using cfiCommon0
          CFI (cfiCond203) Function MT_AfDataRetrieve
          CFI (cfiCond203) Conditional ??CrossCallReturnLabel_156, ??CrossCallReturnLabel_109
          CFI (cfiCond203) R6 load(1, XDATA, add(CFA_XSP16, literal(-16)))
          CFI (cfiCond203) VB load(1, XDATA, add(CFA_XSP16, literal(-15)))
          CFI (cfiCond203) V0 load(1, XDATA, add(CFA_XSP16, literal(-14)))
          CFI (cfiCond203) V1 load(1, XDATA, add(CFA_XSP16, literal(-13)))
          CFI (cfiCond203) V2 load(1, XDATA, add(CFA_XSP16, literal(-12)))
          CFI (cfiCond203) V3 load(1, XDATA, add(CFA_XSP16, literal(-11)))
          CFI (cfiCond203) V4 load(1, XDATA, add(CFA_XSP16, literal(-10)))
          CFI (cfiCond203) V5 load(1, XDATA, add(CFA_XSP16, literal(-9)))
          CFI (cfiCond203) V6 load(1, XDATA, add(CFA_XSP16, literal(-8)))
          CFI (cfiCond203) V7 load(1, XDATA, add(CFA_XSP16, literal(-7)))
          CFI (cfiCond203) R7 load(1, XDATA, add(CFA_XSP16, literal(-6)))
          CFI (cfiCond203) ?RET_LOW load(1, XDATA, add(CFA_XSP16, literal(-5)))
          CFI (cfiCond203) ?RET_HIGH load(1, XDATA, add(CFA_XSP16, literal(-4)))
          CFI (cfiCond203) ?BRET_EXT load(1, XDATA, add(CFA_XSP16, literal(-3)))
          CFI (cfiCond203) DPL0 load(1, XDATA, add(CFA_XSP16, literal(-2)))
          CFI (cfiCond203) DPH0 load(1, XDATA, add(CFA_XSP16, literal(-1)))
          CFI (cfiCond203) CFA_SP SP+-4
          CFI (cfiCond203) CFA_XSP16 add(XSP16, 21)
          CFI Block cfiCond204 Using cfiCommon0
          CFI (cfiCond204) Function MT_AfExec
          CFI (cfiCond204) Conditional ??CrossCallReturnLabel_156, ??CrossCallReturnLabel_105
          CFI (cfiCond204) R6 load(1, XDATA, add(CFA_XSP16, literal(-9)))
          CFI (cfiCond204) VB load(1, XDATA, add(CFA_XSP16, literal(-8)))
          CFI (cfiCond204) V0 load(1, XDATA, add(CFA_XSP16, literal(-7)))
          CFI (cfiCond204) R7 load(1, XDATA, add(CFA_XSP16, literal(-6)))
          CFI (cfiCond204) ?RET_LOW load(1, XDATA, add(CFA_XSP16, literal(-5)))
          CFI (cfiCond204) ?RET_HIGH load(1, XDATA, add(CFA_XSP16, literal(-4)))
          CFI (cfiCond204) ?BRET_EXT load(1, XDATA, add(CFA_XSP16, literal(-3)))
          CFI (cfiCond204) DPL0 load(1, XDATA, add(CFA_XSP16, literal(-2)))
          CFI (cfiCond204) DPH0 load(1, XDATA, add(CFA_XSP16, literal(-1)))
          CFI (cfiCond204) CFA_SP SP+-4
          CFI (cfiCond204) CFA_XSP16 add(XSP16, 9)
          CFI Block cfiCond205 Using cfiCommon0
          CFI (cfiCond205) Function MT_AfExec
          CFI (cfiCond205) Conditional ??CrossCallReturnLabel_155, ??CrossCallReturnLabel_21
          CFI (cfiCond205) R6 load(1, XDATA, add(CFA_XSP16, literal(-9)))
          CFI (cfiCond205) VB load(1, XDATA, add(CFA_XSP16, literal(-8)))
          CFI (cfiCond205) V0 load(1, XDATA, add(CFA_XSP16, literal(-7)))
          CFI (cfiCond205) R7 load(1, XDATA, add(CFA_XSP16, literal(-6)))
          CFI (cfiCond205) ?RET_LOW load(1, XDATA, add(CFA_XSP16, literal(-5)))
          CFI (cfiCond205) ?RET_HIGH load(1, XDATA, add(CFA_XSP16, literal(-4)))
          CFI (cfiCond205) ?BRET_EXT load(1, XDATA, add(CFA_XSP16, literal(-3)))
          CFI (cfiCond205) DPL0 load(1, XDATA, add(CFA_XSP16, literal(-2)))
          CFI (cfiCond205) DPH0 load(1, XDATA, add(CFA_XSP16, literal(-1)))
          CFI (cfiCond205) CFA_SP SP+-4
          CFI (cfiCond205) CFA_XSP16 add(XSP16, 9)
          CFI Block cfiCond206 Using cfiCommon0
          CFI (cfiCond206) Function MT_AfIncomingMsg
          CFI (cfiCond206) Conditional ??CrossCallReturnLabel_155, ??CrossCallReturnLabel_22
          CFI (cfiCond206) R6 load(1, XDATA, add(CFA_XSP16, literal(-16)))
          CFI (cfiCond206) VB load(1, XDATA, add(CFA_XSP16, literal(-15)))
          CFI (cfiCond206) V0 load(1, XDATA, add(CFA_XSP16, literal(-14)))
          CFI (cfiCond206) V1 load(1, XDATA, add(CFA_XSP16, literal(-13)))
          CFI (cfiCond206) V2 load(1, XDATA, add(CFA_XSP16, literal(-12)))
          CFI (cfiCond206) V3 load(1, XDATA, add(CFA_XSP16, literal(-11)))
          CFI (cfiCond206) V4 load(1, XDATA, add(CFA_XSP16, literal(-10)))
          CFI (cfiCond206) V5 load(1, XDATA, add(CFA_XSP16, literal(-9)))
          CFI (cfiCond206) V6 load(1, XDATA, add(CFA_XSP16, literal(-8)))
          CFI (cfiCond206) V7 load(1, XDATA, add(CFA_XSP16, literal(-7)))
          CFI (cfiCond206) R7 load(1, XDATA, add(CFA_XSP16, literal(-6)))
          CFI (cfiCond206) ?RET_LOW load(1, XDATA, add(CFA_XSP16, literal(-5)))
          CFI (cfiCond206) ?RET_HIGH load(1, XDATA, add(CFA_XSP16, literal(-4)))
          CFI (cfiCond206) ?BRET_EXT load(1, XDATA, add(CFA_XSP16, literal(-3)))
          CFI (cfiCond206) DPL0 load(1, XDATA, add(CFA_XSP16, literal(-2)))
          CFI (cfiCond206) DPH0 load(1, XDATA, add(CFA_XSP16, literal(-1)))
          CFI (cfiCond206) CFA_SP SP+-4
          CFI (cfiCond206) CFA_XSP16 add(XSP16, 23)
          CFI Block cfiCond207 Using cfiCommon0
          CFI (cfiCond207) Function MT_AfDataRetrieve
          CFI (cfiCond207) Conditional ??CrossCallReturnLabel_154, ??CrossCallReturnLabel_6
          CFI (cfiCond207) R6 load(1, XDATA, add(CFA_XSP16, literal(-16)))
          CFI (cfiCond207) VB load(1, XDATA, add(CFA_XSP16, literal(-15)))
          CFI (cfiCond207) V0 load(1, XDATA, add(CFA_XSP16, literal(-14)))
          CFI (cfiCond207) V1 load(1, XDATA, add(CFA_XSP16, literal(-13)))
          CFI (cfiCond207) V2 load(1, XDATA, add(CFA_XSP16, literal(-12)))
          CFI (cfiCond207) V3 load(1, XDATA, add(CFA_XSP16, literal(-11)))
          CFI (cfiCond207) V4 load(1, XDATA, add(CFA_XSP16, literal(-10)))
          CFI (cfiCond207) V5 load(1, XDATA, add(CFA_XSP16, literal(-9)))
          CFI (cfiCond207) V6 load(1, XDATA, add(CFA_XSP16, literal(-8)))
          CFI (cfiCond207) V7 load(1, XDATA, add(CFA_XSP16, literal(-7)))
          CFI (cfiCond207) R7 load(1, XDATA, add(CFA_XSP16, literal(-6)))
          CFI (cfiCond207) ?RET_LOW load(1, XDATA, add(CFA_XSP16, literal(-5)))
          CFI (cfiCond207) ?RET_HIGH load(1, XDATA, add(CFA_XSP16, literal(-4)))
          CFI (cfiCond207) ?BRET_EXT load(1, XDATA, add(CFA_XSP16, literal(-3)))
          CFI (cfiCond207) DPL0 load(1, XDATA, add(CFA_XSP16, literal(-2)))
          CFI (cfiCond207) DPH0 load(1, XDATA, add(CFA_XSP16, literal(-1)))
          CFI (cfiCond207) CFA_SP SP+-4
          CFI (cfiCond207) CFA_XSP16 add(XSP16, 21)
          CFI Block cfiCond208 Using cfiCommon0
          CFI (cfiCond208) Function MT_AfDataRetrieve
          CFI (cfiCond208) Conditional ??CrossCallReturnLabel_154, ??CrossCallReturnLabel_7
          CFI (cfiCond208) R6 load(1, XDATA, add(CFA_XSP16, literal(-16)))
          CFI (cfiCond208) VB load(1, XDATA, add(CFA_XSP16, literal(-15)))
          CFI (cfiCond208) V0 load(1, XDATA, add(CFA_XSP16, literal(-14)))
          CFI (cfiCond208) V1 load(1, XDATA, add(CFA_XSP16, literal(-13)))
          CFI (cfiCond208) V2 load(1, XDATA, add(CFA_XSP16, literal(-12)))
          CFI (cfiCond208) V3 load(1, XDATA, add(CFA_XSP16, literal(-11)))
          CFI (cfiCond208) V4 load(1, XDATA, add(CFA_XSP16, literal(-10)))
          CFI (cfiCond208) V5 load(1, XDATA, add(CFA_XSP16, literal(-9)))
          CFI (cfiCond208) V6 load(1, XDATA, add(CFA_XSP16, literal(-8)))
          CFI (cfiCond208) V7 load(1, XDATA, add(CFA_XSP16, literal(-7)))
          CFI (cfiCond208) R7 load(1, XDATA, add(CFA_XSP16, literal(-6)))
          CFI (cfiCond208) ?RET_LOW load(1, XDATA, add(CFA_XSP16, literal(-5)))
          CFI (cfiCond208) ?RET_HIGH load(1, XDATA, add(CFA_XSP16, literal(-4)))
          CFI (cfiCond208) ?BRET_EXT load(1, XDATA, add(CFA_XSP16, literal(-3)))
          CFI (cfiCond208) DPL0 load(1, XDATA, add(CFA_XSP16, literal(-2)))
          CFI (cfiCond208) DPH0 load(1, XDATA, add(CFA_XSP16, literal(-1)))
          CFI (cfiCond208) CFA_SP SP+-4
          CFI (cfiCond208) CFA_XSP16 add(XSP16, 21)
          CFI Block cfiCond209 Using cfiCommon0
          CFI (cfiCond209) Function MT_AfDataRetrieve
          CFI (cfiCond209) Conditional ??CrossCallReturnLabel_154, ??CrossCallReturnLabel_8
          CFI (cfiCond209) R6 load(1, XDATA, add(CFA_XSP16, literal(-16)))
          CFI (cfiCond209) VB load(1, XDATA, add(CFA_XSP16, literal(-15)))
          CFI (cfiCond209) V0 load(1, XDATA, add(CFA_XSP16, literal(-14)))
          CFI (cfiCond209) V1 load(1, XDATA, add(CFA_XSP16, literal(-13)))
          CFI (cfiCond209) V2 load(1, XDATA, add(CFA_XSP16, literal(-12)))
          CFI (cfiCond209) V3 load(1, XDATA, add(CFA_XSP16, literal(-11)))
          CFI (cfiCond209) V4 load(1, XDATA, add(CFA_XSP16, literal(-10)))
          CFI (cfiCond209) V5 load(1, XDATA, add(CFA_XSP16, literal(-9)))
          CFI (cfiCond209) V6 load(1, XDATA, add(CFA_XSP16, literal(-8)))
          CFI (cfiCond209) V7 load(1, XDATA, add(CFA_XSP16, literal(-7)))
          CFI (cfiCond209) R7 load(1, XDATA, add(CFA_XSP16, literal(-6)))
          CFI (cfiCond209) ?RET_LOW load(1, XDATA, add(CFA_XSP16, literal(-5)))
          CFI (cfiCond209) ?RET_HIGH load(1, XDATA, add(CFA_XSP16, literal(-4)))
          CFI (cfiCond209) ?BRET_EXT load(1, XDATA, add(CFA_XSP16, literal(-3)))
          CFI (cfiCond209) DPL0 load(1, XDATA, add(CFA_XSP16, literal(-2)))
          CFI (cfiCond209) DPH0 load(1, XDATA, add(CFA_XSP16, literal(-1)))
          CFI (cfiCond209) CFA_SP SP+-4
          CFI (cfiCond209) CFA_XSP16 add(XSP16, 21)
          CFI Block cfiCond210 Using cfiCommon0
          CFI (cfiCond210) Function MT_AfExec
          CFI (cfiCond210) Conditional ??CrossCallReturnLabel_157, ??CrossCallReturnLabel_149
          CFI (cfiCond210) R6 load(1, XDATA, add(CFA_XSP16, literal(-9)))
          CFI (cfiCond210) VB load(1, XDATA, add(CFA_XSP16, literal(-8)))
          CFI (cfiCond210) V0 load(1, XDATA, add(CFA_XSP16, literal(-7)))
          CFI (cfiCond210) R7 load(1, XDATA, add(CFA_XSP16, literal(-6)))
          CFI (cfiCond210) ?RET_LOW load(1, XDATA, add(CFA_XSP16, literal(-5)))
          CFI (cfiCond210) ?RET_HIGH load(1, XDATA, add(CFA_XSP16, literal(-4)))
          CFI (cfiCond210) ?BRET_EXT load(1, XDATA, add(CFA_XSP16, literal(-3)))
          CFI (cfiCond210) DPL0 load(1, XDATA, add(CFA_XSP16, literal(-2)))
          CFI (cfiCond210) DPH0 load(1, XDATA, add(CFA_XSP16, literal(-1)))
          CFI (cfiCond210) CFA_SP SP+-4
          CFI (cfiCond210) CFA_XSP16 add(XSP16, 9)
          CFI Block cfiCond211 Using cfiCommon0
          CFI (cfiCond211) Function MT_AfExec
          CFI (cfiCond211) Conditional ??CrossCallReturnLabel_157, ??CrossCallReturnLabel_150
          CFI (cfiCond211) R6 load(1, XDATA, add(CFA_XSP16, literal(-9)))
          CFI (cfiCond211) VB load(1, XDATA, add(CFA_XSP16, literal(-8)))
          CFI (cfiCond211) V0 load(1, XDATA, add(CFA_XSP16, literal(-7)))
          CFI (cfiCond211) R7 load(1, XDATA, add(CFA_XSP16, literal(-6)))
          CFI (cfiCond211) ?RET_LOW load(1, XDATA, add(CFA_XSP16, literal(-5)))
          CFI (cfiCond211) ?RET_HIGH load(1, XDATA, add(CFA_XSP16, literal(-4)))
          CFI (cfiCond211) ?BRET_EXT load(1, XDATA, add(CFA_XSP16, literal(-3)))
          CFI (cfiCond211) DPL0 load(1, XDATA, add(CFA_XSP16, literal(-2)))
          CFI (cfiCond211) DPH0 load(1, XDATA, add(CFA_XSP16, literal(-1)))
          CFI (cfiCond211) CFA_SP SP+-4
          CFI (cfiCond211) CFA_XSP16 add(XSP16, 9)
          CFI Block cfiCond212 Using cfiCommon0
          CFI (cfiCond212) Function MT_AfDataRequest
          CFI (cfiCond212) Conditional ??CrossCallReturnLabel_157, ??CrossCallReturnLabel_151
          CFI (cfiCond212) R6 load(1, XDATA, add(CFA_XSP16, literal(-16)))
          CFI (cfiCond212) VB load(1, XDATA, add(CFA_XSP16, literal(-15)))
          CFI (cfiCond212) V0 load(1, XDATA, add(CFA_XSP16, literal(-14)))
          CFI (cfiCond212) V1 load(1, XDATA, add(CFA_XSP16, literal(-13)))
          CFI (cfiCond212) V2 load(1, XDATA, add(CFA_XSP16, literal(-12)))
          CFI (cfiCond212) V3 load(1, XDATA, add(CFA_XSP16, literal(-11)))
          CFI (cfiCond212) V4 load(1, XDATA, add(CFA_XSP16, literal(-10)))
          CFI (cfiCond212) V5 load(1, XDATA, add(CFA_XSP16, literal(-9)))
          CFI (cfiCond212) V6 load(1, XDATA, add(CFA_XSP16, literal(-8)))
          CFI (cfiCond212) V7 load(1, XDATA, add(CFA_XSP16, literal(-7)))
          CFI (cfiCond212) R7 load(1, XDATA, add(CFA_XSP16, literal(-6)))
          CFI (cfiCond212) ?RET_LOW load(1, XDATA, add(CFA_XSP16, literal(-5)))
          CFI (cfiCond212) ?RET_HIGH load(1, XDATA, add(CFA_XSP16, literal(-4)))
          CFI (cfiCond212) ?BRET_EXT load(1, XDATA, add(CFA_XSP16, literal(-3)))
          CFI (cfiCond212) DPL0 load(1, XDATA, add(CFA_XSP16, literal(-2)))
          CFI (cfiCond212) DPH0 load(1, XDATA, add(CFA_XSP16, literal(-1)))
          CFI (cfiCond212) CFA_SP SP+-4
          CFI (cfiCond212) CFA_XSP16 add(XSP16, 33)
          CFI Block cfiCond213 Using cfiCommon0
          CFI (cfiCond213) Function MT_AfDataRequest
          CFI (cfiCond213) Conditional ??CrossCallReturnLabel_157, ??CrossCallReturnLabel_152
          CFI (cfiCond213) R6 load(1, XDATA, add(CFA_XSP16, literal(-16)))
          CFI (cfiCond213) VB load(1, XDATA, add(CFA_XSP16, literal(-15)))
          CFI (cfiCond213) V0 load(1, XDATA, add(CFA_XSP16, literal(-14)))
          CFI (cfiCond213) V1 load(1, XDATA, add(CFA_XSP16, literal(-13)))
          CFI (cfiCond213) V2 load(1, XDATA, add(CFA_XSP16, literal(-12)))
          CFI (cfiCond213) V3 load(1, XDATA, add(CFA_XSP16, literal(-11)))
          CFI (cfiCond213) V4 load(1, XDATA, add(CFA_XSP16, literal(-10)))
          CFI (cfiCond213) V5 load(1, XDATA, add(CFA_XSP16, literal(-9)))
          CFI (cfiCond213) V6 load(1, XDATA, add(CFA_XSP16, literal(-8)))
          CFI (cfiCond213) V7 load(1, XDATA, add(CFA_XSP16, literal(-7)))
          CFI (cfiCond213) R7 load(1, XDATA, add(CFA_XSP16, literal(-6)))
          CFI (cfiCond213) ?RET_LOW load(1, XDATA, add(CFA_XSP16, literal(-5)))
          CFI (cfiCond213) ?RET_HIGH load(1, XDATA, add(CFA_XSP16, literal(-4)))
          CFI (cfiCond213) ?BRET_EXT load(1, XDATA, add(CFA_XSP16, literal(-3)))
          CFI (cfiCond213) DPL0 load(1, XDATA, add(CFA_XSP16, literal(-2)))
          CFI (cfiCond213) DPH0 load(1, XDATA, add(CFA_XSP16, literal(-1)))
          CFI (cfiCond213) CFA_SP SP+-4
          CFI (cfiCond213) CFA_XSP16 add(XSP16, 33)
          CFI Block cfiCond214 Using cfiCommon0
          CFI (cfiCond214) Function MT_AfDataStore
          CFI (cfiCond214) Conditional ??CrossCallReturnLabel_157, ??CrossCallReturnLabel_153
          CFI (cfiCond214) R6 load(1, XDATA, add(CFA_XSP16, literal(-11)))
          CFI (cfiCond214) VB load(1, XDATA, add(CFA_XSP16, literal(-10)))
          CFI (cfiCond214) V0 load(1, XDATA, add(CFA_XSP16, literal(-9)))
          CFI (cfiCond214) V1 load(1, XDATA, add(CFA_XSP16, literal(-8)))
          CFI (cfiCond214) V2 load(1, XDATA, add(CFA_XSP16, literal(-7)))
          CFI (cfiCond214) R7 load(1, XDATA, add(CFA_XSP16, literal(-6)))
          CFI (cfiCond214) ?RET_LOW load(1, XDATA, add(CFA_XSP16, literal(-5)))
          CFI (cfiCond214) ?RET_HIGH load(1, XDATA, add(CFA_XSP16, literal(-4)))
          CFI (cfiCond214) ?BRET_EXT load(1, XDATA, add(CFA_XSP16, literal(-3)))
          CFI (cfiCond214) DPL0 load(1, XDATA, add(CFA_XSP16, literal(-2)))
          CFI (cfiCond214) DPH0 load(1, XDATA, add(CFA_XSP16, literal(-1)))
          CFI (cfiCond214) CFA_SP SP+-4
          CFI (cfiCond214) CFA_XSP16 add(XSP16, 12)
          CFI Block cfiCond215 Using cfiCommon0
          CFI (cfiCond215) Function MT_AfExec
          CFI (cfiCond215) Conditional ??CrossCallReturnLabel_157, ??CrossCallReturnLabel_143
          CFI (cfiCond215) R6 load(1, XDATA, add(CFA_XSP16, literal(-9)))
          CFI (cfiCond215) VB load(1, XDATA, add(CFA_XSP16, literal(-8)))
          CFI (cfiCond215) V0 load(1, XDATA, add(CFA_XSP16, literal(-7)))
          CFI (cfiCond215) R7 load(1, XDATA, add(CFA_XSP16, literal(-6)))
          CFI (cfiCond215) ?RET_LOW load(1, XDATA, add(CFA_XSP16, literal(-5)))
          CFI (cfiCond215) ?RET_HIGH load(1, XDATA, add(CFA_XSP16, literal(-4)))
          CFI (cfiCond215) ?BRET_EXT load(1, XDATA, add(CFA_XSP16, literal(-3)))
          CFI (cfiCond215) DPL0 load(1, XDATA, add(CFA_XSP16, literal(-2)))
          CFI (cfiCond215) DPH0 load(1, XDATA, add(CFA_XSP16, literal(-1)))
          CFI (cfiCond215) CFA_SP SP+-4
          CFI (cfiCond215) CFA_XSP16 add(XSP16, 9)
          CFI Block cfiCond216 Using cfiCommon0
          CFI (cfiCond216) Function MT_AfIncomingMsg
          CFI (cfiCond216) Conditional ??CrossCallReturnLabel_157, ??CrossCallReturnLabel_144
          CFI (cfiCond216) R6 load(1, XDATA, add(CFA_XSP16, literal(-16)))
          CFI (cfiCond216) VB load(1, XDATA, add(CFA_XSP16, literal(-15)))
          CFI (cfiCond216) V0 load(1, XDATA, add(CFA_XSP16, literal(-14)))
          CFI (cfiCond216) V1 load(1, XDATA, add(CFA_XSP16, literal(-13)))
          CFI (cfiCond216) V2 load(1, XDATA, add(CFA_XSP16, literal(-12)))
          CFI (cfiCond216) V3 load(1, XDATA, add(CFA_XSP16, literal(-11)))
          CFI (cfiCond216) V4 load(1, XDATA, add(CFA_XSP16, literal(-10)))
          CFI (cfiCond216) V5 load(1, XDATA, add(CFA_XSP16, literal(-9)))
          CFI (cfiCond216) V6 load(1, XDATA, add(CFA_XSP16, literal(-8)))
          CFI (cfiCond216) V7 load(1, XDATA, add(CFA_XSP16, literal(-7)))
          CFI (cfiCond216) R7 load(1, XDATA, add(CFA_XSP16, literal(-6)))
          CFI (cfiCond216) ?RET_LOW load(1, XDATA, add(CFA_XSP16, literal(-5)))
          CFI (cfiCond216) ?RET_HIGH load(1, XDATA, add(CFA_XSP16, literal(-4)))
          CFI (cfiCond216) ?BRET_EXT load(1, XDATA, add(CFA_XSP16, literal(-3)))
          CFI (cfiCond216) DPL0 load(1, XDATA, add(CFA_XSP16, literal(-2)))
          CFI (cfiCond216) DPH0 load(1, XDATA, add(CFA_XSP16, literal(-1)))
          CFI (cfiCond216) CFA_SP SP+-4
          CFI (cfiCond216) CFA_XSP16 add(XSP16, 23)
          CFI Block cfiCond217 Using cfiCommon0
          CFI (cfiCond217) Function MT_AfIncomingMsg
          CFI (cfiCond217) Conditional ??CrossCallReturnLabel_157, ??CrossCallReturnLabel_145
          CFI (cfiCond217) R6 load(1, XDATA, add(CFA_XSP16, literal(-16)))
          CFI (cfiCond217) VB load(1, XDATA, add(CFA_XSP16, literal(-15)))
          CFI (cfiCond217) V0 load(1, XDATA, add(CFA_XSP16, literal(-14)))
          CFI (cfiCond217) V1 load(1, XDATA, add(CFA_XSP16, literal(-13)))
          CFI (cfiCond217) V2 load(1, XDATA, add(CFA_XSP16, literal(-12)))
          CFI (cfiCond217) V3 load(1, XDATA, add(CFA_XSP16, literal(-11)))
          CFI (cfiCond217) V4 load(1, XDATA, add(CFA_XSP16, literal(-10)))
          CFI (cfiCond217) V5 load(1, XDATA, add(CFA_XSP16, literal(-9)))
          CFI (cfiCond217) V6 load(1, XDATA, add(CFA_XSP16, literal(-8)))
          CFI (cfiCond217) V7 load(1, XDATA, add(CFA_XSP16, literal(-7)))
          CFI (cfiCond217) R7 load(1, XDATA, add(CFA_XSP16, literal(-6)))
          CFI (cfiCond217) ?RET_LOW load(1, XDATA, add(CFA_XSP16, literal(-5)))
          CFI (cfiCond217) ?RET_HIGH load(1, XDATA, add(CFA_XSP16, literal(-4)))
          CFI (cfiCond217) ?BRET_EXT load(1, XDATA, add(CFA_XSP16, literal(-3)))
          CFI (cfiCond217) DPL0 load(1, XDATA, add(CFA_XSP16, literal(-2)))
          CFI (cfiCond217) DPH0 load(1, XDATA, add(CFA_XSP16, literal(-1)))
          CFI (cfiCond217) CFA_SP SP+-4
          CFI (cfiCond217) CFA_XSP16 add(XSP16, 23)
          CFI Block cfiCond218 Using cfiCommon0
          CFI (cfiCond218) Function MT_AfIncomingMsg
          CFI (cfiCond218) Conditional ??CrossCallReturnLabel_157, ??CrossCallReturnLabel_146
          CFI (cfiCond218) R6 load(1, XDATA, add(CFA_XSP16, literal(-16)))
          CFI (cfiCond218) VB load(1, XDATA, add(CFA_XSP16, literal(-15)))
          CFI (cfiCond218) V0 load(1, XDATA, add(CFA_XSP16, literal(-14)))
          CFI (cfiCond218) V1 load(1, XDATA, add(CFA_XSP16, literal(-13)))
          CFI (cfiCond218) V2 load(1, XDATA, add(CFA_XSP16, literal(-12)))
          CFI (cfiCond218) V3 load(1, XDATA, add(CFA_XSP16, literal(-11)))
          CFI (cfiCond218) V4 load(1, XDATA, add(CFA_XSP16, literal(-10)))
          CFI (cfiCond218) V5 load(1, XDATA, add(CFA_XSP16, literal(-9)))
          CFI (cfiCond218) V6 load(1, XDATA, add(CFA_XSP16, literal(-8)))
          CFI (cfiCond218) V7 load(1, XDATA, add(CFA_XSP16, literal(-7)))
          CFI (cfiCond218) R7 load(1, XDATA, add(CFA_XSP16, literal(-6)))
          CFI (cfiCond218) ?RET_LOW load(1, XDATA, add(CFA_XSP16, literal(-5)))
          CFI (cfiCond218) ?RET_HIGH load(1, XDATA, add(CFA_XSP16, literal(-4)))
          CFI (cfiCond218) ?BRET_EXT load(1, XDATA, add(CFA_XSP16, literal(-3)))
          CFI (cfiCond218) DPL0 load(1, XDATA, add(CFA_XSP16, literal(-2)))
          CFI (cfiCond218) DPH0 load(1, XDATA, add(CFA_XSP16, literal(-1)))
          CFI (cfiCond218) CFA_SP SP+-4
          CFI (cfiCond218) CFA_XSP16 add(XSP16, 23)
          CFI Block cfiCond219 Using cfiCommon0
          CFI (cfiCond219) Function MT_AfIncomingMsg
          CFI (cfiCond219) Conditional ??CrossCallReturnLabel_157, ??CrossCallReturnLabel_147
          CFI (cfiCond219) R6 load(1, XDATA, add(CFA_XSP16, literal(-16)))
          CFI (cfiCond219) VB load(1, XDATA, add(CFA_XSP16, literal(-15)))
          CFI (cfiCond219) V0 load(1, XDATA, add(CFA_XSP16, literal(-14)))
          CFI (cfiCond219) V1 load(1, XDATA, add(CFA_XSP16, literal(-13)))
          CFI (cfiCond219) V2 load(1, XDATA, add(CFA_XSP16, literal(-12)))
          CFI (cfiCond219) V3 load(1, XDATA, add(CFA_XSP16, literal(-11)))
          CFI (cfiCond219) V4 load(1, XDATA, add(CFA_XSP16, literal(-10)))
          CFI (cfiCond219) V5 load(1, XDATA, add(CFA_XSP16, literal(-9)))
          CFI (cfiCond219) V6 load(1, XDATA, add(CFA_XSP16, literal(-8)))
          CFI (cfiCond219) V7 load(1, XDATA, add(CFA_XSP16, literal(-7)))
          CFI (cfiCond219) R7 load(1, XDATA, add(CFA_XSP16, literal(-6)))
          CFI (cfiCond219) ?RET_LOW load(1, XDATA, add(CFA_XSP16, literal(-5)))
          CFI (cfiCond219) ?RET_HIGH load(1, XDATA, add(CFA_XSP16, literal(-4)))
          CFI (cfiCond219) ?BRET_EXT load(1, XDATA, add(CFA_XSP16, literal(-3)))
          CFI (cfiCond219) DPL0 load(1, XDATA, add(CFA_XSP16, literal(-2)))
          CFI (cfiCond219) DPH0 load(1, XDATA, add(CFA_XSP16, literal(-1)))
          CFI (cfiCond219) CFA_SP SP+-4
          CFI (cfiCond219) CFA_XSP16 add(XSP16, 23)
          CFI Block cfiCond220 Using cfiCommon0
          CFI (cfiCond220) Function MT_AfDataRetrieve
          CFI (cfiCond220) Conditional ??CrossCallReturnLabel_157, ??CrossCallReturnLabel_148
          CFI (cfiCond220) R6 load(1, XDATA, add(CFA_XSP16, literal(-16)))
          CFI (cfiCond220) VB load(1, XDATA, add(CFA_XSP16, literal(-15)))
          CFI (cfiCond220) V0 load(1, XDATA, add(CFA_XSP16, literal(-14)))
          CFI (cfiCond220) V1 load(1, XDATA, add(CFA_XSP16, literal(-13)))
          CFI (cfiCond220) V2 load(1, XDATA, add(CFA_XSP16, literal(-12)))
          CFI (cfiCond220) V3 load(1, XDATA, add(CFA_XSP16, literal(-11)))
          CFI (cfiCond220) V4 load(1, XDATA, add(CFA_XSP16, literal(-10)))
          CFI (cfiCond220) V5 load(1, XDATA, add(CFA_XSP16, literal(-9)))
          CFI (cfiCond220) V6 load(1, XDATA, add(CFA_XSP16, literal(-8)))
          CFI (cfiCond220) V7 load(1, XDATA, add(CFA_XSP16, literal(-7)))
          CFI (cfiCond220) R7 load(1, XDATA, add(CFA_XSP16, literal(-6)))
          CFI (cfiCond220) ?RET_LOW load(1, XDATA, add(CFA_XSP16, literal(-5)))
          CFI (cfiCond220) ?RET_HIGH load(1, XDATA, add(CFA_XSP16, literal(-4)))
          CFI (cfiCond220) ?BRET_EXT load(1, XDATA, add(CFA_XSP16, literal(-3)))
          CFI (cfiCond220) DPL0 load(1, XDATA, add(CFA_XSP16, literal(-2)))
          CFI (cfiCond220) DPH0 load(1, XDATA, add(CFA_XSP16, literal(-1)))
          CFI (cfiCond220) CFA_SP SP+-4
          CFI (cfiCond220) CFA_XSP16 add(XSP16, 21)
          CFI Block cfiPicker221 Using cfiCommon1
          CFI (cfiPicker221) NoFunction
          CFI (cfiPicker221) Picker
        MOVX    A,@DPTR
        MOV     R0,A
        INC     DPTR
        MOVX    A,@DPTR
        MOV     R1,A
        RET
          CFI EndBlock cfiCond200
          CFI EndBlock cfiCond201
          CFI EndBlock cfiCond202
          CFI EndBlock cfiCond203
          CFI EndBlock cfiCond204
          CFI EndBlock cfiCond205
          CFI EndBlock cfiCond206
          CFI EndBlock cfiCond207
          CFI EndBlock cfiCond208
          CFI EndBlock cfiCond209
          CFI EndBlock cfiCond210
          CFI EndBlock cfiCond211
          CFI EndBlock cfiCond212
          CFI EndBlock cfiCond213
          CFI EndBlock cfiCond214
          CFI EndBlock cfiCond215
          CFI EndBlock cfiCond216
          CFI EndBlock cfiCond217
          CFI EndBlock cfiCond218
          CFI EndBlock cfiCond219
          CFI EndBlock cfiCond220
          CFI EndBlock cfiPicker221

        RSEG BANKED_CODE:HUGECODE:NOROOT(0)
?Subroutine41:
          CFI Block cfiCond222 Using cfiCommon0
          CFI Function MT_AfDataRequest
          CFI Conditional ??CrossCallReturnLabel_141, ??CrossCallReturnLabel_37
          CFI R6 load(1, XDATA, add(CFA_XSP16, literal(-16)))
          CFI VB load(1, XDATA, add(CFA_XSP16, literal(-15)))
          CFI V0 load(1, XDATA, add(CFA_XSP16, literal(-14)))
          CFI V1 load(1, XDATA, add(CFA_XSP16, literal(-13)))
          CFI V2 load(1, XDATA, add(CFA_XSP16, literal(-12)))
          CFI V3 load(1, XDATA, add(CFA_XSP16, literal(-11)))
          CFI V4 load(1, XDATA, add(CFA_XSP16, literal(-10)))
          CFI V5 load(1, XDATA, add(CFA_XSP16, literal(-9)))
          CFI V6 load(1, XDATA, add(CFA_XSP16, literal(-8)))
          CFI V7 load(1, XDATA, add(CFA_XSP16, literal(-7)))
          CFI R7 load(1, XDATA, add(CFA_XSP16, literal(-6)))
          CFI ?RET_LOW load(1, XDATA, add(CFA_XSP16, literal(-5)))
          CFI ?RET_HIGH load(1, XDATA, add(CFA_XSP16, literal(-4)))
          CFI ?BRET_EXT load(1, XDATA, add(CFA_XSP16, literal(-3)))
          CFI DPL0 load(1, XDATA, add(CFA_XSP16, literal(-2)))
          CFI DPH0 load(1, XDATA, add(CFA_XSP16, literal(-1)))
          CFI CFA_SP SP+-4
          CFI CFA_XSP16 add(XSP16, 33)
          CFI Block cfiCond223 Using cfiCommon0
          CFI (cfiCond223) Function MT_AfDataRetrieve
          CFI (cfiCond223) Conditional ??CrossCallReturnLabel_141, ??CrossCallReturnLabel_38
          CFI (cfiCond223) R6 load(1, XDATA, add(CFA_XSP16, literal(-16)))
          CFI (cfiCond223) VB load(1, XDATA, add(CFA_XSP16, literal(-15)))
          CFI (cfiCond223) V0 load(1, XDATA, add(CFA_XSP16, literal(-14)))
          CFI (cfiCond223) V1 load(1, XDATA, add(CFA_XSP16, literal(-13)))
          CFI (cfiCond223) V2 load(1, XDATA, add(CFA_XSP16, literal(-12)))
          CFI (cfiCond223) V3 load(1, XDATA, add(CFA_XSP16, literal(-11)))
          CFI (cfiCond223) V4 load(1, XDATA, add(CFA_XSP16, literal(-10)))
          CFI (cfiCond223) V5 load(1, XDATA, add(CFA_XSP16, literal(-9)))
          CFI (cfiCond223) V6 load(1, XDATA, add(CFA_XSP16, literal(-8)))
          CFI (cfiCond223) V7 load(1, XDATA, add(CFA_XSP16, literal(-7)))
          CFI (cfiCond223) R7 load(1, XDATA, add(CFA_XSP16, literal(-6)))
          CFI (cfiCond223) ?RET_LOW load(1, XDATA, add(CFA_XSP16, literal(-5)))
          CFI (cfiCond223) ?RET_HIGH load(1, XDATA, add(CFA_XSP16, literal(-4)))
          CFI (cfiCond223) ?BRET_EXT load(1, XDATA, add(CFA_XSP16, literal(-3)))
          CFI (cfiCond223) DPL0 load(1, XDATA, add(CFA_XSP16, literal(-2)))
          CFI (cfiCond223) DPH0 load(1, XDATA, add(CFA_XSP16, literal(-1)))
          CFI (cfiCond223) CFA_SP SP+-4
          CFI (cfiCond223) CFA_XSP16 add(XSP16, 21)
          CFI Block cfiCond224 Using cfiCommon0
          CFI (cfiCond224) Function MT_AfDataRetrieve
          CFI (cfiCond224) Conditional ??CrossCallReturnLabel_139, ??CrossCallReturnLabel_6
          CFI (cfiCond224) R6 load(1, XDATA, add(CFA_XSP16, literal(-16)))
          CFI (cfiCond224) VB load(1, XDATA, add(CFA_XSP16, literal(-15)))
          CFI (cfiCond224) V0 load(1, XDATA, add(CFA_XSP16, literal(-14)))
          CFI (cfiCond224) V1 load(1, XDATA, add(CFA_XSP16, literal(-13)))
          CFI (cfiCond224) V2 load(1, XDATA, add(CFA_XSP16, literal(-12)))
          CFI (cfiCond224) V3 load(1, XDATA, add(CFA_XSP16, literal(-11)))
          CFI (cfiCond224) V4 load(1, XDATA, add(CFA_XSP16, literal(-10)))
          CFI (cfiCond224) V5 load(1, XDATA, add(CFA_XSP16, literal(-9)))
          CFI (cfiCond224) V6 load(1, XDATA, add(CFA_XSP16, literal(-8)))
          CFI (cfiCond224) V7 load(1, XDATA, add(CFA_XSP16, literal(-7)))
          CFI (cfiCond224) R7 load(1, XDATA, add(CFA_XSP16, literal(-6)))
          CFI (cfiCond224) ?RET_LOW load(1, XDATA, add(CFA_XSP16, literal(-5)))
          CFI (cfiCond224) ?RET_HIGH load(1, XDATA, add(CFA_XSP16, literal(-4)))
          CFI (cfiCond224) ?BRET_EXT load(1, XDATA, add(CFA_XSP16, literal(-3)))
          CFI (cfiCond224) DPL0 load(1, XDATA, add(CFA_XSP16, literal(-2)))
          CFI (cfiCond224) DPH0 load(1, XDATA, add(CFA_XSP16, literal(-1)))
          CFI (cfiCond224) CFA_SP SP+-4
          CFI (cfiCond224) CFA_XSP16 add(XSP16, 21)
          CFI Block cfiCond225 Using cfiCommon0
          CFI (cfiCond225) Function MT_AfDataRetrieve
          CFI (cfiCond225) Conditional ??CrossCallReturnLabel_139, ??CrossCallReturnLabel_7
          CFI (cfiCond225) R6 load(1, XDATA, add(CFA_XSP16, literal(-16)))
          CFI (cfiCond225) VB load(1, XDATA, add(CFA_XSP16, literal(-15)))
          CFI (cfiCond225) V0 load(1, XDATA, add(CFA_XSP16, literal(-14)))
          CFI (cfiCond225) V1 load(1, XDATA, add(CFA_XSP16, literal(-13)))
          CFI (cfiCond225) V2 load(1, XDATA, add(CFA_XSP16, literal(-12)))
          CFI (cfiCond225) V3 load(1, XDATA, add(CFA_XSP16, literal(-11)))
          CFI (cfiCond225) V4 load(1, XDATA, add(CFA_XSP16, literal(-10)))
          CFI (cfiCond225) V5 load(1, XDATA, add(CFA_XSP16, literal(-9)))
          CFI (cfiCond225) V6 load(1, XDATA, add(CFA_XSP16, literal(-8)))
          CFI (cfiCond225) V7 load(1, XDATA, add(CFA_XSP16, literal(-7)))
          CFI (cfiCond225) R7 load(1, XDATA, add(CFA_XSP16, literal(-6)))
          CFI (cfiCond225) ?RET_LOW load(1, XDATA, add(CFA_XSP16, literal(-5)))
          CFI (cfiCond225) ?RET_HIGH load(1, XDATA, add(CFA_XSP16, literal(-4)))
          CFI (cfiCond225) ?BRET_EXT load(1, XDATA, add(CFA_XSP16, literal(-3)))
          CFI (cfiCond225) DPL0 load(1, XDATA, add(CFA_XSP16, literal(-2)))
          CFI (cfiCond225) DPH0 load(1, XDATA, add(CFA_XSP16, literal(-1)))
          CFI (cfiCond225) CFA_SP SP+-4
          CFI (cfiCond225) CFA_XSP16 add(XSP16, 21)
          CFI Block cfiCond226 Using cfiCommon0
          CFI (cfiCond226) Function MT_AfDataRetrieve
          CFI (cfiCond226) Conditional ??CrossCallReturnLabel_139, ??CrossCallReturnLabel_8
          CFI (cfiCond226) R6 load(1, XDATA, add(CFA_XSP16, literal(-16)))
          CFI (cfiCond226) VB load(1, XDATA, add(CFA_XSP16, literal(-15)))
          CFI (cfiCond226) V0 load(1, XDATA, add(CFA_XSP16, literal(-14)))
          CFI (cfiCond226) V1 load(1, XDATA, add(CFA_XSP16, literal(-13)))
          CFI (cfiCond226) V2 load(1, XDATA, add(CFA_XSP16, literal(-12)))
          CFI (cfiCond226) V3 load(1, XDATA, add(CFA_XSP16, literal(-11)))
          CFI (cfiCond226) V4 load(1, XDATA, add(CFA_XSP16, literal(-10)))
          CFI (cfiCond226) V5 load(1, XDATA, add(CFA_XSP16, literal(-9)))
          CFI (cfiCond226) V6 load(1, XDATA, add(CFA_XSP16, literal(-8)))
          CFI (cfiCond226) V7 load(1, XDATA, add(CFA_XSP16, literal(-7)))
          CFI (cfiCond226) R7 load(1, XDATA, add(CFA_XSP16, literal(-6)))
          CFI (cfiCond226) ?RET_LOW load(1, XDATA, add(CFA_XSP16, literal(-5)))
          CFI (cfiCond226) ?RET_HIGH load(1, XDATA, add(CFA_XSP16, literal(-4)))
          CFI (cfiCond226) ?BRET_EXT load(1, XDATA, add(CFA_XSP16, literal(-3)))
          CFI (cfiCond226) DPL0 load(1, XDATA, add(CFA_XSP16, literal(-2)))
          CFI (cfiCond226) DPH0 load(1, XDATA, add(CFA_XSP16, literal(-1)))
          CFI (cfiCond226) CFA_SP SP+-4
          CFI (cfiCond226) CFA_XSP16 add(XSP16, 21)
          CFI Block cfiCond227 Using cfiCommon0
          CFI (cfiCond227) Function MT_AfDataStore
          CFI (cfiCond227) Conditional ??CrossCallReturnLabel_138
          CFI (cfiCond227) R6 load(1, XDATA, add(CFA_XSP16, literal(-11)))
          CFI (cfiCond227) VB load(1, XDATA, add(CFA_XSP16, literal(-10)))
          CFI (cfiCond227) V0 load(1, XDATA, add(CFA_XSP16, literal(-9)))
          CFI (cfiCond227) V1 load(1, XDATA, add(CFA_XSP16, literal(-8)))
          CFI (cfiCond227) V2 load(1, XDATA, add(CFA_XSP16, literal(-7)))
          CFI (cfiCond227) R7 load(1, XDATA, add(CFA_XSP16, literal(-6)))
          CFI (cfiCond227) ?RET_LOW load(1, XDATA, add(CFA_XSP16, literal(-5)))
          CFI (cfiCond227) ?RET_HIGH load(1, XDATA, add(CFA_XSP16, literal(-4)))
          CFI (cfiCond227) ?BRET_EXT load(1, XDATA, add(CFA_XSP16, literal(-3)))
          CFI (cfiCond227) DPL0 load(1, XDATA, add(CFA_XSP16, literal(-2)))
          CFI (cfiCond227) DPH0 load(1, XDATA, add(CFA_XSP16, literal(-1)))
          CFI (cfiCond227) CFA_SP SP+-2
          CFI (cfiCond227) CFA_XSP16 add(XSP16, 15)
          CFI Block cfiCond228 Using cfiCommon0
          CFI (cfiCond228) Function MT_AfDataRetrieve
          CFI (cfiCond228) Conditional ??CrossCallReturnLabel_140, ??CrossCallReturnLabel_14
          CFI (cfiCond228) R6 load(1, XDATA, add(CFA_XSP16, literal(-16)))
          CFI (cfiCond228) VB load(1, XDATA, add(CFA_XSP16, literal(-15)))
          CFI (cfiCond228) V0 load(1, XDATA, add(CFA_XSP16, literal(-14)))
          CFI (cfiCond228) V1 load(1, XDATA, add(CFA_XSP16, literal(-13)))
          CFI (cfiCond228) V2 load(1, XDATA, add(CFA_XSP16, literal(-12)))
          CFI (cfiCond228) V3 load(1, XDATA, add(CFA_XSP16, literal(-11)))
          CFI (cfiCond228) V4 load(1, XDATA, add(CFA_XSP16, literal(-10)))
          CFI (cfiCond228) V5 load(1, XDATA, add(CFA_XSP16, literal(-9)))
          CFI (cfiCond228) V6 load(1, XDATA, add(CFA_XSP16, literal(-8)))
          CFI (cfiCond228) V7 load(1, XDATA, add(CFA_XSP16, literal(-7)))
          CFI (cfiCond228) R7 load(1, XDATA, add(CFA_XSP16, literal(-6)))
          CFI (cfiCond228) ?RET_LOW load(1, XDATA, add(CFA_XSP16, literal(-5)))
          CFI (cfiCond228) ?RET_HIGH load(1, XDATA, add(CFA_XSP16, literal(-4)))
          CFI (cfiCond228) ?BRET_EXT load(1, XDATA, add(CFA_XSP16, literal(-3)))
          CFI (cfiCond228) DPL0 load(1, XDATA, add(CFA_XSP16, literal(-2)))
          CFI (cfiCond228) DPH0 load(1, XDATA, add(CFA_XSP16, literal(-1)))
          CFI (cfiCond228) CFA_SP SP+-4
          CFI (cfiCond228) CFA_XSP16 add(XSP16, 21)
          CFI Block cfiCond229 Using cfiCommon0
          CFI (cfiCond229) Function MT_AfDataRetrieve
          CFI (cfiCond229) Conditional ??CrossCallReturnLabel_140, ??CrossCallReturnLabel_15
          CFI (cfiCond229) R6 load(1, XDATA, add(CFA_XSP16, literal(-16)))
          CFI (cfiCond229) VB load(1, XDATA, add(CFA_XSP16, literal(-15)))
          CFI (cfiCond229) V0 load(1, XDATA, add(CFA_XSP16, literal(-14)))
          CFI (cfiCond229) V1 load(1, XDATA, add(CFA_XSP16, literal(-13)))
          CFI (cfiCond229) V2 load(1, XDATA, add(CFA_XSP16, literal(-12)))
          CFI (cfiCond229) V3 load(1, XDATA, add(CFA_XSP16, literal(-11)))
          CFI (cfiCond229) V4 load(1, XDATA, add(CFA_XSP16, literal(-10)))
          CFI (cfiCond229) V5 load(1, XDATA, add(CFA_XSP16, literal(-9)))
          CFI (cfiCond229) V6 load(1, XDATA, add(CFA_XSP16, literal(-8)))
          CFI (cfiCond229) V7 load(1, XDATA, add(CFA_XSP16, literal(-7)))
          CFI (cfiCond229) R7 load(1, XDATA, add(CFA_XSP16, literal(-6)))
          CFI (cfiCond229) ?RET_LOW load(1, XDATA, add(CFA_XSP16, literal(-5)))
          CFI (cfiCond229) ?RET_HIGH load(1, XDATA, add(CFA_XSP16, literal(-4)))
          CFI (cfiCond229) ?BRET_EXT load(1, XDATA, add(CFA_XSP16, literal(-3)))
          CFI (cfiCond229) DPL0 load(1, XDATA, add(CFA_XSP16, literal(-2)))
          CFI (cfiCond229) DPH0 load(1, XDATA, add(CFA_XSP16, literal(-1)))
          CFI (cfiCond229) CFA_SP SP+-4
          CFI (cfiCond229) CFA_XSP16 add(XSP16, 21)
          CFI Block cfiCond230 Using cfiCommon0
          CFI (cfiCond230) Function MT_AfDataStore
          CFI (cfiCond230) Conditional ??CrossCallReturnLabel_140, ??CrossCallReturnLabel_16
          CFI (cfiCond230) R6 load(1, XDATA, add(CFA_XSP16, literal(-11)))
          CFI (cfiCond230) VB load(1, XDATA, add(CFA_XSP16, literal(-10)))
          CFI (cfiCond230) V0 load(1, XDATA, add(CFA_XSP16, literal(-9)))
          CFI (cfiCond230) V1 load(1, XDATA, add(CFA_XSP16, literal(-8)))
          CFI (cfiCond230) V2 load(1, XDATA, add(CFA_XSP16, literal(-7)))
          CFI (cfiCond230) R7 load(1, XDATA, add(CFA_XSP16, literal(-6)))
          CFI (cfiCond230) ?RET_LOW load(1, XDATA, add(CFA_XSP16, literal(-5)))
          CFI (cfiCond230) ?RET_HIGH load(1, XDATA, add(CFA_XSP16, literal(-4)))
          CFI (cfiCond230) ?BRET_EXT load(1, XDATA, add(CFA_XSP16, literal(-3)))
          CFI (cfiCond230) DPL0 load(1, XDATA, add(CFA_XSP16, literal(-2)))
          CFI (cfiCond230) DPH0 load(1, XDATA, add(CFA_XSP16, literal(-1)))
          CFI (cfiCond230) CFA_SP SP+-4
          CFI (cfiCond230) CFA_XSP16 add(XSP16, 15)
          CFI Block cfiPicker231 Using cfiCommon1
          CFI (cfiPicker231) NoFunction
          CFI (cfiPicker231) Picker
        MOVX    A,@DPTR
        MOV     R0,A
          CFI EndBlock cfiCond222
          CFI EndBlock cfiCond223
          CFI EndBlock cfiCond224
          CFI EndBlock cfiCond225
          CFI EndBlock cfiCond226
          CFI EndBlock cfiCond227
          CFI EndBlock cfiCond228
          CFI EndBlock cfiCond229
          CFI EndBlock cfiCond230
          CFI EndBlock cfiPicker231
        REQUIRE ??Subroutine58_0
        ; // Fall through to label ??Subroutine58_0

        RSEG BANKED_CODE:HUGECODE:NOROOT(0)
??Subroutine58_0:
          CFI Block cfiCond232 Using cfiCommon0
          CFI Function MT_AfIncomingMsg
          CFI Conditional ??CrossCallReturnLabel_142, ??CrossCallReturnLabel_123
          CFI R6 load(1, XDATA, add(CFA_XSP16, literal(-16)))
          CFI VB load(1, XDATA, add(CFA_XSP16, literal(-15)))
          CFI V0 load(1, XDATA, add(CFA_XSP16, literal(-14)))
          CFI V1 load(1, XDATA, add(CFA_XSP16, literal(-13)))
          CFI V2 load(1, XDATA, add(CFA_XSP16, literal(-12)))
          CFI V3 load(1, XDATA, add(CFA_XSP16, literal(-11)))
          CFI V4 load(1, XDATA, add(CFA_XSP16, literal(-10)))
          CFI V5 load(1, XDATA, add(CFA_XSP16, literal(-9)))
          CFI V6 load(1, XDATA, add(CFA_XSP16, literal(-8)))
          CFI V7 load(1, XDATA, add(CFA_XSP16, literal(-7)))
          CFI R7 load(1, XDATA, add(CFA_XSP16, literal(-6)))
          CFI ?RET_LOW load(1, XDATA, add(CFA_XSP16, literal(-5)))
          CFI ?RET_HIGH load(1, XDATA, add(CFA_XSP16, literal(-4)))
          CFI ?BRET_EXT load(1, XDATA, add(CFA_XSP16, literal(-3)))
          CFI DPL0 load(1, XDATA, add(CFA_XSP16, literal(-2)))
          CFI DPH0 load(1, XDATA, add(CFA_XSP16, literal(-1)))
          CFI CFA_SP SP+-5
          CFI CFA_XSP16 add(XSP16, 23)
          CFI Block cfiCond233 Using cfiCommon0
          CFI (cfiCond233) Function MT_AfDataRetrieve
          CFI (cfiCond233) Conditional ??CrossCallReturnLabel_142, ??CrossCallReturnLabel_124
          CFI (cfiCond233) R6 load(1, XDATA, add(CFA_XSP16, literal(-16)))
          CFI (cfiCond233) VB load(1, XDATA, add(CFA_XSP16, literal(-15)))
          CFI (cfiCond233) V0 load(1, XDATA, add(CFA_XSP16, literal(-14)))
          CFI (cfiCond233) V1 load(1, XDATA, add(CFA_XSP16, literal(-13)))
          CFI (cfiCond233) V2 load(1, XDATA, add(CFA_XSP16, literal(-12)))
          CFI (cfiCond233) V3 load(1, XDATA, add(CFA_XSP16, literal(-11)))
          CFI (cfiCond233) V4 load(1, XDATA, add(CFA_XSP16, literal(-10)))
          CFI (cfiCond233) V5 load(1, XDATA, add(CFA_XSP16, literal(-9)))
          CFI (cfiCond233) V6 load(1, XDATA, add(CFA_XSP16, literal(-8)))
          CFI (cfiCond233) V7 load(1, XDATA, add(CFA_XSP16, literal(-7)))
          CFI (cfiCond233) R7 load(1, XDATA, add(CFA_XSP16, literal(-6)))
          CFI (cfiCond233) ?RET_LOW load(1, XDATA, add(CFA_XSP16, literal(-5)))
          CFI (cfiCond233) ?RET_HIGH load(1, XDATA, add(CFA_XSP16, literal(-4)))
          CFI (cfiCond233) ?BRET_EXT load(1, XDATA, add(CFA_XSP16, literal(-3)))
          CFI (cfiCond233) DPL0 load(1, XDATA, add(CFA_XSP16, literal(-2)))
          CFI (cfiCond233) DPH0 load(1, XDATA, add(CFA_XSP16, literal(-1)))
          CFI (cfiCond233) CFA_SP SP+-5
          CFI (cfiCond233) CFA_XSP16 add(XSP16, 21)
          CFI Block cfiCond234 Using cfiCommon0
          CFI (cfiCond234) Function MT_AfDataRetrieve
          CFI (cfiCond234) Conditional ??CrossCallReturnLabel_142, ??CrossCallReturnLabel_120
          CFI (cfiCond234) R6 load(1, XDATA, add(CFA_XSP16, literal(-16)))
          CFI (cfiCond234) VB load(1, XDATA, add(CFA_XSP16, literal(-15)))
          CFI (cfiCond234) V0 load(1, XDATA, add(CFA_XSP16, literal(-14)))
          CFI (cfiCond234) V1 load(1, XDATA, add(CFA_XSP16, literal(-13)))
          CFI (cfiCond234) V2 load(1, XDATA, add(CFA_XSP16, literal(-12)))
          CFI (cfiCond234) V3 load(1, XDATA, add(CFA_XSP16, literal(-11)))
          CFI (cfiCond234) V4 load(1, XDATA, add(CFA_XSP16, literal(-10)))
          CFI (cfiCond234) V5 load(1, XDATA, add(CFA_XSP16, literal(-9)))
          CFI (cfiCond234) V6 load(1, XDATA, add(CFA_XSP16, literal(-8)))
          CFI (cfiCond234) V7 load(1, XDATA, add(CFA_XSP16, literal(-7)))
          CFI (cfiCond234) R7 load(1, XDATA, add(CFA_XSP16, literal(-6)))
          CFI (cfiCond234) ?RET_LOW load(1, XDATA, add(CFA_XSP16, literal(-5)))
          CFI (cfiCond234) ?RET_HIGH load(1, XDATA, add(CFA_XSP16, literal(-4)))
          CFI (cfiCond234) ?BRET_EXT load(1, XDATA, add(CFA_XSP16, literal(-3)))
          CFI (cfiCond234) DPL0 load(1, XDATA, add(CFA_XSP16, literal(-2)))
          CFI (cfiCond234) DPH0 load(1, XDATA, add(CFA_XSP16, literal(-1)))
          CFI (cfiCond234) CFA_SP SP+-4
          CFI (cfiCond234) CFA_XSP16 add(XSP16, 21)
          CFI Block cfiCond235 Using cfiCommon0
          CFI (cfiCond235) Function MT_AfDataRetrieve
          CFI (cfiCond235) Conditional ??CrossCallReturnLabel_142, ??CrossCallReturnLabel_121
          CFI (cfiCond235) R6 load(1, XDATA, add(CFA_XSP16, literal(-16)))
          CFI (cfiCond235) VB load(1, XDATA, add(CFA_XSP16, literal(-15)))
          CFI (cfiCond235) V0 load(1, XDATA, add(CFA_XSP16, literal(-14)))
          CFI (cfiCond235) V1 load(1, XDATA, add(CFA_XSP16, literal(-13)))
          CFI (cfiCond235) V2 load(1, XDATA, add(CFA_XSP16, literal(-12)))
          CFI (cfiCond235) V3 load(1, XDATA, add(CFA_XSP16, literal(-11)))
          CFI (cfiCond235) V4 load(1, XDATA, add(CFA_XSP16, literal(-10)))
          CFI (cfiCond235) V5 load(1, XDATA, add(CFA_XSP16, literal(-9)))
          CFI (cfiCond235) V6 load(1, XDATA, add(CFA_XSP16, literal(-8)))
          CFI (cfiCond235) V7 load(1, XDATA, add(CFA_XSP16, literal(-7)))
          CFI (cfiCond235) R7 load(1, XDATA, add(CFA_XSP16, literal(-6)))
          CFI (cfiCond235) ?RET_LOW load(1, XDATA, add(CFA_XSP16, literal(-5)))
          CFI (cfiCond235) ?RET_HIGH load(1, XDATA, add(CFA_XSP16, literal(-4)))
          CFI (cfiCond235) ?BRET_EXT load(1, XDATA, add(CFA_XSP16, literal(-3)))
          CFI (cfiCond235) DPL0 load(1, XDATA, add(CFA_XSP16, literal(-2)))
          CFI (cfiCond235) DPH0 load(1, XDATA, add(CFA_XSP16, literal(-1)))
          CFI (cfiCond235) CFA_SP SP+-4
          CFI (cfiCond235) CFA_XSP16 add(XSP16, 21)
          CFI Block cfiCond236 Using cfiCommon0
          CFI (cfiCond236) Function MT_AfDataRetrieve
          CFI (cfiCond236) Conditional ??CrossCallReturnLabel_142, ??CrossCallReturnLabel_122
          CFI (cfiCond236) R6 load(1, XDATA, add(CFA_XSP16, literal(-16)))
          CFI (cfiCond236) VB load(1, XDATA, add(CFA_XSP16, literal(-15)))
          CFI (cfiCond236) V0 load(1, XDATA, add(CFA_XSP16, literal(-14)))
          CFI (cfiCond236) V1 load(1, XDATA, add(CFA_XSP16, literal(-13)))
          CFI (cfiCond236) V2 load(1, XDATA, add(CFA_XSP16, literal(-12)))
          CFI (cfiCond236) V3 load(1, XDATA, add(CFA_XSP16, literal(-11)))
          CFI (cfiCond236) V4 load(1, XDATA, add(CFA_XSP16, literal(-10)))
          CFI (cfiCond236) V5 load(1, XDATA, add(CFA_XSP16, literal(-9)))
          CFI (cfiCond236) V6 load(1, XDATA, add(CFA_XSP16, literal(-8)))
          CFI (cfiCond236) V7 load(1, XDATA, add(CFA_XSP16, literal(-7)))
          CFI (cfiCond236) R7 load(1, XDATA, add(CFA_XSP16, literal(-6)))
          CFI (cfiCond236) ?RET_LOW load(1, XDATA, add(CFA_XSP16, literal(-5)))
          CFI (cfiCond236) ?RET_HIGH load(1, XDATA, add(CFA_XSP16, literal(-4)))
          CFI (cfiCond236) ?BRET_EXT load(1, XDATA, add(CFA_XSP16, literal(-3)))
          CFI (cfiCond236) DPL0 load(1, XDATA, add(CFA_XSP16, literal(-2)))
          CFI (cfiCond236) DPH0 load(1, XDATA, add(CFA_XSP16, literal(-1)))
          CFI (cfiCond236) CFA_SP SP+-4
          CFI (cfiCond236) CFA_XSP16 add(XSP16, 21)
          CFI Block cfiCond237 Using cfiCommon0
          CFI (cfiCond237) Function MT_AfDataRequest
          CFI (cfiCond237) Conditional ??CrossCallReturnLabel_141, ??CrossCallReturnLabel_37
          CFI (cfiCond237) R6 load(1, XDATA, add(CFA_XSP16, literal(-16)))
          CFI (cfiCond237) VB load(1, XDATA, add(CFA_XSP16, literal(-15)))
          CFI (cfiCond237) V0 load(1, XDATA, add(CFA_XSP16, literal(-14)))
          CFI (cfiCond237) V1 load(1, XDATA, add(CFA_XSP16, literal(-13)))
          CFI (cfiCond237) V2 load(1, XDATA, add(CFA_XSP16, literal(-12)))
          CFI (cfiCond237) V3 load(1, XDATA, add(CFA_XSP16, literal(-11)))
          CFI (cfiCond237) V4 load(1, XDATA, add(CFA_XSP16, literal(-10)))
          CFI (cfiCond237) V5 load(1, XDATA, add(CFA_XSP16, literal(-9)))
          CFI (cfiCond237) V6 load(1, XDATA, add(CFA_XSP16, literal(-8)))
          CFI (cfiCond237) V7 load(1, XDATA, add(CFA_XSP16, literal(-7)))
          CFI (cfiCond237) R7 load(1, XDATA, add(CFA_XSP16, literal(-6)))
          CFI (cfiCond237) ?RET_LOW load(1, XDATA, add(CFA_XSP16, literal(-5)))
          CFI (cfiCond237) ?RET_HIGH load(1, XDATA, add(CFA_XSP16, literal(-4)))
          CFI (cfiCond237) ?BRET_EXT load(1, XDATA, add(CFA_XSP16, literal(-3)))
          CFI (cfiCond237) DPL0 load(1, XDATA, add(CFA_XSP16, literal(-2)))
          CFI (cfiCond237) DPH0 load(1, XDATA, add(CFA_XSP16, literal(-1)))
          CFI (cfiCond237) CFA_SP SP+-4
          CFI (cfiCond237) CFA_XSP16 add(XSP16, 33)
          CFI Block cfiCond238 Using cfiCommon0
          CFI (cfiCond238) Function MT_AfDataRetrieve
          CFI (cfiCond238) Conditional ??CrossCallReturnLabel_141, ??CrossCallReturnLabel_38
          CFI (cfiCond238) R6 load(1, XDATA, add(CFA_XSP16, literal(-16)))
          CFI (cfiCond238) VB load(1, XDATA, add(CFA_XSP16, literal(-15)))
          CFI (cfiCond238) V0 load(1, XDATA, add(CFA_XSP16, literal(-14)))
          CFI (cfiCond238) V1 load(1, XDATA, add(CFA_XSP16, literal(-13)))
          CFI (cfiCond238) V2 load(1, XDATA, add(CFA_XSP16, literal(-12)))
          CFI (cfiCond238) V3 load(1, XDATA, add(CFA_XSP16, literal(-11)))
          CFI (cfiCond238) V4 load(1, XDATA, add(CFA_XSP16, literal(-10)))
          CFI (cfiCond238) V5 load(1, XDATA, add(CFA_XSP16, literal(-9)))
          CFI (cfiCond238) V6 load(1, XDATA, add(CFA_XSP16, literal(-8)))
          CFI (cfiCond238) V7 load(1, XDATA, add(CFA_XSP16, literal(-7)))
          CFI (cfiCond238) R7 load(1, XDATA, add(CFA_XSP16, literal(-6)))
          CFI (cfiCond238) ?RET_LOW load(1, XDATA, add(CFA_XSP16, literal(-5)))
          CFI (cfiCond238) ?RET_HIGH load(1, XDATA, add(CFA_XSP16, literal(-4)))
          CFI (cfiCond238) ?BRET_EXT load(1, XDATA, add(CFA_XSP16, literal(-3)))
          CFI (cfiCond238) DPL0 load(1, XDATA, add(CFA_XSP16, literal(-2)))
          CFI (cfiCond238) DPH0 load(1, XDATA, add(CFA_XSP16, literal(-1)))
          CFI (cfiCond238) CFA_SP SP+-4
          CFI (cfiCond238) CFA_XSP16 add(XSP16, 21)
          CFI Block cfiCond239 Using cfiCommon0
          CFI (cfiCond239) Function MT_AfDataRetrieve
          CFI (cfiCond239) Conditional ??CrossCallReturnLabel_139, ??CrossCallReturnLabel_6
          CFI (cfiCond239) R6 load(1, XDATA, add(CFA_XSP16, literal(-16)))
          CFI (cfiCond239) VB load(1, XDATA, add(CFA_XSP16, literal(-15)))
          CFI (cfiCond239) V0 load(1, XDATA, add(CFA_XSP16, literal(-14)))
          CFI (cfiCond239) V1 load(1, XDATA, add(CFA_XSP16, literal(-13)))
          CFI (cfiCond239) V2 load(1, XDATA, add(CFA_XSP16, literal(-12)))
          CFI (cfiCond239) V3 load(1, XDATA, add(CFA_XSP16, literal(-11)))
          CFI (cfiCond239) V4 load(1, XDATA, add(CFA_XSP16, literal(-10)))
          CFI (cfiCond239) V5 load(1, XDATA, add(CFA_XSP16, literal(-9)))
          CFI (cfiCond239) V6 load(1, XDATA, add(CFA_XSP16, literal(-8)))
          CFI (cfiCond239) V7 load(1, XDATA, add(CFA_XSP16, literal(-7)))
          CFI (cfiCond239) R7 load(1, XDATA, add(CFA_XSP16, literal(-6)))
          CFI (cfiCond239) ?RET_LOW load(1, XDATA, add(CFA_XSP16, literal(-5)))
          CFI (cfiCond239) ?RET_HIGH load(1, XDATA, add(CFA_XSP16, literal(-4)))
          CFI (cfiCond239) ?BRET_EXT load(1, XDATA, add(CFA_XSP16, literal(-3)))
          CFI (cfiCond239) DPL0 load(1, XDATA, add(CFA_XSP16, literal(-2)))
          CFI (cfiCond239) DPH0 load(1, XDATA, add(CFA_XSP16, literal(-1)))
          CFI (cfiCond239) CFA_SP SP+-4
          CFI (cfiCond239) CFA_XSP16 add(XSP16, 21)
          CFI Block cfiCond240 Using cfiCommon0
          CFI (cfiCond240) Function MT_AfDataRetrieve
          CFI (cfiCond240) Conditional ??CrossCallReturnLabel_139, ??CrossCallReturnLabel_7
          CFI (cfiCond240) R6 load(1, XDATA, add(CFA_XSP16, literal(-16)))
          CFI (cfiCond240) VB load(1, XDATA, add(CFA_XSP16, literal(-15)))
          CFI (cfiCond240) V0 load(1, XDATA, add(CFA_XSP16, literal(-14)))
          CFI (cfiCond240) V1 load(1, XDATA, add(CFA_XSP16, literal(-13)))
          CFI (cfiCond240) V2 load(1, XDATA, add(CFA_XSP16, literal(-12)))
          CFI (cfiCond240) V3 load(1, XDATA, add(CFA_XSP16, literal(-11)))
          CFI (cfiCond240) V4 load(1, XDATA, add(CFA_XSP16, literal(-10)))
          CFI (cfiCond240) V5 load(1, XDATA, add(CFA_XSP16, literal(-9)))
          CFI (cfiCond240) V6 load(1, XDATA, add(CFA_XSP16, literal(-8)))
          CFI (cfiCond240) V7 load(1, XDATA, add(CFA_XSP16, literal(-7)))
          CFI (cfiCond240) R7 load(1, XDATA, add(CFA_XSP16, literal(-6)))
          CFI (cfiCond240) ?RET_LOW load(1, XDATA, add(CFA_XSP16, literal(-5)))
          CFI (cfiCond240) ?RET_HIGH load(1, XDATA, add(CFA_XSP16, literal(-4)))
          CFI (cfiCond240) ?BRET_EXT load(1, XDATA, add(CFA_XSP16, literal(-3)))
          CFI (cfiCond240) DPL0 load(1, XDATA, add(CFA_XSP16, literal(-2)))
          CFI (cfiCond240) DPH0 load(1, XDATA, add(CFA_XSP16, literal(-1)))
          CFI (cfiCond240) CFA_SP SP+-4
          CFI (cfiCond240) CFA_XSP16 add(XSP16, 21)
          CFI Block cfiCond241 Using cfiCommon0
          CFI (cfiCond241) Function MT_AfDataRetrieve
          CFI (cfiCond241) Conditional ??CrossCallReturnLabel_139, ??CrossCallReturnLabel_8
          CFI (cfiCond241) R6 load(1, XDATA, add(CFA_XSP16, literal(-16)))
          CFI (cfiCond241) VB load(1, XDATA, add(CFA_XSP16, literal(-15)))
          CFI (cfiCond241) V0 load(1, XDATA, add(CFA_XSP16, literal(-14)))
          CFI (cfiCond241) V1 load(1, XDATA, add(CFA_XSP16, literal(-13)))
          CFI (cfiCond241) V2 load(1, XDATA, add(CFA_XSP16, literal(-12)))
          CFI (cfiCond241) V3 load(1, XDATA, add(CFA_XSP16, literal(-11)))
          CFI (cfiCond241) V4 load(1, XDATA, add(CFA_XSP16, literal(-10)))
          CFI (cfiCond241) V5 load(1, XDATA, add(CFA_XSP16, literal(-9)))
          CFI (cfiCond241) V6 load(1, XDATA, add(CFA_XSP16, literal(-8)))
          CFI (cfiCond241) V7 load(1, XDATA, add(CFA_XSP16, literal(-7)))
          CFI (cfiCond241) R7 load(1, XDATA, add(CFA_XSP16, literal(-6)))
          CFI (cfiCond241) ?RET_LOW load(1, XDATA, add(CFA_XSP16, literal(-5)))
          CFI (cfiCond241) ?RET_HIGH load(1, XDATA, add(CFA_XSP16, literal(-4)))
          CFI (cfiCond241) ?BRET_EXT load(1, XDATA, add(CFA_XSP16, literal(-3)))
          CFI (cfiCond241) DPL0 load(1, XDATA, add(CFA_XSP16, literal(-2)))
          CFI (cfiCond241) DPH0 load(1, XDATA, add(CFA_XSP16, literal(-1)))
          CFI (cfiCond241) CFA_SP SP+-4
          CFI (cfiCond241) CFA_XSP16 add(XSP16, 21)
          CFI Block cfiCond242 Using cfiCommon0
          CFI (cfiCond242) Function MT_AfDataStore
          CFI (cfiCond242) Conditional ??CrossCallReturnLabel_138
          CFI (cfiCond242) R6 load(1, XDATA, add(CFA_XSP16, literal(-11)))
          CFI (cfiCond242) VB load(1, XDATA, add(CFA_XSP16, literal(-10)))
          CFI (cfiCond242) V0 load(1, XDATA, add(CFA_XSP16, literal(-9)))
          CFI (cfiCond242) V1 load(1, XDATA, add(CFA_XSP16, literal(-8)))
          CFI (cfiCond242) V2 load(1, XDATA, add(CFA_XSP16, literal(-7)))
          CFI (cfiCond242) R7 load(1, XDATA, add(CFA_XSP16, literal(-6)))
          CFI (cfiCond242) ?RET_LOW load(1, XDATA, add(CFA_XSP16, literal(-5)))
          CFI (cfiCond242) ?RET_HIGH load(1, XDATA, add(CFA_XSP16, literal(-4)))
          CFI (cfiCond242) ?BRET_EXT load(1, XDATA, add(CFA_XSP16, literal(-3)))
          CFI (cfiCond242) DPL0 load(1, XDATA, add(CFA_XSP16, literal(-2)))
          CFI (cfiCond242) DPH0 load(1, XDATA, add(CFA_XSP16, literal(-1)))
          CFI (cfiCond242) CFA_SP SP+-2
          CFI (cfiCond242) CFA_XSP16 add(XSP16, 15)
          CFI Block cfiCond243 Using cfiCommon0
          CFI (cfiCond243) Function MT_AfDataRetrieve
          CFI (cfiCond243) Conditional ??CrossCallReturnLabel_140, ??CrossCallReturnLabel_14
          CFI (cfiCond243) R6 load(1, XDATA, add(CFA_XSP16, literal(-16)))
          CFI (cfiCond243) VB load(1, XDATA, add(CFA_XSP16, literal(-15)))
          CFI (cfiCond243) V0 load(1, XDATA, add(CFA_XSP16, literal(-14)))
          CFI (cfiCond243) V1 load(1, XDATA, add(CFA_XSP16, literal(-13)))
          CFI (cfiCond243) V2 load(1, XDATA, add(CFA_XSP16, literal(-12)))
          CFI (cfiCond243) V3 load(1, XDATA, add(CFA_XSP16, literal(-11)))
          CFI (cfiCond243) V4 load(1, XDATA, add(CFA_XSP16, literal(-10)))
          CFI (cfiCond243) V5 load(1, XDATA, add(CFA_XSP16, literal(-9)))
          CFI (cfiCond243) V6 load(1, XDATA, add(CFA_XSP16, literal(-8)))
          CFI (cfiCond243) V7 load(1, XDATA, add(CFA_XSP16, literal(-7)))
          CFI (cfiCond243) R7 load(1, XDATA, add(CFA_XSP16, literal(-6)))
          CFI (cfiCond243) ?RET_LOW load(1, XDATA, add(CFA_XSP16, literal(-5)))
          CFI (cfiCond243) ?RET_HIGH load(1, XDATA, add(CFA_XSP16, literal(-4)))
          CFI (cfiCond243) ?BRET_EXT load(1, XDATA, add(CFA_XSP16, literal(-3)))
          CFI (cfiCond243) DPL0 load(1, XDATA, add(CFA_XSP16, literal(-2)))
          CFI (cfiCond243) DPH0 load(1, XDATA, add(CFA_XSP16, literal(-1)))
          CFI (cfiCond243) CFA_SP SP+-4
          CFI (cfiCond243) CFA_XSP16 add(XSP16, 21)
          CFI Block cfiCond244 Using cfiCommon0
          CFI (cfiCond244) Function MT_AfDataRetrieve
          CFI (cfiCond244) Conditional ??CrossCallReturnLabel_140, ??CrossCallReturnLabel_15
          CFI (cfiCond244) R6 load(1, XDATA, add(CFA_XSP16, literal(-16)))
          CFI (cfiCond244) VB load(1, XDATA, add(CFA_XSP16, literal(-15)))
          CFI (cfiCond244) V0 load(1, XDATA, add(CFA_XSP16, literal(-14)))
          CFI (cfiCond244) V1 load(1, XDATA, add(CFA_XSP16, literal(-13)))
          CFI (cfiCond244) V2 load(1, XDATA, add(CFA_XSP16, literal(-12)))
          CFI (cfiCond244) V3 load(1, XDATA, add(CFA_XSP16, literal(-11)))
          CFI (cfiCond244) V4 load(1, XDATA, add(CFA_XSP16, literal(-10)))
          CFI (cfiCond244) V5 load(1, XDATA, add(CFA_XSP16, literal(-9)))
          CFI (cfiCond244) V6 load(1, XDATA, add(CFA_XSP16, literal(-8)))
          CFI (cfiCond244) V7 load(1, XDATA, add(CFA_XSP16, literal(-7)))
          CFI (cfiCond244) R7 load(1, XDATA, add(CFA_XSP16, literal(-6)))
          CFI (cfiCond244) ?RET_LOW load(1, XDATA, add(CFA_XSP16, literal(-5)))
          CFI (cfiCond244) ?RET_HIGH load(1, XDATA, add(CFA_XSP16, literal(-4)))
          CFI (cfiCond244) ?BRET_EXT load(1, XDATA, add(CFA_XSP16, literal(-3)))
          CFI (cfiCond244) DPL0 load(1, XDATA, add(CFA_XSP16, literal(-2)))
          CFI (cfiCond244) DPH0 load(1, XDATA, add(CFA_XSP16, literal(-1)))
          CFI (cfiCond244) CFA_SP SP+-4
          CFI (cfiCond244) CFA_XSP16 add(XSP16, 21)
          CFI Block cfiCond245 Using cfiCommon0
          CFI (cfiCond245) Function MT_AfDataStore
          CFI (cfiCond245) Conditional ??CrossCallReturnLabel_140, ??CrossCallReturnLabel_16
          CFI (cfiCond245) R6 load(1, XDATA, add(CFA_XSP16, literal(-11)))
          CFI (cfiCond245) VB load(1, XDATA, add(CFA_XSP16, literal(-10)))
          CFI (cfiCond245) V0 load(1, XDATA, add(CFA_XSP16, literal(-9)))
          CFI (cfiCond245) V1 load(1, XDATA, add(CFA_XSP16, literal(-8)))
          CFI (cfiCond245) V2 load(1, XDATA, add(CFA_XSP16, literal(-7)))
          CFI (cfiCond245) R7 load(1, XDATA, add(CFA_XSP16, literal(-6)))
          CFI (cfiCond245) ?RET_LOW load(1, XDATA, add(CFA_XSP16, literal(-5)))
          CFI (cfiCond245) ?RET_HIGH load(1, XDATA, add(CFA_XSP16, literal(-4)))
          CFI (cfiCond245) ?BRET_EXT load(1, XDATA, add(CFA_XSP16, literal(-3)))
          CFI (cfiCond245) DPL0 load(1, XDATA, add(CFA_XSP16, literal(-2)))
          CFI (cfiCond245) DPH0 load(1, XDATA, add(CFA_XSP16, literal(-1)))
          CFI (cfiCond245) CFA_SP SP+-4
          CFI (cfiCond245) CFA_XSP16 add(XSP16, 15)
          CFI Block cfiPicker246 Using cfiCommon1
          CFI (cfiPicker246) NoFunction
          CFI (cfiPicker246) Picker
        INC     DPTR
        MOVX    A,@DPTR
        MOV     DPH,A
        MOV     DPL,R0
        RET
          CFI EndBlock cfiCond232
          CFI EndBlock cfiCond233
          CFI EndBlock cfiCond234
          CFI EndBlock cfiCond235
          CFI EndBlock cfiCond236
          CFI EndBlock cfiCond237
          CFI EndBlock cfiCond238
          CFI EndBlock cfiCond239
          CFI EndBlock cfiCond240
          CFI EndBlock cfiCond241
          CFI EndBlock cfiCond242
          CFI EndBlock cfiCond243
          CFI EndBlock cfiCond244
          CFI EndBlock cfiCond245
          CFI EndBlock cfiPicker246

        RSEG BANKED_CODE:HUGECODE:NOROOT(0)
?Subroutine4:
          CFI Block cfiCond247 Using cfiCommon0
          CFI Function MT_AfIncomingMsg
          CFI Conditional ??CrossCallReturnLabel_2
          CFI R6 load(1, XDATA, add(CFA_XSP16, literal(-16)))
          CFI VB load(1, XDATA, add(CFA_XSP16, literal(-15)))
          CFI V0 load(1, XDATA, add(CFA_XSP16, literal(-14)))
          CFI V1 load(1, XDATA, add(CFA_XSP16, literal(-13)))
          CFI V2 load(1, XDATA, add(CFA_XSP16, literal(-12)))
          CFI V3 load(1, XDATA, add(CFA_XSP16, literal(-11)))
          CFI V4 load(1, XDATA, add(CFA_XSP16, literal(-10)))
          CFI V5 load(1, XDATA, add(CFA_XSP16, literal(-9)))
          CFI V6 load(1, XDATA, add(CFA_XSP16, literal(-8)))
          CFI V7 load(1, XDATA, add(CFA_XSP16, literal(-7)))
          CFI R7 load(1, XDATA, add(CFA_XSP16, literal(-6)))
          CFI ?RET_LOW load(1, XDATA, add(CFA_XSP16, literal(-5)))
          CFI ?RET_HIGH load(1, XDATA, add(CFA_XSP16, literal(-4)))
          CFI ?BRET_EXT load(1, XDATA, add(CFA_XSP16, literal(-3)))
          CFI DPL0 load(1, XDATA, add(CFA_XSP16, literal(-2)))
          CFI DPH0 load(1, XDATA, add(CFA_XSP16, literal(-1)))
          CFI CFA_SP SP+-2
          CFI CFA_XSP16 add(XSP16, 26)
          CFI Block cfiCond248 Using cfiCommon0
          CFI (cfiCond248) Function MT_AfDataRetrieve
          CFI (cfiCond248) Conditional ??CrossCallReturnLabel_3
          CFI (cfiCond248) R6 load(1, XDATA, add(CFA_XSP16, literal(-16)))
          CFI (cfiCond248) VB load(1, XDATA, add(CFA_XSP16, literal(-15)))
          CFI (cfiCond248) V0 load(1, XDATA, add(CFA_XSP16, literal(-14)))
          CFI (cfiCond248) V1 load(1, XDATA, add(CFA_XSP16, literal(-13)))
          CFI (cfiCond248) V2 load(1, XDATA, add(CFA_XSP16, literal(-12)))
          CFI (cfiCond248) V3 load(1, XDATA, add(CFA_XSP16, literal(-11)))
          CFI (cfiCond248) V4 load(1, XDATA, add(CFA_XSP16, literal(-10)))
          CFI (cfiCond248) V5 load(1, XDATA, add(CFA_XSP16, literal(-9)))
          CFI (cfiCond248) V6 load(1, XDATA, add(CFA_XSP16, literal(-8)))
          CFI (cfiCond248) V7 load(1, XDATA, add(CFA_XSP16, literal(-7)))
          CFI (cfiCond248) R7 load(1, XDATA, add(CFA_XSP16, literal(-6)))
          CFI (cfiCond248) ?RET_LOW load(1, XDATA, add(CFA_XSP16, literal(-5)))
          CFI (cfiCond248) ?RET_HIGH load(1, XDATA, add(CFA_XSP16, literal(-4)))
          CFI (cfiCond248) ?BRET_EXT load(1, XDATA, add(CFA_XSP16, literal(-3)))
          CFI (cfiCond248) DPL0 load(1, XDATA, add(CFA_XSP16, literal(-2)))
          CFI (cfiCond248) DPH0 load(1, XDATA, add(CFA_XSP16, literal(-1)))
          CFI (cfiCond248) CFA_SP SP+-2
          CFI (cfiCond248) CFA_XSP16 add(XSP16, 21)
          CFI Block cfiCond249 Using cfiCommon0
          CFI (cfiCond249) Function MT_AfDataRetrieve
          CFI (cfiCond249) Conditional ??CrossCallReturnLabel_4
          CFI (cfiCond249) R6 load(1, XDATA, add(CFA_XSP16, literal(-16)))
          CFI (cfiCond249) VB load(1, XDATA, add(CFA_XSP16, literal(-15)))
          CFI (cfiCond249) V0 load(1, XDATA, add(CFA_XSP16, literal(-14)))
          CFI (cfiCond249) V1 load(1, XDATA, add(CFA_XSP16, literal(-13)))
          CFI (cfiCond249) V2 load(1, XDATA, add(CFA_XSP16, literal(-12)))
          CFI (cfiCond249) V3 load(1, XDATA, add(CFA_XSP16, literal(-11)))
          CFI (cfiCond249) V4 load(1, XDATA, add(CFA_XSP16, literal(-10)))
          CFI (cfiCond249) V5 load(1, XDATA, add(CFA_XSP16, literal(-9)))
          CFI (cfiCond249) V6 load(1, XDATA, add(CFA_XSP16, literal(-8)))
          CFI (cfiCond249) V7 load(1, XDATA, add(CFA_XSP16, literal(-7)))
          CFI (cfiCond249) R7 load(1, XDATA, add(CFA_XSP16, literal(-6)))
          CFI (cfiCond249) ?RET_LOW load(1, XDATA, add(CFA_XSP16, literal(-5)))
          CFI (cfiCond249) ?RET_HIGH load(1, XDATA, add(CFA_XSP16, literal(-4)))
          CFI (cfiCond249) ?BRET_EXT load(1, XDATA, add(CFA_XSP16, literal(-3)))
          CFI (cfiCond249) DPL0 load(1, XDATA, add(CFA_XSP16, literal(-2)))
          CFI (cfiCond249) DPH0 load(1, XDATA, add(CFA_XSP16, literal(-1)))
          CFI (cfiCond249) CFA_SP SP+-2
          CFI (cfiCond249) CFA_XSP16 add(XSP16, 21)
          CFI Block cfiCond250 Using cfiCommon0
          CFI (cfiCond250) Function MT_AfDataRetrieve
          CFI (cfiCond250) Conditional ??CrossCallReturnLabel_5
          CFI (cfiCond250) R6 load(1, XDATA, add(CFA_XSP16, literal(-16)))
          CFI (cfiCond250) VB load(1, XDATA, add(CFA_XSP16, literal(-15)))
          CFI (cfiCond250) V0 load(1, XDATA, add(CFA_XSP16, literal(-14)))
          CFI (cfiCond250) V1 load(1, XDATA, add(CFA_XSP16, literal(-13)))
          CFI (cfiCond250) V2 load(1, XDATA, add(CFA_XSP16, literal(-12)))
          CFI (cfiCond250) V3 load(1, XDATA, add(CFA_XSP16, literal(-11)))
          CFI (cfiCond250) V4 load(1, XDATA, add(CFA_XSP16, literal(-10)))
          CFI (cfiCond250) V5 load(1, XDATA, add(CFA_XSP16, literal(-9)))
          CFI (cfiCond250) V6 load(1, XDATA, add(CFA_XSP16, literal(-8)))
          CFI (cfiCond250) V7 load(1, XDATA, add(CFA_XSP16, literal(-7)))
          CFI (cfiCond250) R7 load(1, XDATA, add(CFA_XSP16, literal(-6)))
          CFI (cfiCond250) ?RET_LOW load(1, XDATA, add(CFA_XSP16, literal(-5)))
          CFI (cfiCond250) ?RET_HIGH load(1, XDATA, add(CFA_XSP16, literal(-4)))
          CFI (cfiCond250) ?BRET_EXT load(1, XDATA, add(CFA_XSP16, literal(-3)))
          CFI (cfiCond250) DPL0 load(1, XDATA, add(CFA_XSP16, literal(-2)))
          CFI (cfiCond250) DPH0 load(1, XDATA, add(CFA_XSP16, literal(-1)))
          CFI (cfiCond250) CFA_SP SP+-2
          CFI (cfiCond250) CFA_XSP16 add(XSP16, 21)
          CFI Block cfiPicker251 Using cfiCommon1
          CFI (cfiPicker251) NoFunction
          CFI (cfiPicker251) Picker
        LCALL   ?Subroutine40 & 0xFFFF
??CrossCallReturnLabel_76:
        MOVX    A,@DPTR
        RET
          CFI EndBlock cfiCond247
          CFI EndBlock cfiCond248
          CFI EndBlock cfiCond249
          CFI EndBlock cfiCond250
          CFI EndBlock cfiPicker251

        RSEG BANKED_CODE:HUGECODE:NOROOT(0)
?Subroutine40:
          CFI Block cfiCond252 Using cfiCommon0
          CFI Function MT_AfIncomingMsg
          CFI Conditional ??CrossCallReturnLabel_77, ??CrossCallReturnLabel_11
          CFI R6 load(1, XDATA, add(CFA_XSP16, literal(-16)))
          CFI VB load(1, XDATA, add(CFA_XSP16, literal(-15)))
          CFI V0 load(1, XDATA, add(CFA_XSP16, literal(-14)))
          CFI V1 load(1, XDATA, add(CFA_XSP16, literal(-13)))
          CFI V2 load(1, XDATA, add(CFA_XSP16, literal(-12)))
          CFI V3 load(1, XDATA, add(CFA_XSP16, literal(-11)))
          CFI V4 load(1, XDATA, add(CFA_XSP16, literal(-10)))
          CFI V5 load(1, XDATA, add(CFA_XSP16, literal(-9)))
          CFI V6 load(1, XDATA, add(CFA_XSP16, literal(-8)))
          CFI V7 load(1, XDATA, add(CFA_XSP16, literal(-7)))
          CFI R7 load(1, XDATA, add(CFA_XSP16, literal(-6)))
          CFI ?RET_LOW load(1, XDATA, add(CFA_XSP16, literal(-5)))
          CFI ?RET_HIGH load(1, XDATA, add(CFA_XSP16, literal(-4)))
          CFI ?BRET_EXT load(1, XDATA, add(CFA_XSP16, literal(-3)))
          CFI DPL0 load(1, XDATA, add(CFA_XSP16, literal(-2)))
          CFI DPH0 load(1, XDATA, add(CFA_XSP16, literal(-1)))
          CFI CFA_SP SP+-5
          CFI CFA_XSP16 add(XSP16, 23)
          CFI Block cfiCond253 Using cfiCommon0
          CFI (cfiCond253) Function MT_AfIncomingMsg
          CFI (cfiCond253) Conditional ??CrossCallReturnLabel_77, ??CrossCallReturnLabel_12
          CFI (cfiCond253) R6 load(1, XDATA, add(CFA_XSP16, literal(-16)))
          CFI (cfiCond253) VB load(1, XDATA, add(CFA_XSP16, literal(-15)))
          CFI (cfiCond253) V0 load(1, XDATA, add(CFA_XSP16, literal(-14)))
          CFI (cfiCond253) V1 load(1, XDATA, add(CFA_XSP16, literal(-13)))
          CFI (cfiCond253) V2 load(1, XDATA, add(CFA_XSP16, literal(-12)))
          CFI (cfiCond253) V3 load(1, XDATA, add(CFA_XSP16, literal(-11)))
          CFI (cfiCond253) V4 load(1, XDATA, add(CFA_XSP16, literal(-10)))
          CFI (cfiCond253) V5 load(1, XDATA, add(CFA_XSP16, literal(-9)))
          CFI (cfiCond253) V6 load(1, XDATA, add(CFA_XSP16, literal(-8)))
          CFI (cfiCond253) V7 load(1, XDATA, add(CFA_XSP16, literal(-7)))
          CFI (cfiCond253) R7 load(1, XDATA, add(CFA_XSP16, literal(-6)))
          CFI (cfiCond253) ?RET_LOW load(1, XDATA, add(CFA_XSP16, literal(-5)))
          CFI (cfiCond253) ?RET_HIGH load(1, XDATA, add(CFA_XSP16, literal(-4)))
          CFI (cfiCond253) ?BRET_EXT load(1, XDATA, add(CFA_XSP16, literal(-3)))
          CFI (cfiCond253) DPL0 load(1, XDATA, add(CFA_XSP16, literal(-2)))
          CFI (cfiCond253) DPH0 load(1, XDATA, add(CFA_XSP16, literal(-1)))
          CFI (cfiCond253) CFA_SP SP+-5
          CFI (cfiCond253) CFA_XSP16 add(XSP16, 23)
          CFI Block cfiCond254 Using cfiCommon0
          CFI (cfiCond254) Function MT_AfDataRetrieve
          CFI (cfiCond254) Conditional ??CrossCallReturnLabel_77, ??CrossCallReturnLabel_13
          CFI (cfiCond254) R6 load(1, XDATA, add(CFA_XSP16, literal(-16)))
          CFI (cfiCond254) VB load(1, XDATA, add(CFA_XSP16, literal(-15)))
          CFI (cfiCond254) V0 load(1, XDATA, add(CFA_XSP16, literal(-14)))
          CFI (cfiCond254) V1 load(1, XDATA, add(CFA_XSP16, literal(-13)))
          CFI (cfiCond254) V2 load(1, XDATA, add(CFA_XSP16, literal(-12)))
          CFI (cfiCond254) V3 load(1, XDATA, add(CFA_XSP16, literal(-11)))
          CFI (cfiCond254) V4 load(1, XDATA, add(CFA_XSP16, literal(-10)))
          CFI (cfiCond254) V5 load(1, XDATA, add(CFA_XSP16, literal(-9)))
          CFI (cfiCond254) V6 load(1, XDATA, add(CFA_XSP16, literal(-8)))
          CFI (cfiCond254) V7 load(1, XDATA, add(CFA_XSP16, literal(-7)))
          CFI (cfiCond254) R7 load(1, XDATA, add(CFA_XSP16, literal(-6)))
          CFI (cfiCond254) ?RET_LOW load(1, XDATA, add(CFA_XSP16, literal(-5)))
          CFI (cfiCond254) ?RET_HIGH load(1, XDATA, add(CFA_XSP16, literal(-4)))
          CFI (cfiCond254) ?BRET_EXT load(1, XDATA, add(CFA_XSP16, literal(-3)))
          CFI (cfiCond254) DPL0 load(1, XDATA, add(CFA_XSP16, literal(-2)))
          CFI (cfiCond254) DPH0 load(1, XDATA, add(CFA_XSP16, literal(-1)))
          CFI (cfiCond254) CFA_SP SP+-4
          CFI (cfiCond254) CFA_XSP16 add(XSP16, 21)
          CFI Block cfiCond255 Using cfiCommon0
          CFI (cfiCond255) Function MT_AfIncomingMsg
          CFI (cfiCond255) Conditional ??CrossCallReturnLabel_76, ??CrossCallReturnLabel_2
          CFI (cfiCond255) R6 load(1, XDATA, add(CFA_XSP16, literal(-16)))
          CFI (cfiCond255) VB load(1, XDATA, add(CFA_XSP16, literal(-15)))
          CFI (cfiCond255) V0 load(1, XDATA, add(CFA_XSP16, literal(-14)))
          CFI (cfiCond255) V1 load(1, XDATA, add(CFA_XSP16, literal(-13)))
          CFI (cfiCond255) V2 load(1, XDATA, add(CFA_XSP16, literal(-12)))
          CFI (cfiCond255) V3 load(1, XDATA, add(CFA_XSP16, literal(-11)))
          CFI (cfiCond255) V4 load(1, XDATA, add(CFA_XSP16, literal(-10)))
          CFI (cfiCond255) V5 load(1, XDATA, add(CFA_XSP16, literal(-9)))
          CFI (cfiCond255) V6 load(1, XDATA, add(CFA_XSP16, literal(-8)))
          CFI (cfiCond255) V7 load(1, XDATA, add(CFA_XSP16, literal(-7)))
          CFI (cfiCond255) R7 load(1, XDATA, add(CFA_XSP16, literal(-6)))
          CFI (cfiCond255) ?RET_LOW load(1, XDATA, add(CFA_XSP16, literal(-5)))
          CFI (cfiCond255) ?RET_HIGH load(1, XDATA, add(CFA_XSP16, literal(-4)))
          CFI (cfiCond255) ?BRET_EXT load(1, XDATA, add(CFA_XSP16, literal(-3)))
          CFI (cfiCond255) DPL0 load(1, XDATA, add(CFA_XSP16, literal(-2)))
          CFI (cfiCond255) DPH0 load(1, XDATA, add(CFA_XSP16, literal(-1)))
          CFI (cfiCond255) CFA_SP SP+-4
          CFI (cfiCond255) CFA_XSP16 add(XSP16, 26)
          CFI Block cfiCond256 Using cfiCommon0
          CFI (cfiCond256) Function MT_AfDataRetrieve
          CFI (cfiCond256) Conditional ??CrossCallReturnLabel_76, ??CrossCallReturnLabel_3
          CFI (cfiCond256) R6 load(1, XDATA, add(CFA_XSP16, literal(-16)))
          CFI (cfiCond256) VB load(1, XDATA, add(CFA_XSP16, literal(-15)))
          CFI (cfiCond256) V0 load(1, XDATA, add(CFA_XSP16, literal(-14)))
          CFI (cfiCond256) V1 load(1, XDATA, add(CFA_XSP16, literal(-13)))
          CFI (cfiCond256) V2 load(1, XDATA, add(CFA_XSP16, literal(-12)))
          CFI (cfiCond256) V3 load(1, XDATA, add(CFA_XSP16, literal(-11)))
          CFI (cfiCond256) V4 load(1, XDATA, add(CFA_XSP16, literal(-10)))
          CFI (cfiCond256) V5 load(1, XDATA, add(CFA_XSP16, literal(-9)))
          CFI (cfiCond256) V6 load(1, XDATA, add(CFA_XSP16, literal(-8)))
          CFI (cfiCond256) V7 load(1, XDATA, add(CFA_XSP16, literal(-7)))
          CFI (cfiCond256) R7 load(1, XDATA, add(CFA_XSP16, literal(-6)))
          CFI (cfiCond256) ?RET_LOW load(1, XDATA, add(CFA_XSP16, literal(-5)))
          CFI (cfiCond256) ?RET_HIGH load(1, XDATA, add(CFA_XSP16, literal(-4)))
          CFI (cfiCond256) ?BRET_EXT load(1, XDATA, add(CFA_XSP16, literal(-3)))
          CFI (cfiCond256) DPL0 load(1, XDATA, add(CFA_XSP16, literal(-2)))
          CFI (cfiCond256) DPH0 load(1, XDATA, add(CFA_XSP16, literal(-1)))
          CFI (cfiCond256) CFA_SP SP+-4
          CFI (cfiCond256) CFA_XSP16 add(XSP16, 21)
          CFI Block cfiCond257 Using cfiCommon0
          CFI (cfiCond257) Function MT_AfDataRetrieve
          CFI (cfiCond257) Conditional ??CrossCallReturnLabel_76, ??CrossCallReturnLabel_4
          CFI (cfiCond257) R6 load(1, XDATA, add(CFA_XSP16, literal(-16)))
          CFI (cfiCond257) VB load(1, XDATA, add(CFA_XSP16, literal(-15)))
          CFI (cfiCond257) V0 load(1, XDATA, add(CFA_XSP16, literal(-14)))
          CFI (cfiCond257) V1 load(1, XDATA, add(CFA_XSP16, literal(-13)))
          CFI (cfiCond257) V2 load(1, XDATA, add(CFA_XSP16, literal(-12)))
          CFI (cfiCond257) V3 load(1, XDATA, add(CFA_XSP16, literal(-11)))
          CFI (cfiCond257) V4 load(1, XDATA, add(CFA_XSP16, literal(-10)))
          CFI (cfiCond257) V5 load(1, XDATA, add(CFA_XSP16, literal(-9)))
          CFI (cfiCond257) V6 load(1, XDATA, add(CFA_XSP16, literal(-8)))
          CFI (cfiCond257) V7 load(1, XDATA, add(CFA_XSP16, literal(-7)))
          CFI (cfiCond257) R7 load(1, XDATA, add(CFA_XSP16, literal(-6)))
          CFI (cfiCond257) ?RET_LOW load(1, XDATA, add(CFA_XSP16, literal(-5)))
          CFI (cfiCond257) ?RET_HIGH load(1, XDATA, add(CFA_XSP16, literal(-4)))
          CFI (cfiCond257) ?BRET_EXT load(1, XDATA, add(CFA_XSP16, literal(-3)))
          CFI (cfiCond257) DPL0 load(1, XDATA, add(CFA_XSP16, literal(-2)))
          CFI (cfiCond257) DPH0 load(1, XDATA, add(CFA_XSP16, literal(-1)))
          CFI (cfiCond257) CFA_SP SP+-4
          CFI (cfiCond257) CFA_XSP16 add(XSP16, 21)
          CFI Block cfiCond258 Using cfiCommon0
          CFI (cfiCond258) Function MT_AfDataRetrieve
          CFI (cfiCond258) Conditional ??CrossCallReturnLabel_76, ??CrossCallReturnLabel_5
          CFI (cfiCond258) R6 load(1, XDATA, add(CFA_XSP16, literal(-16)))
          CFI (cfiCond258) VB load(1, XDATA, add(CFA_XSP16, literal(-15)))
          CFI (cfiCond258) V0 load(1, XDATA, add(CFA_XSP16, literal(-14)))
          CFI (cfiCond258) V1 load(1, XDATA, add(CFA_XSP16, literal(-13)))
          CFI (cfiCond258) V2 load(1, XDATA, add(CFA_XSP16, literal(-12)))
          CFI (cfiCond258) V3 load(1, XDATA, add(CFA_XSP16, literal(-11)))
          CFI (cfiCond258) V4 load(1, XDATA, add(CFA_XSP16, literal(-10)))
          CFI (cfiCond258) V5 load(1, XDATA, add(CFA_XSP16, literal(-9)))
          CFI (cfiCond258) V6 load(1, XDATA, add(CFA_XSP16, literal(-8)))
          CFI (cfiCond258) V7 load(1, XDATA, add(CFA_XSP16, literal(-7)))
          CFI (cfiCond258) R7 load(1, XDATA, add(CFA_XSP16, literal(-6)))
          CFI (cfiCond258) ?RET_LOW load(1, XDATA, add(CFA_XSP16, literal(-5)))
          CFI (cfiCond258) ?RET_HIGH load(1, XDATA, add(CFA_XSP16, literal(-4)))
          CFI (cfiCond258) ?BRET_EXT load(1, XDATA, add(CFA_XSP16, literal(-3)))
          CFI (cfiCond258) DPL0 load(1, XDATA, add(CFA_XSP16, literal(-2)))
          CFI (cfiCond258) DPH0 load(1, XDATA, add(CFA_XSP16, literal(-1)))
          CFI (cfiCond258) CFA_SP SP+-4
          CFI (cfiCond258) CFA_XSP16 add(XSP16, 21)
          CFI Block cfiPicker259 Using cfiCommon1
          CFI (cfiPicker259) NoFunction
          CFI (cfiPicker259) Picker
        MOVX    A,@DPTR
        MOV     R0,A
        INC     DPTR
        MOVX    A,@DPTR
        MOV     DPH,A
        MOV     DPL,R0
        INC     DPTR
        INC     DPTR
        RET
          CFI EndBlock cfiCond252
          CFI EndBlock cfiCond253
          CFI EndBlock cfiCond254
          CFI EndBlock cfiCond255
          CFI EndBlock cfiCond256
          CFI EndBlock cfiCond257
          CFI EndBlock cfiCond258
          CFI EndBlock cfiPicker259

        RSEG BANKED_CODE:HUGECODE:NOROOT(0)
?Subroutine2:
          CFI Block cfiCond260 Using cfiCommon0
          CFI Function MT_AfExec
          CFI Conditional ??CrossCallReturnLabel_149
          CFI R6 load(1, XDATA, add(CFA_XSP16, literal(-9)))
          CFI VB load(1, XDATA, add(CFA_XSP16, literal(-8)))
          CFI V0 load(1, XDATA, add(CFA_XSP16, literal(-7)))
          CFI R7 load(1, XDATA, add(CFA_XSP16, literal(-6)))
          CFI ?RET_LOW load(1, XDATA, add(CFA_XSP16, literal(-5)))
          CFI ?RET_HIGH load(1, XDATA, add(CFA_XSP16, literal(-4)))
          CFI ?BRET_EXT load(1, XDATA, add(CFA_XSP16, literal(-3)))
          CFI DPL0 load(1, XDATA, add(CFA_XSP16, literal(-2)))
          CFI DPH0 load(1, XDATA, add(CFA_XSP16, literal(-1)))
          CFI CFA_SP SP+-2
          CFI CFA_XSP16 add(XSP16, 9)
          CFI Block cfiCond261 Using cfiCommon0
          CFI (cfiCond261) Function MT_AfExec
          CFI (cfiCond261) Conditional ??CrossCallReturnLabel_150
          CFI (cfiCond261) R6 load(1, XDATA, add(CFA_XSP16, literal(-9)))
          CFI (cfiCond261) VB load(1, XDATA, add(CFA_XSP16, literal(-8)))
          CFI (cfiCond261) V0 load(1, XDATA, add(CFA_XSP16, literal(-7)))
          CFI (cfiCond261) R7 load(1, XDATA, add(CFA_XSP16, literal(-6)))
          CFI (cfiCond261) ?RET_LOW load(1, XDATA, add(CFA_XSP16, literal(-5)))
          CFI (cfiCond261) ?RET_HIGH load(1, XDATA, add(CFA_XSP16, literal(-4)))
          CFI (cfiCond261) ?BRET_EXT load(1, XDATA, add(CFA_XSP16, literal(-3)))
          CFI (cfiCond261) DPL0 load(1, XDATA, add(CFA_XSP16, literal(-2)))
          CFI (cfiCond261) DPH0 load(1, XDATA, add(CFA_XSP16, literal(-1)))
          CFI (cfiCond261) CFA_SP SP+-2
          CFI (cfiCond261) CFA_XSP16 add(XSP16, 9)
          CFI Block cfiCond262 Using cfiCommon0
          CFI (cfiCond262) Function MT_AfDataRequest
          CFI (cfiCond262) Conditional ??CrossCallReturnLabel_151
          CFI (cfiCond262) R6 load(1, XDATA, add(CFA_XSP16, literal(-16)))
          CFI (cfiCond262) VB load(1, XDATA, add(CFA_XSP16, literal(-15)))
          CFI (cfiCond262) V0 load(1, XDATA, add(CFA_XSP16, literal(-14)))
          CFI (cfiCond262) V1 load(1, XDATA, add(CFA_XSP16, literal(-13)))
          CFI (cfiCond262) V2 load(1, XDATA, add(CFA_XSP16, literal(-12)))
          CFI (cfiCond262) V3 load(1, XDATA, add(CFA_XSP16, literal(-11)))
          CFI (cfiCond262) V4 load(1, XDATA, add(CFA_XSP16, literal(-10)))
          CFI (cfiCond262) V5 load(1, XDATA, add(CFA_XSP16, literal(-9)))
          CFI (cfiCond262) V6 load(1, XDATA, add(CFA_XSP16, literal(-8)))
          CFI (cfiCond262) V7 load(1, XDATA, add(CFA_XSP16, literal(-7)))
          CFI (cfiCond262) R7 load(1, XDATA, add(CFA_XSP16, literal(-6)))
          CFI (cfiCond262) ?RET_LOW load(1, XDATA, add(CFA_XSP16, literal(-5)))
          CFI (cfiCond262) ?RET_HIGH load(1, XDATA, add(CFA_XSP16, literal(-4)))
          CFI (cfiCond262) ?BRET_EXT load(1, XDATA, add(CFA_XSP16, literal(-3)))
          CFI (cfiCond262) DPL0 load(1, XDATA, add(CFA_XSP16, literal(-2)))
          CFI (cfiCond262) DPH0 load(1, XDATA, add(CFA_XSP16, literal(-1)))
          CFI (cfiCond262) CFA_SP SP+-2
          CFI (cfiCond262) CFA_XSP16 add(XSP16, 33)
          CFI Block cfiCond263 Using cfiCommon0
          CFI (cfiCond263) Function MT_AfDataRequest
          CFI (cfiCond263) Conditional ??CrossCallReturnLabel_152
          CFI (cfiCond263) R6 load(1, XDATA, add(CFA_XSP16, literal(-16)))
          CFI (cfiCond263) VB load(1, XDATA, add(CFA_XSP16, literal(-15)))
          CFI (cfiCond263) V0 load(1, XDATA, add(CFA_XSP16, literal(-14)))
          CFI (cfiCond263) V1 load(1, XDATA, add(CFA_XSP16, literal(-13)))
          CFI (cfiCond263) V2 load(1, XDATA, add(CFA_XSP16, literal(-12)))
          CFI (cfiCond263) V3 load(1, XDATA, add(CFA_XSP16, literal(-11)))
          CFI (cfiCond263) V4 load(1, XDATA, add(CFA_XSP16, literal(-10)))
          CFI (cfiCond263) V5 load(1, XDATA, add(CFA_XSP16, literal(-9)))
          CFI (cfiCond263) V6 load(1, XDATA, add(CFA_XSP16, literal(-8)))
          CFI (cfiCond263) V7 load(1, XDATA, add(CFA_XSP16, literal(-7)))
          CFI (cfiCond263) R7 load(1, XDATA, add(CFA_XSP16, literal(-6)))
          CFI (cfiCond263) ?RET_LOW load(1, XDATA, add(CFA_XSP16, literal(-5)))
          CFI (cfiCond263) ?RET_HIGH load(1, XDATA, add(CFA_XSP16, literal(-4)))
          CFI (cfiCond263) ?BRET_EXT load(1, XDATA, add(CFA_XSP16, literal(-3)))
          CFI (cfiCond263) DPL0 load(1, XDATA, add(CFA_XSP16, literal(-2)))
          CFI (cfiCond263) DPH0 load(1, XDATA, add(CFA_XSP16, literal(-1)))
          CFI (cfiCond263) CFA_SP SP+-2
          CFI (cfiCond263) CFA_XSP16 add(XSP16, 33)
          CFI Block cfiCond264 Using cfiCommon0
          CFI (cfiCond264) Function MT_AfDataStore
          CFI (cfiCond264) Conditional ??CrossCallReturnLabel_153
          CFI (cfiCond264) R6 load(1, XDATA, add(CFA_XSP16, literal(-11)))
          CFI (cfiCond264) VB load(1, XDATA, add(CFA_XSP16, literal(-10)))
          CFI (cfiCond264) V0 load(1, XDATA, add(CFA_XSP16, literal(-9)))
          CFI (cfiCond264) V1 load(1, XDATA, add(CFA_XSP16, literal(-8)))
          CFI (cfiCond264) V2 load(1, XDATA, add(CFA_XSP16, literal(-7)))
          CFI (cfiCond264) R7 load(1, XDATA, add(CFA_XSP16, literal(-6)))
          CFI (cfiCond264) ?RET_LOW load(1, XDATA, add(CFA_XSP16, literal(-5)))
          CFI (cfiCond264) ?RET_HIGH load(1, XDATA, add(CFA_XSP16, literal(-4)))
          CFI (cfiCond264) ?BRET_EXT load(1, XDATA, add(CFA_XSP16, literal(-3)))
          CFI (cfiCond264) DPL0 load(1, XDATA, add(CFA_XSP16, literal(-2)))
          CFI (cfiCond264) DPH0 load(1, XDATA, add(CFA_XSP16, literal(-1)))
          CFI (cfiCond264) CFA_SP SP+-2
          CFI (cfiCond264) CFA_XSP16 add(XSP16, 12)
          CFI Block cfiPicker265 Using cfiCommon1
          CFI (cfiPicker265) NoFunction
          CFI (cfiPicker265) Picker
        MOV     DPTR,#pMtAfDataReq
          CFI EndBlock cfiCond260
          CFI EndBlock cfiCond261
          CFI EndBlock cfiCond262
          CFI EndBlock cfiCond263
          CFI EndBlock cfiCond264
          CFI EndBlock cfiPicker265
        REQUIRE ??Subroutine59_0
        ; // Fall through to label ??Subroutine59_0

        RSEG BANKED_CODE:HUGECODE:NOROOT(0)
??Subroutine59_0:
          CFI Block cfiCond266 Using cfiCommon0
          CFI Function MT_AfExec
          CFI Conditional ??CrossCallReturnLabel_143
          CFI R6 load(1, XDATA, add(CFA_XSP16, literal(-9)))
          CFI VB load(1, XDATA, add(CFA_XSP16, literal(-8)))
          CFI V0 load(1, XDATA, add(CFA_XSP16, literal(-7)))
          CFI R7 load(1, XDATA, add(CFA_XSP16, literal(-6)))
          CFI ?RET_LOW load(1, XDATA, add(CFA_XSP16, literal(-5)))
          CFI ?RET_HIGH load(1, XDATA, add(CFA_XSP16, literal(-4)))
          CFI ?BRET_EXT load(1, XDATA, add(CFA_XSP16, literal(-3)))
          CFI DPL0 load(1, XDATA, add(CFA_XSP16, literal(-2)))
          CFI DPH0 load(1, XDATA, add(CFA_XSP16, literal(-1)))
          CFI CFA_SP SP+-2
          CFI CFA_XSP16 add(XSP16, 9)
          CFI Block cfiCond267 Using cfiCommon0
          CFI (cfiCond267) Function MT_AfIncomingMsg
          CFI (cfiCond267) Conditional ??CrossCallReturnLabel_144
          CFI (cfiCond267) R6 load(1, XDATA, add(CFA_XSP16, literal(-16)))
          CFI (cfiCond267) VB load(1, XDATA, add(CFA_XSP16, literal(-15)))
          CFI (cfiCond267) V0 load(1, XDATA, add(CFA_XSP16, literal(-14)))
          CFI (cfiCond267) V1 load(1, XDATA, add(CFA_XSP16, literal(-13)))
          CFI (cfiCond267) V2 load(1, XDATA, add(CFA_XSP16, literal(-12)))
          CFI (cfiCond267) V3 load(1, XDATA, add(CFA_XSP16, literal(-11)))
          CFI (cfiCond267) V4 load(1, XDATA, add(CFA_XSP16, literal(-10)))
          CFI (cfiCond267) V5 load(1, XDATA, add(CFA_XSP16, literal(-9)))
          CFI (cfiCond267) V6 load(1, XDATA, add(CFA_XSP16, literal(-8)))
          CFI (cfiCond267) V7 load(1, XDATA, add(CFA_XSP16, literal(-7)))
          CFI (cfiCond267) R7 load(1, XDATA, add(CFA_XSP16, literal(-6)))
          CFI (cfiCond267) ?RET_LOW load(1, XDATA, add(CFA_XSP16, literal(-5)))
          CFI (cfiCond267) ?RET_HIGH load(1, XDATA, add(CFA_XSP16, literal(-4)))
          CFI (cfiCond267) ?BRET_EXT load(1, XDATA, add(CFA_XSP16, literal(-3)))
          CFI (cfiCond267) DPL0 load(1, XDATA, add(CFA_XSP16, literal(-2)))
          CFI (cfiCond267) DPH0 load(1, XDATA, add(CFA_XSP16, literal(-1)))
          CFI (cfiCond267) CFA_SP SP+-2
          CFI (cfiCond267) CFA_XSP16 add(XSP16, 23)
          CFI Block cfiCond268 Using cfiCommon0
          CFI (cfiCond268) Function MT_AfIncomingMsg
          CFI (cfiCond268) Conditional ??CrossCallReturnLabel_145
          CFI (cfiCond268) R6 load(1, XDATA, add(CFA_XSP16, literal(-16)))
          CFI (cfiCond268) VB load(1, XDATA, add(CFA_XSP16, literal(-15)))
          CFI (cfiCond268) V0 load(1, XDATA, add(CFA_XSP16, literal(-14)))
          CFI (cfiCond268) V1 load(1, XDATA, add(CFA_XSP16, literal(-13)))
          CFI (cfiCond268) V2 load(1, XDATA, add(CFA_XSP16, literal(-12)))
          CFI (cfiCond268) V3 load(1, XDATA, add(CFA_XSP16, literal(-11)))
          CFI (cfiCond268) V4 load(1, XDATA, add(CFA_XSP16, literal(-10)))
          CFI (cfiCond268) V5 load(1, XDATA, add(CFA_XSP16, literal(-9)))
          CFI (cfiCond268) V6 load(1, XDATA, add(CFA_XSP16, literal(-8)))
          CFI (cfiCond268) V7 load(1, XDATA, add(CFA_XSP16, literal(-7)))
          CFI (cfiCond268) R7 load(1, XDATA, add(CFA_XSP16, literal(-6)))
          CFI (cfiCond268) ?RET_LOW load(1, XDATA, add(CFA_XSP16, literal(-5)))
          CFI (cfiCond268) ?RET_HIGH load(1, XDATA, add(CFA_XSP16, literal(-4)))
          CFI (cfiCond268) ?BRET_EXT load(1, XDATA, add(CFA_XSP16, literal(-3)))
          CFI (cfiCond268) DPL0 load(1, XDATA, add(CFA_XSP16, literal(-2)))
          CFI (cfiCond268) DPH0 load(1, XDATA, add(CFA_XSP16, literal(-1)))
          CFI (cfiCond268) CFA_SP SP+-2
          CFI (cfiCond268) CFA_XSP16 add(XSP16, 23)
          CFI Block cfiCond269 Using cfiCommon0
          CFI (cfiCond269) Function MT_AfIncomingMsg
          CFI (cfiCond269) Conditional ??CrossCallReturnLabel_146
          CFI (cfiCond269) R6 load(1, XDATA, add(CFA_XSP16, literal(-16)))
          CFI (cfiCond269) VB load(1, XDATA, add(CFA_XSP16, literal(-15)))
          CFI (cfiCond269) V0 load(1, XDATA, add(CFA_XSP16, literal(-14)))
          CFI (cfiCond269) V1 load(1, XDATA, add(CFA_XSP16, literal(-13)))
          CFI (cfiCond269) V2 load(1, XDATA, add(CFA_XSP16, literal(-12)))
          CFI (cfiCond269) V3 load(1, XDATA, add(CFA_XSP16, literal(-11)))
          CFI (cfiCond269) V4 load(1, XDATA, add(CFA_XSP16, literal(-10)))
          CFI (cfiCond269) V5 load(1, XDATA, add(CFA_XSP16, literal(-9)))
          CFI (cfiCond269) V6 load(1, XDATA, add(CFA_XSP16, literal(-8)))
          CFI (cfiCond269) V7 load(1, XDATA, add(CFA_XSP16, literal(-7)))
          CFI (cfiCond269) R7 load(1, XDATA, add(CFA_XSP16, literal(-6)))
          CFI (cfiCond269) ?RET_LOW load(1, XDATA, add(CFA_XSP16, literal(-5)))
          CFI (cfiCond269) ?RET_HIGH load(1, XDATA, add(CFA_XSP16, literal(-4)))
          CFI (cfiCond269) ?BRET_EXT load(1, XDATA, add(CFA_XSP16, literal(-3)))
          CFI (cfiCond269) DPL0 load(1, XDATA, add(CFA_XSP16, literal(-2)))
          CFI (cfiCond269) DPH0 load(1, XDATA, add(CFA_XSP16, literal(-1)))
          CFI (cfiCond269) CFA_SP SP+-2
          CFI (cfiCond269) CFA_XSP16 add(XSP16, 23)
          CFI Block cfiCond270 Using cfiCommon0
          CFI (cfiCond270) Function MT_AfIncomingMsg
          CFI (cfiCond270) Conditional ??CrossCallReturnLabel_147
          CFI (cfiCond270) R6 load(1, XDATA, add(CFA_XSP16, literal(-16)))
          CFI (cfiCond270) VB load(1, XDATA, add(CFA_XSP16, literal(-15)))
          CFI (cfiCond270) V0 load(1, XDATA, add(CFA_XSP16, literal(-14)))
          CFI (cfiCond270) V1 load(1, XDATA, add(CFA_XSP16, literal(-13)))
          CFI (cfiCond270) V2 load(1, XDATA, add(CFA_XSP16, literal(-12)))
          CFI (cfiCond270) V3 load(1, XDATA, add(CFA_XSP16, literal(-11)))
          CFI (cfiCond270) V4 load(1, XDATA, add(CFA_XSP16, literal(-10)))
          CFI (cfiCond270) V5 load(1, XDATA, add(CFA_XSP16, literal(-9)))
          CFI (cfiCond270) V6 load(1, XDATA, add(CFA_XSP16, literal(-8)))
          CFI (cfiCond270) V7 load(1, XDATA, add(CFA_XSP16, literal(-7)))
          CFI (cfiCond270) R7 load(1, XDATA, add(CFA_XSP16, literal(-6)))
          CFI (cfiCond270) ?RET_LOW load(1, XDATA, add(CFA_XSP16, literal(-5)))
          CFI (cfiCond270) ?RET_HIGH load(1, XDATA, add(CFA_XSP16, literal(-4)))
          CFI (cfiCond270) ?BRET_EXT load(1, XDATA, add(CFA_XSP16, literal(-3)))
          CFI (cfiCond270) DPL0 load(1, XDATA, add(CFA_XSP16, literal(-2)))
          CFI (cfiCond270) DPH0 load(1, XDATA, add(CFA_XSP16, literal(-1)))
          CFI (cfiCond270) CFA_SP SP+-2
          CFI (cfiCond270) CFA_XSP16 add(XSP16, 23)
          CFI Block cfiCond271 Using cfiCommon0
          CFI (cfiCond271) Function MT_AfDataRetrieve
          CFI (cfiCond271) Conditional ??CrossCallReturnLabel_148
          CFI (cfiCond271) R6 load(1, XDATA, add(CFA_XSP16, literal(-16)))
          CFI (cfiCond271) VB load(1, XDATA, add(CFA_XSP16, literal(-15)))
          CFI (cfiCond271) V0 load(1, XDATA, add(CFA_XSP16, literal(-14)))
          CFI (cfiCond271) V1 load(1, XDATA, add(CFA_XSP16, literal(-13)))
          CFI (cfiCond271) V2 load(1, XDATA, add(CFA_XSP16, literal(-12)))
          CFI (cfiCond271) V3 load(1, XDATA, add(CFA_XSP16, literal(-11)))
          CFI (cfiCond271) V4 load(1, XDATA, add(CFA_XSP16, literal(-10)))
          CFI (cfiCond271) V5 load(1, XDATA, add(CFA_XSP16, literal(-9)))
          CFI (cfiCond271) V6 load(1, XDATA, add(CFA_XSP16, literal(-8)))
          CFI (cfiCond271) V7 load(1, XDATA, add(CFA_XSP16, literal(-7)))
          CFI (cfiCond271) R7 load(1, XDATA, add(CFA_XSP16, literal(-6)))
          CFI (cfiCond271) ?RET_LOW load(1, XDATA, add(CFA_XSP16, literal(-5)))
          CFI (cfiCond271) ?RET_HIGH load(1, XDATA, add(CFA_XSP16, literal(-4)))
          CFI (cfiCond271) ?BRET_EXT load(1, XDATA, add(CFA_XSP16, literal(-3)))
          CFI (cfiCond271) DPL0 load(1, XDATA, add(CFA_XSP16, literal(-2)))
          CFI (cfiCond271) DPH0 load(1, XDATA, add(CFA_XSP16, literal(-1)))
          CFI (cfiCond271) CFA_SP SP+-2
          CFI (cfiCond271) CFA_XSP16 add(XSP16, 21)
          CFI Block cfiCond272 Using cfiCommon0
          CFI (cfiCond272) Function MT_AfExec
          CFI (cfiCond272) Conditional ??CrossCallReturnLabel_149
          CFI (cfiCond272) R6 load(1, XDATA, add(CFA_XSP16, literal(-9)))
          CFI (cfiCond272) VB load(1, XDATA, add(CFA_XSP16, literal(-8)))
          CFI (cfiCond272) V0 load(1, XDATA, add(CFA_XSP16, literal(-7)))
          CFI (cfiCond272) R7 load(1, XDATA, add(CFA_XSP16, literal(-6)))
          CFI (cfiCond272) ?RET_LOW load(1, XDATA, add(CFA_XSP16, literal(-5)))
          CFI (cfiCond272) ?RET_HIGH load(1, XDATA, add(CFA_XSP16, literal(-4)))
          CFI (cfiCond272) ?BRET_EXT load(1, XDATA, add(CFA_XSP16, literal(-3)))
          CFI (cfiCond272) DPL0 load(1, XDATA, add(CFA_XSP16, literal(-2)))
          CFI (cfiCond272) DPH0 load(1, XDATA, add(CFA_XSP16, literal(-1)))
          CFI (cfiCond272) CFA_SP SP+-2
          CFI (cfiCond272) CFA_XSP16 add(XSP16, 9)
          CFI Block cfiCond273 Using cfiCommon0
          CFI (cfiCond273) Function MT_AfExec
          CFI (cfiCond273) Conditional ??CrossCallReturnLabel_150
          CFI (cfiCond273) R6 load(1, XDATA, add(CFA_XSP16, literal(-9)))
          CFI (cfiCond273) VB load(1, XDATA, add(CFA_XSP16, literal(-8)))
          CFI (cfiCond273) V0 load(1, XDATA, add(CFA_XSP16, literal(-7)))
          CFI (cfiCond273) R7 load(1, XDATA, add(CFA_XSP16, literal(-6)))
          CFI (cfiCond273) ?RET_LOW load(1, XDATA, add(CFA_XSP16, literal(-5)))
          CFI (cfiCond273) ?RET_HIGH load(1, XDATA, add(CFA_XSP16, literal(-4)))
          CFI (cfiCond273) ?BRET_EXT load(1, XDATA, add(CFA_XSP16, literal(-3)))
          CFI (cfiCond273) DPL0 load(1, XDATA, add(CFA_XSP16, literal(-2)))
          CFI (cfiCond273) DPH0 load(1, XDATA, add(CFA_XSP16, literal(-1)))
          CFI (cfiCond273) CFA_SP SP+-2
          CFI (cfiCond273) CFA_XSP16 add(XSP16, 9)
          CFI Block cfiCond274 Using cfiCommon0
          CFI (cfiCond274) Function MT_AfDataRequest
          CFI (cfiCond274) Conditional ??CrossCallReturnLabel_151
          CFI (cfiCond274) R6 load(1, XDATA, add(CFA_XSP16, literal(-16)))
          CFI (cfiCond274) VB load(1, XDATA, add(CFA_XSP16, literal(-15)))
          CFI (cfiCond274) V0 load(1, XDATA, add(CFA_XSP16, literal(-14)))
          CFI (cfiCond274) V1 load(1, XDATA, add(CFA_XSP16, literal(-13)))
          CFI (cfiCond274) V2 load(1, XDATA, add(CFA_XSP16, literal(-12)))
          CFI (cfiCond274) V3 load(1, XDATA, add(CFA_XSP16, literal(-11)))
          CFI (cfiCond274) V4 load(1, XDATA, add(CFA_XSP16, literal(-10)))
          CFI (cfiCond274) V5 load(1, XDATA, add(CFA_XSP16, literal(-9)))
          CFI (cfiCond274) V6 load(1, XDATA, add(CFA_XSP16, literal(-8)))
          CFI (cfiCond274) V7 load(1, XDATA, add(CFA_XSP16, literal(-7)))
          CFI (cfiCond274) R7 load(1, XDATA, add(CFA_XSP16, literal(-6)))
          CFI (cfiCond274) ?RET_LOW load(1, XDATA, add(CFA_XSP16, literal(-5)))
          CFI (cfiCond274) ?RET_HIGH load(1, XDATA, add(CFA_XSP16, literal(-4)))
          CFI (cfiCond274) ?BRET_EXT load(1, XDATA, add(CFA_XSP16, literal(-3)))
          CFI (cfiCond274) DPL0 load(1, XDATA, add(CFA_XSP16, literal(-2)))
          CFI (cfiCond274) DPH0 load(1, XDATA, add(CFA_XSP16, literal(-1)))
          CFI (cfiCond274) CFA_SP SP+-2
          CFI (cfiCond274) CFA_XSP16 add(XSP16, 33)
          CFI Block cfiCond275 Using cfiCommon0
          CFI (cfiCond275) Function MT_AfDataRequest
          CFI (cfiCond275) Conditional ??CrossCallReturnLabel_152
          CFI (cfiCond275) R6 load(1, XDATA, add(CFA_XSP16, literal(-16)))
          CFI (cfiCond275) VB load(1, XDATA, add(CFA_XSP16, literal(-15)))
          CFI (cfiCond275) V0 load(1, XDATA, add(CFA_XSP16, literal(-14)))
          CFI (cfiCond275) V1 load(1, XDATA, add(CFA_XSP16, literal(-13)))
          CFI (cfiCond275) V2 load(1, XDATA, add(CFA_XSP16, literal(-12)))
          CFI (cfiCond275) V3 load(1, XDATA, add(CFA_XSP16, literal(-11)))
          CFI (cfiCond275) V4 load(1, XDATA, add(CFA_XSP16, literal(-10)))
          CFI (cfiCond275) V5 load(1, XDATA, add(CFA_XSP16, literal(-9)))
          CFI (cfiCond275) V6 load(1, XDATA, add(CFA_XSP16, literal(-8)))
          CFI (cfiCond275) V7 load(1, XDATA, add(CFA_XSP16, literal(-7)))
          CFI (cfiCond275) R7 load(1, XDATA, add(CFA_XSP16, literal(-6)))
          CFI (cfiCond275) ?RET_LOW load(1, XDATA, add(CFA_XSP16, literal(-5)))
          CFI (cfiCond275) ?RET_HIGH load(1, XDATA, add(CFA_XSP16, literal(-4)))
          CFI (cfiCond275) ?BRET_EXT load(1, XDATA, add(CFA_XSP16, literal(-3)))
          CFI (cfiCond275) DPL0 load(1, XDATA, add(CFA_XSP16, literal(-2)))
          CFI (cfiCond275) DPH0 load(1, XDATA, add(CFA_XSP16, literal(-1)))
          CFI (cfiCond275) CFA_SP SP+-2
          CFI (cfiCond275) CFA_XSP16 add(XSP16, 33)
          CFI Block cfiCond276 Using cfiCommon0
          CFI (cfiCond276) Function MT_AfDataStore
          CFI (cfiCond276) Conditional ??CrossCallReturnLabel_153
          CFI (cfiCond276) R6 load(1, XDATA, add(CFA_XSP16, literal(-11)))
          CFI (cfiCond276) VB load(1, XDATA, add(CFA_XSP16, literal(-10)))
          CFI (cfiCond276) V0 load(1, XDATA, add(CFA_XSP16, literal(-9)))
          CFI (cfiCond276) V1 load(1, XDATA, add(CFA_XSP16, literal(-8)))
          CFI (cfiCond276) V2 load(1, XDATA, add(CFA_XSP16, literal(-7)))
          CFI (cfiCond276) R7 load(1, XDATA, add(CFA_XSP16, literal(-6)))
          CFI (cfiCond276) ?RET_LOW load(1, XDATA, add(CFA_XSP16, literal(-5)))
          CFI (cfiCond276) ?RET_HIGH load(1, XDATA, add(CFA_XSP16, literal(-4)))
          CFI (cfiCond276) ?BRET_EXT load(1, XDATA, add(CFA_XSP16, literal(-3)))
          CFI (cfiCond276) DPL0 load(1, XDATA, add(CFA_XSP16, literal(-2)))
          CFI (cfiCond276) DPH0 load(1, XDATA, add(CFA_XSP16, literal(-1)))
          CFI (cfiCond276) CFA_SP SP+-2
          CFI (cfiCond276) CFA_XSP16 add(XSP16, 12)
          CFI Block cfiPicker277 Using cfiCommon1
          CFI (cfiPicker277) NoFunction
          CFI (cfiPicker277) Picker
        LCALL   ?Subroutine43 & 0xFFFF
??CrossCallReturnLabel_157:
        MOV     A,R0
        ORL     A,R1
        RET
          CFI EndBlock cfiCond266
          CFI EndBlock cfiCond267
          CFI EndBlock cfiCond268
          CFI EndBlock cfiCond269
          CFI EndBlock cfiCond270
          CFI EndBlock cfiCond271
          CFI EndBlock cfiCond272
          CFI EndBlock cfiCond273
          CFI EndBlock cfiCond274
          CFI EndBlock cfiCond275
          CFI EndBlock cfiCond276
          CFI EndBlock cfiPicker277
//  858 
//  859 /**************************************************************************************************
//  860  * @fn          MT_AfDataStore
//  861  *
//  862  * @brief   Process AF Data Store command to incrementally store the data buffer for very large
//  863  *          outgoing AF message.
//  864  *
//  865  * input parameters
//  866  *
//  867  * @param pBuf - pointer to the received buffer
//  868  *
//  869  * output parameters
//  870  *
//  871  * @param rtrn - AF-Status of the operation.
//  872  *
//  873  * @return      None.
//  874  **************************************************************************************************
//  875  */

        RSEG BANKED_CODE:HUGECODE:NOROOT(0)
//  876 void MT_AfDataStore(uint8 *pBuf)
MT_AfDataStore:
          CFI Block cfiBlock278 Using cfiCommon0
          CFI Function MT_AfDataStore
        CODE
//  877 {
        FUNCALL MT_AfDataStore, AF_DataRequest
        LOCFRAME ISTACK, 0, STACK
        LOCFRAME PSTACK, 0, STACK
        LOCFRAME XSTACK, 21, STACK
        LOCFRAME IOVERLAY, 0, STATIC
        LOCFRAME DOVERLAY, 0, STATIC
        ARGFRAME ISTACK, 0, STACK
        ARGFRAME PSTACK, 0, STACK
        ARGFRAME XSTACK, 21, STACK
        ARGFRAME IOVERLAY, 0, STATIC
        ARGFRAME DOVERLAY, 0, STATIC
        FUNCALL MT_AfDataStore, osal_mem_free
        LOCFRAME ISTACK, 0, STACK
        LOCFRAME PSTACK, 0, STACK
        LOCFRAME XSTACK, 12, STACK
        LOCFRAME IOVERLAY, 0, STATIC
        LOCFRAME DOVERLAY, 0, STATIC
        ARGFRAME ISTACK, 0, STACK
        ARGFRAME PSTACK, 0, STACK
        ARGFRAME XSTACK, 12, STACK
        ARGFRAME IOVERLAY, 0, STATIC
        ARGFRAME DOVERLAY, 0, STATIC
        FUNCALL MT_AfDataStore, osal_memcpy
        LOCFRAME ISTACK, 0, STACK
        LOCFRAME PSTACK, 0, STACK
        LOCFRAME XSTACK, 15, STACK
        LOCFRAME IOVERLAY, 0, STATIC
        LOCFRAME DOVERLAY, 0, STATIC
        ARGFRAME ISTACK, 0, STACK
        ARGFRAME PSTACK, 0, STACK
        ARGFRAME XSTACK, 15, STACK
        ARGFRAME IOVERLAY, 0, STATIC
        ARGFRAME DOVERLAY, 0, STATIC
        FUNCALL MT_AfDataStore, MT_BuildAndSendZToolResponse
        LOCFRAME ISTACK, 0, STACK
        LOCFRAME PSTACK, 0, STACK
        LOCFRAME XSTACK, 12, STACK
        LOCFRAME IOVERLAY, 0, STATIC
        LOCFRAME DOVERLAY, 0, STATIC
        ARGFRAME ISTACK, 0, STACK
        ARGFRAME PSTACK, 0, STACK
        ARGFRAME XSTACK, 12, STACK
        ARGFRAME IOVERLAY, 0, STATIC
        ARGFRAME DOVERLAY, 0, STATIC
        REQUIRE ?V0
        REQUIRE ?V1
        REQUIRE ?V2
        MOV     A,#-0xb
        LCALL   ?BANKED_ENTER_XDATA
          CFI DPH0 load(1, XDATA, add(CFA_XSP16, literal(-1)))
          CFI DPL0 load(1, XDATA, add(CFA_XSP16, literal(-2)))
          CFI ?BRET_EXT load(1, XDATA, add(CFA_XSP16, literal(-3)))
          CFI ?RET_HIGH load(1, XDATA, add(CFA_XSP16, literal(-4)))
          CFI ?RET_LOW load(1, XDATA, add(CFA_XSP16, literal(-5)))
          CFI R7 load(1, XDATA, add(CFA_XSP16, literal(-6)))
          CFI V2 load(1, XDATA, add(CFA_XSP16, literal(-7)))
          CFI V1 load(1, XDATA, add(CFA_XSP16, literal(-8)))
          CFI V0 load(1, XDATA, add(CFA_XSP16, literal(-9)))
          CFI VB load(1, XDATA, add(CFA_XSP16, literal(-10)))
          CFI R6 load(1, XDATA, add(CFA_XSP16, literal(-11)))
          CFI CFA_SP SP+0
          CFI CFA_XSP16 add(XSP16, 11)
        ; Saved register size: 11
        ; Auto size: 1
        MOV     A,#-0x1
        LCALL   ?ALLOC_XSTACK8
          CFI CFA_XSP16 add(XSP16, 12)
//  878   uint16 idx;
//  879   uint8 len, rtrn = afStatus_FAILED;
        MOV     DPL,?XSP + 0
        MOV     DPH,?XSP + 1
        MOV     A,#0x1
        MOVX    @DPTR,A
//  880 
//  881   pBuf += MT_RPC_FRAME_HDR_SZ;
        MOV     A,R2
        ADD     A,#0x3
        MOV     R2,A
        JNC     ??MT_AfDataStore_0
        INC     R3
//  882   idx = BUILD_UINT16(pBuf[0], pBuf[1]);
??MT_AfDataStore_0:
        MOV     DPL,R2
        MOV     DPH,R3
        MOVX    A,@DPTR
        MOV     R4,A
        INC     DPTR
        MOVX    A,@DPTR
        MOV     R0,A
        CLR     A
        XCH     A,R0
        MOV     R1,A
        MOV     A,R4
        ADD     A,R0
        MOV     R6,A
        CLR     A
        ADDC    A,R1
        MOV     R7,A
//  883   len = pBuf[2];
        MOV     DPL,R2
        MOV     DPH,R3
        INC     DPTR
        INC     DPTR
        MOVX    A,@DPTR
        MOV     R4,A
//  884   pBuf += 3;
        MOV     A,R2
        ADD     A,#0x3
        MOV     R2,A
        JNC     ??MT_AfDataStore_1
        INC     R3
//  885 
//  886   if (pMtAfDataReq == NULL)
??MT_AfDataStore_1:
        LCALL   ?Subroutine2 & 0xFFFF
??CrossCallReturnLabel_153:
        JNZ     ??MT_AfDataStore_2
//  887   {
//  888     rtrn = afStatus_MEM_FAIL;
        MOV     DPL,?XSP + 0
        MOV     DPH,?XSP + 1
        MOV     A,#0x10
        LJMP    ??MT_AfDataStore_3 & 0xFFFF
//  889   }
//  890   else if (len == 0)  // Indication to send the message.
??MT_AfDataStore_2:
        MOV     A,R4
        JNZ     ??MT_AfDataStore_4
//  891   {
//  892     rtrn = AF_DataRequest(&(pMtAfDataReq->dstAddr), pMtAfDataReq->epDesc, pMtAfDataReq->cId, 
//  893                             pMtAfDataReq->dataLen,  pMtAfDataReq->data, 
//  894                           &(pMtAfDataReq->transId), pMtAfDataReq->txOpts, pMtAfDataReq->radius);
        ; Setup parameters for call to function AF_DataRequest
        MOVX    A,@DPTR
        XCH     A,R0
        ADD     A,#0x16
        LCALL   ?Subroutine47 & 0xFFFF
??CrossCallReturnLabel_91:
        MOV     ?V0,A
        MOV     R0,#?V0
        LCALL   ?PUSH_XSTACK_I_ONE
          CFI CFA_XSP16 add(XSP16, 13)
        MOV     DPTR,#pMtAfDataReq
        MOVX    A,@DPTR
        ADD     A,#0x14
        MOV     ?V0,A
        INC     DPTR
        MOVX    A,@DPTR
        ADDC    A,#0x0
        MOV     ?V1,A
        MOV     R0,#?V0
        LCALL   ?PUSH_XSTACK_I_TWO
          CFI CFA_XSP16 add(XSP16, 15)
        MOV     DPTR,#pMtAfDataReq
        LCALL   ?Subroutine41 & 0xFFFF
??CrossCallReturnLabel_138:
        LCALL   ?PUSH_XSTACK8_X_TWO
          CFI CFA_XSP16 add(XSP16, 17)
        LCALL   ?Subroutine17 & 0xFFFF
??CrossCallReturnLabel_28:
        LCALL   ?PUSH_XSTACK8_X_TWO
          CFI CFA_XSP16 add(XSP16, 19)
        LCALL   ?Subroutine16 & 0xFFFF
??CrossCallReturnLabel_26:
        LCALL   ?PUSH_XSTACK8_X_TWO
          CFI CFA_XSP16 add(XSP16, 21)
        MOV     DPTR,#pMtAfDataReq
        LCALL   ?Subroutine13 & 0xFFFF
??CrossCallReturnLabel_20:
        MOV     R1,A
        MOV     DPTR,#pMtAfDataReq
        LCALL   ?Subroutine12 & 0xFFFF
??CrossCallReturnLabel_18:
        MOV     R4,A
        INC     DPTR
        MOVX    A,@DPTR
        MOV     R5,A
        LCALL   ?Subroutine27 & 0xFFFF
??CrossCallReturnLabel_44:
        LCALL   `??AF_DataRequest::?relay`; Banked call to: AF_DataRequest
        MOV     A,#0x9
        LCALL   ?DEALLOC_XSTACK8
          CFI CFA_XSP16 add(XSP16, 12)
        MOV     A,R1
        MOV     DPL,?XSP + 0
        MOV     DPH,?XSP + 1
        MOVX    @DPTR,A
//  895     (void)osal_mem_free(pMtAfDataReq);
        ; Setup parameters for call to function osal_mem_free
        LCALL   ?Subroutine9 & 0xFFFF
??CrossCallReturnLabel_132:
        LCALL   `??osal_mem_free::?relay`; Banked call to: osal_mem_free
//  896     pMtAfDataReq = NULL;
        MOV     DPTR,#pMtAfDataReq
        CLR     A
        MOVX    @DPTR,A
        INC     DPTR
        SJMP    ??MT_AfDataStore_3
//  897   }
//  898   else
//  899   {
//  900     (void)osal_memcpy(pMtAfDataReq->data+idx, pBuf, len);
??MT_AfDataStore_4:
        ; Setup parameters for call to function osal_memcpy
        MOV     ?V0,R2
        MOV     ?V1,R3
        MOV     ?V2,#0x0
        MOV     R0,#?V0
        LCALL   ?PUSH_XSTACK_I_THREE
          CFI CFA_XSP16 add(XSP16, 15)
        MOV     R5,#0x0
        MOV     DPTR,#pMtAfDataReq
        LCALL   ?Subroutine10 & 0xFFFF
??CrossCallReturnLabel_16:
        ADD     A,R6
        MOV     R2,A
        INC     DPTR
        MOVX    A,@DPTR
        ADDC    A,R7
        MOV     R3,A
        LCALL   `??osal_memcpy::?relay`; Banked call to: osal_memcpy
        MOV     A,#0x3
        LCALL   ?DEALLOC_XSTACK8
          CFI CFA_XSP16 add(XSP16, 12)
//  901     rtrn = afStatus_SUCCESS;
        MOV     DPL,?XSP + 0
        MOV     DPH,?XSP + 1
        CLR     A
??MT_AfDataStore_3:
        MOVX    @DPTR,A
//  902   }
//  903 
//  904   MT_BuildAndSendZToolResponse(((uint8)MT_RPC_CMD_SRSP | (uint8)MT_RPC_SYS_AF), 
//  905                                                                 MT_AF_DATA_STORE, 1, &rtrn);
        ; Setup parameters for call to function MT_BuildAndSendZToolResponse
        MOV     R4,?XSP + 0
        MOV     R5,?XSP + 1
        MOV     R3,#0x1
        MOV     R2,#0x11
        MOV     R1,#0x64
        LCALL   `??MT_BuildAndSendZToolResponse::?relay`; Banked call to: MT_BuildAndSendZToolResponse
//  906 }
        MOV     A,#0x1
        LCALL   ?DEALLOC_XSTACK8
          CFI CFA_XSP16 add(XSP16, 11)
        MOV     R7,#0x3
        LJMP    ?BANKED_LEAVE_XDATA
          CFI EndBlock cfiBlock278

        RSEG BANKED_CODE:HUGECODE:NOROOT(0)
?Subroutine27:
          CFI Block cfiCond279 Using cfiCommon0
          CFI Function MT_AfDataRequest
          CFI Conditional ??CrossCallReturnLabel_43
          CFI R6 load(1, XDATA, add(CFA_XSP16, literal(-16)))
          CFI VB load(1, XDATA, add(CFA_XSP16, literal(-15)))
          CFI V0 load(1, XDATA, add(CFA_XSP16, literal(-14)))
          CFI V1 load(1, XDATA, add(CFA_XSP16, literal(-13)))
          CFI V2 load(1, XDATA, add(CFA_XSP16, literal(-12)))
          CFI V3 load(1, XDATA, add(CFA_XSP16, literal(-11)))
          CFI V4 load(1, XDATA, add(CFA_XSP16, literal(-10)))
          CFI V5 load(1, XDATA, add(CFA_XSP16, literal(-9)))
          CFI V6 load(1, XDATA, add(CFA_XSP16, literal(-8)))
          CFI V7 load(1, XDATA, add(CFA_XSP16, literal(-7)))
          CFI R7 load(1, XDATA, add(CFA_XSP16, literal(-6)))
          CFI ?RET_LOW load(1, XDATA, add(CFA_XSP16, literal(-5)))
          CFI ?RET_HIGH load(1, XDATA, add(CFA_XSP16, literal(-4)))
          CFI ?BRET_EXT load(1, XDATA, add(CFA_XSP16, literal(-3)))
          CFI DPL0 load(1, XDATA, add(CFA_XSP16, literal(-2)))
          CFI DPH0 load(1, XDATA, add(CFA_XSP16, literal(-1)))
          CFI CFA_SP SP+-2
          CFI CFA_XSP16 add(XSP16, 36)
          CFI Block cfiCond280 Using cfiCommon0
          CFI (cfiCond280) Function MT_AfDataStore
          CFI (cfiCond280) Conditional ??CrossCallReturnLabel_44
          CFI (cfiCond280) R6 load(1, XDATA, add(CFA_XSP16, literal(-11)))
          CFI (cfiCond280) VB load(1, XDATA, add(CFA_XSP16, literal(-10)))
          CFI (cfiCond280) V0 load(1, XDATA, add(CFA_XSP16, literal(-9)))
          CFI (cfiCond280) V1 load(1, XDATA, add(CFA_XSP16, literal(-8)))
          CFI (cfiCond280) V2 load(1, XDATA, add(CFA_XSP16, literal(-7)))
          CFI (cfiCond280) R7 load(1, XDATA, add(CFA_XSP16, literal(-6)))
          CFI (cfiCond280) ?RET_LOW load(1, XDATA, add(CFA_XSP16, literal(-5)))
          CFI (cfiCond280) ?RET_HIGH load(1, XDATA, add(CFA_XSP16, literal(-4)))
          CFI (cfiCond280) ?BRET_EXT load(1, XDATA, add(CFA_XSP16, literal(-3)))
          CFI (cfiCond280) DPL0 load(1, XDATA, add(CFA_XSP16, literal(-2)))
          CFI (cfiCond280) DPH0 load(1, XDATA, add(CFA_XSP16, literal(-1)))
          CFI (cfiCond280) CFA_SP SP+-2
          CFI (cfiCond280) CFA_XSP16 add(XSP16, 21)
          CFI Block cfiPicker281 Using cfiCommon1
          CFI (cfiPicker281) NoFunction
          CFI (cfiPicker281) Picker
        MOV     DPTR,#pMtAfDataReq
        MOVX    A,@DPTR
        ADD     A,#0x2
        MOV     R2,A
        INC     DPTR
        MOVX    A,@DPTR
        ADDC    A,#0x0
        MOV     R3,A
        RET
          CFI EndBlock cfiCond279
          CFI EndBlock cfiCond280
          CFI EndBlock cfiPicker281

        RSEG BANKED_CODE:HUGECODE:NOROOT(0)
?Subroutine17:
          CFI Block cfiCond282 Using cfiCommon0
          CFI Function MT_AfDataRequest
          CFI Conditional ??CrossCallReturnLabel_27
          CFI R6 load(1, XDATA, add(CFA_XSP16, literal(-16)))
          CFI VB load(1, XDATA, add(CFA_XSP16, literal(-15)))
          CFI V0 load(1, XDATA, add(CFA_XSP16, literal(-14)))
          CFI V1 load(1, XDATA, add(CFA_XSP16, literal(-13)))
          CFI V2 load(1, XDATA, add(CFA_XSP16, literal(-12)))
          CFI V3 load(1, XDATA, add(CFA_XSP16, literal(-11)))
          CFI V4 load(1, XDATA, add(CFA_XSP16, literal(-10)))
          CFI V5 load(1, XDATA, add(CFA_XSP16, literal(-9)))
          CFI V6 load(1, XDATA, add(CFA_XSP16, literal(-8)))
          CFI V7 load(1, XDATA, add(CFA_XSP16, literal(-7)))
          CFI R7 load(1, XDATA, add(CFA_XSP16, literal(-6)))
          CFI ?RET_LOW load(1, XDATA, add(CFA_XSP16, literal(-5)))
          CFI ?RET_HIGH load(1, XDATA, add(CFA_XSP16, literal(-4)))
          CFI ?BRET_EXT load(1, XDATA, add(CFA_XSP16, literal(-3)))
          CFI DPL0 load(1, XDATA, add(CFA_XSP16, literal(-2)))
          CFI DPH0 load(1, XDATA, add(CFA_XSP16, literal(-1)))
          CFI CFA_SP SP+-2
          CFI CFA_XSP16 add(XSP16, 33)
          CFI Block cfiCond283 Using cfiCommon0
          CFI (cfiCond283) Function MT_AfDataStore
          CFI (cfiCond283) Conditional ??CrossCallReturnLabel_28
          CFI (cfiCond283) R6 load(1, XDATA, add(CFA_XSP16, literal(-11)))
          CFI (cfiCond283) VB load(1, XDATA, add(CFA_XSP16, literal(-10)))
          CFI (cfiCond283) V0 load(1, XDATA, add(CFA_XSP16, literal(-9)))
          CFI (cfiCond283) V1 load(1, XDATA, add(CFA_XSP16, literal(-8)))
          CFI (cfiCond283) V2 load(1, XDATA, add(CFA_XSP16, literal(-7)))
          CFI (cfiCond283) R7 load(1, XDATA, add(CFA_XSP16, literal(-6)))
          CFI (cfiCond283) ?RET_LOW load(1, XDATA, add(CFA_XSP16, literal(-5)))
          CFI (cfiCond283) ?RET_HIGH load(1, XDATA, add(CFA_XSP16, literal(-4)))
          CFI (cfiCond283) ?BRET_EXT load(1, XDATA, add(CFA_XSP16, literal(-3)))
          CFI (cfiCond283) DPL0 load(1, XDATA, add(CFA_XSP16, literal(-2)))
          CFI (cfiCond283) DPH0 load(1, XDATA, add(CFA_XSP16, literal(-1)))
          CFI (cfiCond283) CFA_SP SP+-2
          CFI (cfiCond283) CFA_XSP16 add(XSP16, 17)
          CFI Block cfiPicker284 Using cfiCommon1
          CFI (cfiPicker284) NoFunction
          CFI (cfiPicker284) Picker
        LCALL   ?Subroutine39 & 0xFFFF
??CrossCallReturnLabel_165:
        ADD     A,#0x12
        MOV     DPL,A
        CLR     A
        ADDC    A,R0
        MOV     DPH,A
        RET
          CFI EndBlock cfiCond282
          CFI EndBlock cfiCond283
          CFI EndBlock cfiPicker284

        RSEG BANKED_CODE:HUGECODE:NOROOT(0)
?Subroutine16:
          CFI Block cfiCond285 Using cfiCommon0
          CFI Function MT_AfDataRequest
          CFI Conditional ??CrossCallReturnLabel_25
          CFI R6 load(1, XDATA, add(CFA_XSP16, literal(-16)))
          CFI VB load(1, XDATA, add(CFA_XSP16, literal(-15)))
          CFI V0 load(1, XDATA, add(CFA_XSP16, literal(-14)))
          CFI V1 load(1, XDATA, add(CFA_XSP16, literal(-13)))
          CFI V2 load(1, XDATA, add(CFA_XSP16, literal(-12)))
          CFI V3 load(1, XDATA, add(CFA_XSP16, literal(-11)))
          CFI V4 load(1, XDATA, add(CFA_XSP16, literal(-10)))
          CFI V5 load(1, XDATA, add(CFA_XSP16, literal(-9)))
          CFI V6 load(1, XDATA, add(CFA_XSP16, literal(-8)))
          CFI V7 load(1, XDATA, add(CFA_XSP16, literal(-7)))
          CFI R7 load(1, XDATA, add(CFA_XSP16, literal(-6)))
          CFI ?RET_LOW load(1, XDATA, add(CFA_XSP16, literal(-5)))
          CFI ?RET_HIGH load(1, XDATA, add(CFA_XSP16, literal(-4)))
          CFI ?BRET_EXT load(1, XDATA, add(CFA_XSP16, literal(-3)))
          CFI DPL0 load(1, XDATA, add(CFA_XSP16, literal(-2)))
          CFI DPH0 load(1, XDATA, add(CFA_XSP16, literal(-1)))
          CFI CFA_SP SP+-2
          CFI CFA_XSP16 add(XSP16, 33)
          CFI Block cfiCond286 Using cfiCommon0
          CFI (cfiCond286) Function MT_AfDataStore
          CFI (cfiCond286) Conditional ??CrossCallReturnLabel_26
          CFI (cfiCond286) R6 load(1, XDATA, add(CFA_XSP16, literal(-11)))
          CFI (cfiCond286) VB load(1, XDATA, add(CFA_XSP16, literal(-10)))
          CFI (cfiCond286) V0 load(1, XDATA, add(CFA_XSP16, literal(-9)))
          CFI (cfiCond286) V1 load(1, XDATA, add(CFA_XSP16, literal(-8)))
          CFI (cfiCond286) V2 load(1, XDATA, add(CFA_XSP16, literal(-7)))
          CFI (cfiCond286) R7 load(1, XDATA, add(CFA_XSP16, literal(-6)))
          CFI (cfiCond286) ?RET_LOW load(1, XDATA, add(CFA_XSP16, literal(-5)))
          CFI (cfiCond286) ?RET_HIGH load(1, XDATA, add(CFA_XSP16, literal(-4)))
          CFI (cfiCond286) ?BRET_EXT load(1, XDATA, add(CFA_XSP16, literal(-3)))
          CFI (cfiCond286) DPL0 load(1, XDATA, add(CFA_XSP16, literal(-2)))
          CFI (cfiCond286) DPH0 load(1, XDATA, add(CFA_XSP16, literal(-1)))
          CFI (cfiCond286) CFA_SP SP+-2
          CFI (cfiCond286) CFA_XSP16 add(XSP16, 19)
          CFI Block cfiPicker287 Using cfiCommon1
          CFI (cfiPicker287) NoFunction
          CFI (cfiPicker287) Picker
        LCALL   ?Subroutine39 & 0xFFFF
??CrossCallReturnLabel_164:
        ADD     A,#0x10
        MOV     DPL,A
        CLR     A
        ADDC    A,R0
        MOV     DPH,A
        RET
          CFI EndBlock cfiCond285
          CFI EndBlock cfiCond286
          CFI EndBlock cfiPicker287

        RSEG BANKED_CODE:HUGECODE:NOROOT(0)
?Subroutine13:
          CFI Block cfiCond288 Using cfiCommon0
          CFI Function MT_AfIncomingMsg
          CFI Conditional ??CrossCallReturnLabel_19
          CFI R6 load(1, XDATA, add(CFA_XSP16, literal(-16)))
          CFI VB load(1, XDATA, add(CFA_XSP16, literal(-15)))
          CFI V0 load(1, XDATA, add(CFA_XSP16, literal(-14)))
          CFI V1 load(1, XDATA, add(CFA_XSP16, literal(-13)))
          CFI V2 load(1, XDATA, add(CFA_XSP16, literal(-12)))
          CFI V3 load(1, XDATA, add(CFA_XSP16, literal(-11)))
          CFI V4 load(1, XDATA, add(CFA_XSP16, literal(-10)))
          CFI V5 load(1, XDATA, add(CFA_XSP16, literal(-9)))
          CFI V6 load(1, XDATA, add(CFA_XSP16, literal(-8)))
          CFI V7 load(1, XDATA, add(CFA_XSP16, literal(-7)))
          CFI R7 load(1, XDATA, add(CFA_XSP16, literal(-6)))
          CFI ?RET_LOW load(1, XDATA, add(CFA_XSP16, literal(-5)))
          CFI ?RET_HIGH load(1, XDATA, add(CFA_XSP16, literal(-4)))
          CFI ?BRET_EXT load(1, XDATA, add(CFA_XSP16, literal(-3)))
          CFI DPL0 load(1, XDATA, add(CFA_XSP16, literal(-2)))
          CFI DPH0 load(1, XDATA, add(CFA_XSP16, literal(-1)))
          CFI CFA_SP SP+-2
          CFI CFA_XSP16 add(XSP16, 23)
          CFI Block cfiCond289 Using cfiCommon0
          CFI (cfiCond289) Function MT_AfDataStore
          CFI (cfiCond289) Conditional ??CrossCallReturnLabel_20
          CFI (cfiCond289) R6 load(1, XDATA, add(CFA_XSP16, literal(-11)))
          CFI (cfiCond289) VB load(1, XDATA, add(CFA_XSP16, literal(-10)))
          CFI (cfiCond289) V0 load(1, XDATA, add(CFA_XSP16, literal(-9)))
          CFI (cfiCond289) V1 load(1, XDATA, add(CFA_XSP16, literal(-8)))
          CFI (cfiCond289) V2 load(1, XDATA, add(CFA_XSP16, literal(-7)))
          CFI (cfiCond289) R7 load(1, XDATA, add(CFA_XSP16, literal(-6)))
          CFI (cfiCond289) ?RET_LOW load(1, XDATA, add(CFA_XSP16, literal(-5)))
          CFI (cfiCond289) ?RET_HIGH load(1, XDATA, add(CFA_XSP16, literal(-4)))
          CFI (cfiCond289) ?BRET_EXT load(1, XDATA, add(CFA_XSP16, literal(-3)))
          CFI (cfiCond289) DPL0 load(1, XDATA, add(CFA_XSP16, literal(-2)))
          CFI (cfiCond289) DPH0 load(1, XDATA, add(CFA_XSP16, literal(-1)))
          CFI (cfiCond289) CFA_SP SP+-2
          CFI (cfiCond289) CFA_XSP16 add(XSP16, 21)
          CFI Block cfiPicker290 Using cfiCommon1
          CFI (cfiPicker290) NoFunction
          CFI (cfiPicker290) Picker
        LCALL   ??Subroutine60_0 & 0xFFFF
??CrossCallReturnLabel_160:
        ADD     A,#0x15
        LCALL   ?Subroutine47 & 0xFFFF
??CrossCallReturnLabel_94:
        RET
          CFI EndBlock cfiCond288
          CFI EndBlock cfiCond289
          CFI EndBlock cfiPicker290

        RSEG BANKED_CODE:HUGECODE:NOROOT(0)
?Subroutine39:
          CFI Block cfiCond291 Using cfiCommon0
          CFI Function MT_AfExec
          CFI Conditional ??CrossCallReturnLabel_163, ??CrossCallReturnLabel_24
          CFI R6 load(1, XDATA, add(CFA_XSP16, literal(-9)))
          CFI VB load(1, XDATA, add(CFA_XSP16, literal(-8)))
          CFI V0 load(1, XDATA, add(CFA_XSP16, literal(-7)))
          CFI R7 load(1, XDATA, add(CFA_XSP16, literal(-6)))
          CFI ?RET_LOW load(1, XDATA, add(CFA_XSP16, literal(-5)))
          CFI ?RET_HIGH load(1, XDATA, add(CFA_XSP16, literal(-4)))
          CFI ?BRET_EXT load(1, XDATA, add(CFA_XSP16, literal(-3)))
          CFI DPL0 load(1, XDATA, add(CFA_XSP16, literal(-2)))
          CFI DPH0 load(1, XDATA, add(CFA_XSP16, literal(-1)))
          CFI CFA_SP SP+-4
          CFI CFA_XSP16 add(XSP16, 9)
          CFI Block cfiCond292 Using cfiCommon0
          CFI (cfiCond292) Function MT_AfDataRequest
          CFI (cfiCond292) Conditional ??CrossCallReturnLabel_163, ??CrossCallReturnLabel_23
          CFI (cfiCond292) R6 load(1, XDATA, add(CFA_XSP16, literal(-16)))
          CFI (cfiCond292) VB load(1, XDATA, add(CFA_XSP16, literal(-15)))
          CFI (cfiCond292) V0 load(1, XDATA, add(CFA_XSP16, literal(-14)))
          CFI (cfiCond292) V1 load(1, XDATA, add(CFA_XSP16, literal(-13)))
          CFI (cfiCond292) V2 load(1, XDATA, add(CFA_XSP16, literal(-12)))
          CFI (cfiCond292) V3 load(1, XDATA, add(CFA_XSP16, literal(-11)))
          CFI (cfiCond292) V4 load(1, XDATA, add(CFA_XSP16, literal(-10)))
          CFI (cfiCond292) V5 load(1, XDATA, add(CFA_XSP16, literal(-9)))
          CFI (cfiCond292) V6 load(1, XDATA, add(CFA_XSP16, literal(-8)))
          CFI (cfiCond292) V7 load(1, XDATA, add(CFA_XSP16, literal(-7)))
          CFI (cfiCond292) R7 load(1, XDATA, add(CFA_XSP16, literal(-6)))
          CFI (cfiCond292) ?RET_LOW load(1, XDATA, add(CFA_XSP16, literal(-5)))
          CFI (cfiCond292) ?RET_HIGH load(1, XDATA, add(CFA_XSP16, literal(-4)))
          CFI (cfiCond292) ?BRET_EXT load(1, XDATA, add(CFA_XSP16, literal(-3)))
          CFI (cfiCond292) DPL0 load(1, XDATA, add(CFA_XSP16, literal(-2)))
          CFI (cfiCond292) DPH0 load(1, XDATA, add(CFA_XSP16, literal(-1)))
          CFI (cfiCond292) CFA_SP SP+-4
          CFI (cfiCond292) CFA_XSP16 add(XSP16, 33)
          CFI Block cfiCond293 Using cfiCommon0
          CFI (cfiCond293) Function MT_AfDataRequest
          CFI (cfiCond293) Conditional ??CrossCallReturnLabel_165, ??CrossCallReturnLabel_27
          CFI (cfiCond293) R6 load(1, XDATA, add(CFA_XSP16, literal(-16)))
          CFI (cfiCond293) VB load(1, XDATA, add(CFA_XSP16, literal(-15)))
          CFI (cfiCond293) V0 load(1, XDATA, add(CFA_XSP16, literal(-14)))
          CFI (cfiCond293) V1 load(1, XDATA, add(CFA_XSP16, literal(-13)))
          CFI (cfiCond293) V2 load(1, XDATA, add(CFA_XSP16, literal(-12)))
          CFI (cfiCond293) V3 load(1, XDATA, add(CFA_XSP16, literal(-11)))
          CFI (cfiCond293) V4 load(1, XDATA, add(CFA_XSP16, literal(-10)))
          CFI (cfiCond293) V5 load(1, XDATA, add(CFA_XSP16, literal(-9)))
          CFI (cfiCond293) V6 load(1, XDATA, add(CFA_XSP16, literal(-8)))
          CFI (cfiCond293) V7 load(1, XDATA, add(CFA_XSP16, literal(-7)))
          CFI (cfiCond293) R7 load(1, XDATA, add(CFA_XSP16, literal(-6)))
          CFI (cfiCond293) ?RET_LOW load(1, XDATA, add(CFA_XSP16, literal(-5)))
          CFI (cfiCond293) ?RET_HIGH load(1, XDATA, add(CFA_XSP16, literal(-4)))
          CFI (cfiCond293) ?BRET_EXT load(1, XDATA, add(CFA_XSP16, literal(-3)))
          CFI (cfiCond293) DPL0 load(1, XDATA, add(CFA_XSP16, literal(-2)))
          CFI (cfiCond293) DPH0 load(1, XDATA, add(CFA_XSP16, literal(-1)))
          CFI (cfiCond293) CFA_SP SP+-4
          CFI (cfiCond293) CFA_XSP16 add(XSP16, 33)
          CFI Block cfiCond294 Using cfiCommon0
          CFI (cfiCond294) Function MT_AfDataStore
          CFI (cfiCond294) Conditional ??CrossCallReturnLabel_165, ??CrossCallReturnLabel_28
          CFI (cfiCond294) R6 load(1, XDATA, add(CFA_XSP16, literal(-11)))
          CFI (cfiCond294) VB load(1, XDATA, add(CFA_XSP16, literal(-10)))
          CFI (cfiCond294) V0 load(1, XDATA, add(CFA_XSP16, literal(-9)))
          CFI (cfiCond294) V1 load(1, XDATA, add(CFA_XSP16, literal(-8)))
          CFI (cfiCond294) V2 load(1, XDATA, add(CFA_XSP16, literal(-7)))
          CFI (cfiCond294) R7 load(1, XDATA, add(CFA_XSP16, literal(-6)))
          CFI (cfiCond294) ?RET_LOW load(1, XDATA, add(CFA_XSP16, literal(-5)))
          CFI (cfiCond294) ?RET_HIGH load(1, XDATA, add(CFA_XSP16, literal(-4)))
          CFI (cfiCond294) ?BRET_EXT load(1, XDATA, add(CFA_XSP16, literal(-3)))
          CFI (cfiCond294) DPL0 load(1, XDATA, add(CFA_XSP16, literal(-2)))
          CFI (cfiCond294) DPH0 load(1, XDATA, add(CFA_XSP16, literal(-1)))
          CFI (cfiCond294) CFA_SP SP+-4
          CFI (cfiCond294) CFA_XSP16 add(XSP16, 17)
          CFI Block cfiCond295 Using cfiCommon0
          CFI (cfiCond295) Function MT_AfDataRequest
          CFI (cfiCond295) Conditional ??CrossCallReturnLabel_164, ??CrossCallReturnLabel_25
          CFI (cfiCond295) R6 load(1, XDATA, add(CFA_XSP16, literal(-16)))
          CFI (cfiCond295) VB load(1, XDATA, add(CFA_XSP16, literal(-15)))
          CFI (cfiCond295) V0 load(1, XDATA, add(CFA_XSP16, literal(-14)))
          CFI (cfiCond295) V1 load(1, XDATA, add(CFA_XSP16, literal(-13)))
          CFI (cfiCond295) V2 load(1, XDATA, add(CFA_XSP16, literal(-12)))
          CFI (cfiCond295) V3 load(1, XDATA, add(CFA_XSP16, literal(-11)))
          CFI (cfiCond295) V4 load(1, XDATA, add(CFA_XSP16, literal(-10)))
          CFI (cfiCond295) V5 load(1, XDATA, add(CFA_XSP16, literal(-9)))
          CFI (cfiCond295) V6 load(1, XDATA, add(CFA_XSP16, literal(-8)))
          CFI (cfiCond295) V7 load(1, XDATA, add(CFA_XSP16, literal(-7)))
          CFI (cfiCond295) R7 load(1, XDATA, add(CFA_XSP16, literal(-6)))
          CFI (cfiCond295) ?RET_LOW load(1, XDATA, add(CFA_XSP16, literal(-5)))
          CFI (cfiCond295) ?RET_HIGH load(1, XDATA, add(CFA_XSP16, literal(-4)))
          CFI (cfiCond295) ?BRET_EXT load(1, XDATA, add(CFA_XSP16, literal(-3)))
          CFI (cfiCond295) DPL0 load(1, XDATA, add(CFA_XSP16, literal(-2)))
          CFI (cfiCond295) DPH0 load(1, XDATA, add(CFA_XSP16, literal(-1)))
          CFI (cfiCond295) CFA_SP SP+-4
          CFI (cfiCond295) CFA_XSP16 add(XSP16, 33)
          CFI Block cfiCond296 Using cfiCommon0
          CFI (cfiCond296) Function MT_AfDataStore
          CFI (cfiCond296) Conditional ??CrossCallReturnLabel_164, ??CrossCallReturnLabel_26
          CFI (cfiCond296) R6 load(1, XDATA, add(CFA_XSP16, literal(-11)))
          CFI (cfiCond296) VB load(1, XDATA, add(CFA_XSP16, literal(-10)))
          CFI (cfiCond296) V0 load(1, XDATA, add(CFA_XSP16, literal(-9)))
          CFI (cfiCond296) V1 load(1, XDATA, add(CFA_XSP16, literal(-8)))
          CFI (cfiCond296) V2 load(1, XDATA, add(CFA_XSP16, literal(-7)))
          CFI (cfiCond296) R7 load(1, XDATA, add(CFA_XSP16, literal(-6)))
          CFI (cfiCond296) ?RET_LOW load(1, XDATA, add(CFA_XSP16, literal(-5)))
          CFI (cfiCond296) ?RET_HIGH load(1, XDATA, add(CFA_XSP16, literal(-4)))
          CFI (cfiCond296) ?BRET_EXT load(1, XDATA, add(CFA_XSP16, literal(-3)))
          CFI (cfiCond296) DPL0 load(1, XDATA, add(CFA_XSP16, literal(-2)))
          CFI (cfiCond296) DPH0 load(1, XDATA, add(CFA_XSP16, literal(-1)))
          CFI (cfiCond296) CFA_SP SP+-4
          CFI (cfiCond296) CFA_XSP16 add(XSP16, 19)
          CFI Block cfiPicker297 Using cfiCommon1
          CFI (cfiPicker297) NoFunction
          CFI (cfiPicker297) Picker
        MOV     DPTR,#pMtAfDataReq
          CFI EndBlock cfiCond291
          CFI EndBlock cfiCond292
          CFI EndBlock cfiCond293
          CFI EndBlock cfiCond294
          CFI EndBlock cfiCond295
          CFI EndBlock cfiCond296
          CFI EndBlock cfiPicker297
        REQUIRE ??Subroutine60_0
        ; // Fall through to label ??Subroutine60_0

        RSEG BANKED_CODE:HUGECODE:NOROOT(0)
??Subroutine60_0:
          CFI Block cfiCond298 Using cfiCommon0
          CFI Function MT_AfIncomingMsg
          CFI Conditional ??CrossCallReturnLabel_166, ??CrossCallReturnLabel_110
          CFI R6 load(1, XDATA, add(CFA_XSP16, literal(-16)))
          CFI VB load(1, XDATA, add(CFA_XSP16, literal(-15)))
          CFI V0 load(1, XDATA, add(CFA_XSP16, literal(-14)))
          CFI V1 load(1, XDATA, add(CFA_XSP16, literal(-13)))
          CFI V2 load(1, XDATA, add(CFA_XSP16, literal(-12)))
          CFI V3 load(1, XDATA, add(CFA_XSP16, literal(-11)))
          CFI V4 load(1, XDATA, add(CFA_XSP16, literal(-10)))
          CFI V5 load(1, XDATA, add(CFA_XSP16, literal(-9)))
          CFI V6 load(1, XDATA, add(CFA_XSP16, literal(-8)))
          CFI V7 load(1, XDATA, add(CFA_XSP16, literal(-7)))
          CFI R7 load(1, XDATA, add(CFA_XSP16, literal(-6)))
          CFI ?RET_LOW load(1, XDATA, add(CFA_XSP16, literal(-5)))
          CFI ?RET_HIGH load(1, XDATA, add(CFA_XSP16, literal(-4)))
          CFI ?BRET_EXT load(1, XDATA, add(CFA_XSP16, literal(-3)))
          CFI DPL0 load(1, XDATA, add(CFA_XSP16, literal(-2)))
          CFI DPH0 load(1, XDATA, add(CFA_XSP16, literal(-1)))
          CFI CFA_SP SP+-4
          CFI CFA_XSP16 add(XSP16, 23)
          CFI Block cfiCond299 Using cfiCommon0
          CFI (cfiCond299) Function MT_AfIncomingMsg
          CFI (cfiCond299) Conditional ??CrossCallReturnLabel_166, ??CrossCallReturnLabel_111
          CFI (cfiCond299) R6 load(1, XDATA, add(CFA_XSP16, literal(-16)))
          CFI (cfiCond299) VB load(1, XDATA, add(CFA_XSP16, literal(-15)))
          CFI (cfiCond299) V0 load(1, XDATA, add(CFA_XSP16, literal(-14)))
          CFI (cfiCond299) V1 load(1, XDATA, add(CFA_XSP16, literal(-13)))
          CFI (cfiCond299) V2 load(1, XDATA, add(CFA_XSP16, literal(-12)))
          CFI (cfiCond299) V3 load(1, XDATA, add(CFA_XSP16, literal(-11)))
          CFI (cfiCond299) V4 load(1, XDATA, add(CFA_XSP16, literal(-10)))
          CFI (cfiCond299) V5 load(1, XDATA, add(CFA_XSP16, literal(-9)))
          CFI (cfiCond299) V6 load(1, XDATA, add(CFA_XSP16, literal(-8)))
          CFI (cfiCond299) V7 load(1, XDATA, add(CFA_XSP16, literal(-7)))
          CFI (cfiCond299) R7 load(1, XDATA, add(CFA_XSP16, literal(-6)))
          CFI (cfiCond299) ?RET_LOW load(1, XDATA, add(CFA_XSP16, literal(-5)))
          CFI (cfiCond299) ?RET_HIGH load(1, XDATA, add(CFA_XSP16, literal(-4)))
          CFI (cfiCond299) ?BRET_EXT load(1, XDATA, add(CFA_XSP16, literal(-3)))
          CFI (cfiCond299) DPL0 load(1, XDATA, add(CFA_XSP16, literal(-2)))
          CFI (cfiCond299) DPH0 load(1, XDATA, add(CFA_XSP16, literal(-1)))
          CFI (cfiCond299) CFA_SP SP+-4
          CFI (cfiCond299) CFA_XSP16 add(XSP16, 23)
          CFI Block cfiCond300 Using cfiCommon0
          CFI (cfiCond300) Function MT_AfIncomingMsg
          CFI (cfiCond300) Conditional ??CrossCallReturnLabel_166, ??CrossCallReturnLabel_112
          CFI (cfiCond300) R6 load(1, XDATA, add(CFA_XSP16, literal(-16)))
          CFI (cfiCond300) VB load(1, XDATA, add(CFA_XSP16, literal(-15)))
          CFI (cfiCond300) V0 load(1, XDATA, add(CFA_XSP16, literal(-14)))
          CFI (cfiCond300) V1 load(1, XDATA, add(CFA_XSP16, literal(-13)))
          CFI (cfiCond300) V2 load(1, XDATA, add(CFA_XSP16, literal(-12)))
          CFI (cfiCond300) V3 load(1, XDATA, add(CFA_XSP16, literal(-11)))
          CFI (cfiCond300) V4 load(1, XDATA, add(CFA_XSP16, literal(-10)))
          CFI (cfiCond300) V5 load(1, XDATA, add(CFA_XSP16, literal(-9)))
          CFI (cfiCond300) V6 load(1, XDATA, add(CFA_XSP16, literal(-8)))
          CFI (cfiCond300) V7 load(1, XDATA, add(CFA_XSP16, literal(-7)))
          CFI (cfiCond300) R7 load(1, XDATA, add(CFA_XSP16, literal(-6)))
          CFI (cfiCond300) ?RET_LOW load(1, XDATA, add(CFA_XSP16, literal(-5)))
          CFI (cfiCond300) ?RET_HIGH load(1, XDATA, add(CFA_XSP16, literal(-4)))
          CFI (cfiCond300) ?BRET_EXT load(1, XDATA, add(CFA_XSP16, literal(-3)))
          CFI (cfiCond300) DPL0 load(1, XDATA, add(CFA_XSP16, literal(-2)))
          CFI (cfiCond300) DPH0 load(1, XDATA, add(CFA_XSP16, literal(-1)))
          CFI (cfiCond300) CFA_SP SP+-4
          CFI (cfiCond300) CFA_XSP16 add(XSP16, 23)
          CFI Block cfiCond301 Using cfiCommon0
          CFI (cfiCond301) Function MT_AfIncomingMsg
          CFI (cfiCond301) Conditional ??CrossCallReturnLabel_166, ??CrossCallReturnLabel_117
          CFI (cfiCond301) R6 load(1, XDATA, add(CFA_XSP16, literal(-16)))
          CFI (cfiCond301) VB load(1, XDATA, add(CFA_XSP16, literal(-15)))
          CFI (cfiCond301) V0 load(1, XDATA, add(CFA_XSP16, literal(-14)))
          CFI (cfiCond301) V1 load(1, XDATA, add(CFA_XSP16, literal(-13)))
          CFI (cfiCond301) V2 load(1, XDATA, add(CFA_XSP16, literal(-12)))
          CFI (cfiCond301) V3 load(1, XDATA, add(CFA_XSP16, literal(-11)))
          CFI (cfiCond301) V4 load(1, XDATA, add(CFA_XSP16, literal(-10)))
          CFI (cfiCond301) V5 load(1, XDATA, add(CFA_XSP16, literal(-9)))
          CFI (cfiCond301) V6 load(1, XDATA, add(CFA_XSP16, literal(-8)))
          CFI (cfiCond301) V7 load(1, XDATA, add(CFA_XSP16, literal(-7)))
          CFI (cfiCond301) R7 load(1, XDATA, add(CFA_XSP16, literal(-6)))
          CFI (cfiCond301) ?RET_LOW load(1, XDATA, add(CFA_XSP16, literal(-5)))
          CFI (cfiCond301) ?RET_HIGH load(1, XDATA, add(CFA_XSP16, literal(-4)))
          CFI (cfiCond301) ?BRET_EXT load(1, XDATA, add(CFA_XSP16, literal(-3)))
          CFI (cfiCond301) DPL0 load(1, XDATA, add(CFA_XSP16, literal(-2)))
          CFI (cfiCond301) DPH0 load(1, XDATA, add(CFA_XSP16, literal(-1)))
          CFI (cfiCond301) CFA_SP SP+-4
          CFI (cfiCond301) CFA_XSP16 add(XSP16, 23)
          CFI Block cfiCond302 Using cfiCommon0
          CFI (cfiCond302) Function MT_AfIncomingMsg
          CFI (cfiCond302) Conditional ??CrossCallReturnLabel_166, ??CrossCallReturnLabel_118
          CFI (cfiCond302) R6 load(1, XDATA, add(CFA_XSP16, literal(-16)))
          CFI (cfiCond302) VB load(1, XDATA, add(CFA_XSP16, literal(-15)))
          CFI (cfiCond302) V0 load(1, XDATA, add(CFA_XSP16, literal(-14)))
          CFI (cfiCond302) V1 load(1, XDATA, add(CFA_XSP16, literal(-13)))
          CFI (cfiCond302) V2 load(1, XDATA, add(CFA_XSP16, literal(-12)))
          CFI (cfiCond302) V3 load(1, XDATA, add(CFA_XSP16, literal(-11)))
          CFI (cfiCond302) V4 load(1, XDATA, add(CFA_XSP16, literal(-10)))
          CFI (cfiCond302) V5 load(1, XDATA, add(CFA_XSP16, literal(-9)))
          CFI (cfiCond302) V6 load(1, XDATA, add(CFA_XSP16, literal(-8)))
          CFI (cfiCond302) V7 load(1, XDATA, add(CFA_XSP16, literal(-7)))
          CFI (cfiCond302) R7 load(1, XDATA, add(CFA_XSP16, literal(-6)))
          CFI (cfiCond302) ?RET_LOW load(1, XDATA, add(CFA_XSP16, literal(-5)))
          CFI (cfiCond302) ?RET_HIGH load(1, XDATA, add(CFA_XSP16, literal(-4)))
          CFI (cfiCond302) ?BRET_EXT load(1, XDATA, add(CFA_XSP16, literal(-3)))
          CFI (cfiCond302) DPL0 load(1, XDATA, add(CFA_XSP16, literal(-2)))
          CFI (cfiCond302) DPH0 load(1, XDATA, add(CFA_XSP16, literal(-1)))
          CFI (cfiCond302) CFA_SP SP+-4
          CFI (cfiCond302) CFA_XSP16 add(XSP16, 23)
          CFI Block cfiCond303 Using cfiCommon0
          CFI (cfiCond303) Function MT_AfIncomingMsg
          CFI (cfiCond303) Conditional ??CrossCallReturnLabel_166, ??CrossCallReturnLabel_119
          CFI (cfiCond303) R6 load(1, XDATA, add(CFA_XSP16, literal(-16)))
          CFI (cfiCond303) VB load(1, XDATA, add(CFA_XSP16, literal(-15)))
          CFI (cfiCond303) V0 load(1, XDATA, add(CFA_XSP16, literal(-14)))
          CFI (cfiCond303) V1 load(1, XDATA, add(CFA_XSP16, literal(-13)))
          CFI (cfiCond303) V2 load(1, XDATA, add(CFA_XSP16, literal(-12)))
          CFI (cfiCond303) V3 load(1, XDATA, add(CFA_XSP16, literal(-11)))
          CFI (cfiCond303) V4 load(1, XDATA, add(CFA_XSP16, literal(-10)))
          CFI (cfiCond303) V5 load(1, XDATA, add(CFA_XSP16, literal(-9)))
          CFI (cfiCond303) V6 load(1, XDATA, add(CFA_XSP16, literal(-8)))
          CFI (cfiCond303) V7 load(1, XDATA, add(CFA_XSP16, literal(-7)))
          CFI (cfiCond303) R7 load(1, XDATA, add(CFA_XSP16, literal(-6)))
          CFI (cfiCond303) ?RET_LOW load(1, XDATA, add(CFA_XSP16, literal(-5)))
          CFI (cfiCond303) ?RET_HIGH load(1, XDATA, add(CFA_XSP16, literal(-4)))
          CFI (cfiCond303) ?BRET_EXT load(1, XDATA, add(CFA_XSP16, literal(-3)))
          CFI (cfiCond303) DPL0 load(1, XDATA, add(CFA_XSP16, literal(-2)))
          CFI (cfiCond303) DPH0 load(1, XDATA, add(CFA_XSP16, literal(-1)))
          CFI (cfiCond303) CFA_SP SP+-4
          CFI (cfiCond303) CFA_XSP16 add(XSP16, 23)
          CFI Block cfiCond304 Using cfiCommon0
          CFI (cfiCond304) Function MT_AfDataRequest
          CFI (cfiCond304) Conditional ??CrossCallReturnLabel_166, ??CrossCallReturnLabel_113
          CFI (cfiCond304) R6 load(1, XDATA, add(CFA_XSP16, literal(-16)))
          CFI (cfiCond304) VB load(1, XDATA, add(CFA_XSP16, literal(-15)))
          CFI (cfiCond304) V0 load(1, XDATA, add(CFA_XSP16, literal(-14)))
          CFI (cfiCond304) V1 load(1, XDATA, add(CFA_XSP16, literal(-13)))
          CFI (cfiCond304) V2 load(1, XDATA, add(CFA_XSP16, literal(-12)))
          CFI (cfiCond304) V3 load(1, XDATA, add(CFA_XSP16, literal(-11)))
          CFI (cfiCond304) V4 load(1, XDATA, add(CFA_XSP16, literal(-10)))
          CFI (cfiCond304) V5 load(1, XDATA, add(CFA_XSP16, literal(-9)))
          CFI (cfiCond304) V6 load(1, XDATA, add(CFA_XSP16, literal(-8)))
          CFI (cfiCond304) V7 load(1, XDATA, add(CFA_XSP16, literal(-7)))
          CFI (cfiCond304) R7 load(1, XDATA, add(CFA_XSP16, literal(-6)))
          CFI (cfiCond304) ?RET_LOW load(1, XDATA, add(CFA_XSP16, literal(-5)))
          CFI (cfiCond304) ?RET_HIGH load(1, XDATA, add(CFA_XSP16, literal(-4)))
          CFI (cfiCond304) ?BRET_EXT load(1, XDATA, add(CFA_XSP16, literal(-3)))
          CFI (cfiCond304) DPL0 load(1, XDATA, add(CFA_XSP16, literal(-2)))
          CFI (cfiCond304) DPH0 load(1, XDATA, add(CFA_XSP16, literal(-1)))
          CFI (cfiCond304) CFA_SP SP+-4
          CFI (cfiCond304) CFA_XSP16 add(XSP16, 33)
          CFI Block cfiCond305 Using cfiCommon0
          CFI (cfiCond305) Function MT_AfDataRequest
          CFI (cfiCond305) Conditional ??CrossCallReturnLabel_166, ??CrossCallReturnLabel_114
          CFI (cfiCond305) R6 load(1, XDATA, add(CFA_XSP16, literal(-16)))
          CFI (cfiCond305) VB load(1, XDATA, add(CFA_XSP16, literal(-15)))
          CFI (cfiCond305) V0 load(1, XDATA, add(CFA_XSP16, literal(-14)))
          CFI (cfiCond305) V1 load(1, XDATA, add(CFA_XSP16, literal(-13)))
          CFI (cfiCond305) V2 load(1, XDATA, add(CFA_XSP16, literal(-12)))
          CFI (cfiCond305) V3 load(1, XDATA, add(CFA_XSP16, literal(-11)))
          CFI (cfiCond305) V4 load(1, XDATA, add(CFA_XSP16, literal(-10)))
          CFI (cfiCond305) V5 load(1, XDATA, add(CFA_XSP16, literal(-9)))
          CFI (cfiCond305) V6 load(1, XDATA, add(CFA_XSP16, literal(-8)))
          CFI (cfiCond305) V7 load(1, XDATA, add(CFA_XSP16, literal(-7)))
          CFI (cfiCond305) R7 load(1, XDATA, add(CFA_XSP16, literal(-6)))
          CFI (cfiCond305) ?RET_LOW load(1, XDATA, add(CFA_XSP16, literal(-5)))
          CFI (cfiCond305) ?RET_HIGH load(1, XDATA, add(CFA_XSP16, literal(-4)))
          CFI (cfiCond305) ?BRET_EXT load(1, XDATA, add(CFA_XSP16, literal(-3)))
          CFI (cfiCond305) DPL0 load(1, XDATA, add(CFA_XSP16, literal(-2)))
          CFI (cfiCond305) DPH0 load(1, XDATA, add(CFA_XSP16, literal(-1)))
          CFI (cfiCond305) CFA_SP SP+-4
          CFI (cfiCond305) CFA_XSP16 add(XSP16, 33)
          CFI Block cfiCond306 Using cfiCommon0
          CFI (cfiCond306) Function MT_AfIncomingMsg
          CFI (cfiCond306) Conditional ??CrossCallReturnLabel_166, ??CrossCallReturnLabel_115
          CFI (cfiCond306) R6 load(1, XDATA, add(CFA_XSP16, literal(-16)))
          CFI (cfiCond306) VB load(1, XDATA, add(CFA_XSP16, literal(-15)))
          CFI (cfiCond306) V0 load(1, XDATA, add(CFA_XSP16, literal(-14)))
          CFI (cfiCond306) V1 load(1, XDATA, add(CFA_XSP16, literal(-13)))
          CFI (cfiCond306) V2 load(1, XDATA, add(CFA_XSP16, literal(-12)))
          CFI (cfiCond306) V3 load(1, XDATA, add(CFA_XSP16, literal(-11)))
          CFI (cfiCond306) V4 load(1, XDATA, add(CFA_XSP16, literal(-10)))
          CFI (cfiCond306) V5 load(1, XDATA, add(CFA_XSP16, literal(-9)))
          CFI (cfiCond306) V6 load(1, XDATA, add(CFA_XSP16, literal(-8)))
          CFI (cfiCond306) V7 load(1, XDATA, add(CFA_XSP16, literal(-7)))
          CFI (cfiCond306) R7 load(1, XDATA, add(CFA_XSP16, literal(-6)))
          CFI (cfiCond306) ?RET_LOW load(1, XDATA, add(CFA_XSP16, literal(-5)))
          CFI (cfiCond306) ?RET_HIGH load(1, XDATA, add(CFA_XSP16, literal(-4)))
          CFI (cfiCond306) ?BRET_EXT load(1, XDATA, add(CFA_XSP16, literal(-3)))
          CFI (cfiCond306) DPL0 load(1, XDATA, add(CFA_XSP16, literal(-2)))
          CFI (cfiCond306) DPH0 load(1, XDATA, add(CFA_XSP16, literal(-1)))
          CFI (cfiCond306) CFA_SP SP+-5
          CFI (cfiCond306) CFA_XSP16 add(XSP16, 23)
          CFI Block cfiCond307 Using cfiCommon0
          CFI (cfiCond307) Function MT_AfIncomingMsg
          CFI (cfiCond307) Conditional ??CrossCallReturnLabel_166, ??CrossCallReturnLabel_116
          CFI (cfiCond307) R6 load(1, XDATA, add(CFA_XSP16, literal(-16)))
          CFI (cfiCond307) VB load(1, XDATA, add(CFA_XSP16, literal(-15)))
          CFI (cfiCond307) V0 load(1, XDATA, add(CFA_XSP16, literal(-14)))
          CFI (cfiCond307) V1 load(1, XDATA, add(CFA_XSP16, literal(-13)))
          CFI (cfiCond307) V2 load(1, XDATA, add(CFA_XSP16, literal(-12)))
          CFI (cfiCond307) V3 load(1, XDATA, add(CFA_XSP16, literal(-11)))
          CFI (cfiCond307) V4 load(1, XDATA, add(CFA_XSP16, literal(-10)))
          CFI (cfiCond307) V5 load(1, XDATA, add(CFA_XSP16, literal(-9)))
          CFI (cfiCond307) V6 load(1, XDATA, add(CFA_XSP16, literal(-8)))
          CFI (cfiCond307) V7 load(1, XDATA, add(CFA_XSP16, literal(-7)))
          CFI (cfiCond307) R7 load(1, XDATA, add(CFA_XSP16, literal(-6)))
          CFI (cfiCond307) ?RET_LOW load(1, XDATA, add(CFA_XSP16, literal(-5)))
          CFI (cfiCond307) ?RET_HIGH load(1, XDATA, add(CFA_XSP16, literal(-4)))
          CFI (cfiCond307) ?BRET_EXT load(1, XDATA, add(CFA_XSP16, literal(-3)))
          CFI (cfiCond307) DPL0 load(1, XDATA, add(CFA_XSP16, literal(-2)))
          CFI (cfiCond307) DPH0 load(1, XDATA, add(CFA_XSP16, literal(-1)))
          CFI (cfiCond307) CFA_SP SP+-4
          CFI (cfiCond307) CFA_XSP16 add(XSP16, 23)
          CFI Block cfiCond308 Using cfiCommon0
          CFI (cfiCond308) Function MT_AfDataRequest
          CFI (cfiCond308) Conditional ??CrossCallReturnLabel_162, ??CrossCallReturnLabel_31
          CFI (cfiCond308) R6 load(1, XDATA, add(CFA_XSP16, literal(-16)))
          CFI (cfiCond308) VB load(1, XDATA, add(CFA_XSP16, literal(-15)))
          CFI (cfiCond308) V0 load(1, XDATA, add(CFA_XSP16, literal(-14)))
          CFI (cfiCond308) V1 load(1, XDATA, add(CFA_XSP16, literal(-13)))
          CFI (cfiCond308) V2 load(1, XDATA, add(CFA_XSP16, literal(-12)))
          CFI (cfiCond308) V3 load(1, XDATA, add(CFA_XSP16, literal(-11)))
          CFI (cfiCond308) V4 load(1, XDATA, add(CFA_XSP16, literal(-10)))
          CFI (cfiCond308) V5 load(1, XDATA, add(CFA_XSP16, literal(-9)))
          CFI (cfiCond308) V6 load(1, XDATA, add(CFA_XSP16, literal(-8)))
          CFI (cfiCond308) V7 load(1, XDATA, add(CFA_XSP16, literal(-7)))
          CFI (cfiCond308) R7 load(1, XDATA, add(CFA_XSP16, literal(-6)))
          CFI (cfiCond308) ?RET_LOW load(1, XDATA, add(CFA_XSP16, literal(-5)))
          CFI (cfiCond308) ?RET_HIGH load(1, XDATA, add(CFA_XSP16, literal(-4)))
          CFI (cfiCond308) ?BRET_EXT load(1, XDATA, add(CFA_XSP16, literal(-3)))
          CFI (cfiCond308) DPL0 load(1, XDATA, add(CFA_XSP16, literal(-2)))
          CFI (cfiCond308) DPH0 load(1, XDATA, add(CFA_XSP16, literal(-1)))
          CFI (cfiCond308) CFA_SP SP+-4
          CFI (cfiCond308) CFA_XSP16 add(XSP16, 33)
          CFI Block cfiCond309 Using cfiCommon0
          CFI (cfiCond309) Function MT_AfIncomingMsg
          CFI (cfiCond309) Conditional ??CrossCallReturnLabel_162, ??CrossCallReturnLabel_32
          CFI (cfiCond309) R6 load(1, XDATA, add(CFA_XSP16, literal(-16)))
          CFI (cfiCond309) VB load(1, XDATA, add(CFA_XSP16, literal(-15)))
          CFI (cfiCond309) V0 load(1, XDATA, add(CFA_XSP16, literal(-14)))
          CFI (cfiCond309) V1 load(1, XDATA, add(CFA_XSP16, literal(-13)))
          CFI (cfiCond309) V2 load(1, XDATA, add(CFA_XSP16, literal(-12)))
          CFI (cfiCond309) V3 load(1, XDATA, add(CFA_XSP16, literal(-11)))
          CFI (cfiCond309) V4 load(1, XDATA, add(CFA_XSP16, literal(-10)))
          CFI (cfiCond309) V5 load(1, XDATA, add(CFA_XSP16, literal(-9)))
          CFI (cfiCond309) V6 load(1, XDATA, add(CFA_XSP16, literal(-8)))
          CFI (cfiCond309) V7 load(1, XDATA, add(CFA_XSP16, literal(-7)))
          CFI (cfiCond309) R7 load(1, XDATA, add(CFA_XSP16, literal(-6)))
          CFI (cfiCond309) ?RET_LOW load(1, XDATA, add(CFA_XSP16, literal(-5)))
          CFI (cfiCond309) ?RET_HIGH load(1, XDATA, add(CFA_XSP16, literal(-4)))
          CFI (cfiCond309) ?BRET_EXT load(1, XDATA, add(CFA_XSP16, literal(-3)))
          CFI (cfiCond309) DPL0 load(1, XDATA, add(CFA_XSP16, literal(-2)))
          CFI (cfiCond309) DPH0 load(1, XDATA, add(CFA_XSP16, literal(-1)))
          CFI (cfiCond309) CFA_SP SP+-4
          CFI (cfiCond309) CFA_XSP16 add(XSP16, 23)
          CFI Block cfiCond310 Using cfiCommon0
          CFI (cfiCond310) Function MT_AfDataRequest
          CFI (cfiCond310) Conditional ??CrossCallReturnLabel_161, ??CrossCallReturnLabel_29
          CFI (cfiCond310) R6 load(1, XDATA, add(CFA_XSP16, literal(-16)))
          CFI (cfiCond310) VB load(1, XDATA, add(CFA_XSP16, literal(-15)))
          CFI (cfiCond310) V0 load(1, XDATA, add(CFA_XSP16, literal(-14)))
          CFI (cfiCond310) V1 load(1, XDATA, add(CFA_XSP16, literal(-13)))
          CFI (cfiCond310) V2 load(1, XDATA, add(CFA_XSP16, literal(-12)))
          CFI (cfiCond310) V3 load(1, XDATA, add(CFA_XSP16, literal(-11)))
          CFI (cfiCond310) V4 load(1, XDATA, add(CFA_XSP16, literal(-10)))
          CFI (cfiCond310) V5 load(1, XDATA, add(CFA_XSP16, literal(-9)))
          CFI (cfiCond310) V6 load(1, XDATA, add(CFA_XSP16, literal(-8)))
          CFI (cfiCond310) V7 load(1, XDATA, add(CFA_XSP16, literal(-7)))
          CFI (cfiCond310) R7 load(1, XDATA, add(CFA_XSP16, literal(-6)))
          CFI (cfiCond310) ?RET_LOW load(1, XDATA, add(CFA_XSP16, literal(-5)))
          CFI (cfiCond310) ?RET_HIGH load(1, XDATA, add(CFA_XSP16, literal(-4)))
          CFI (cfiCond310) ?BRET_EXT load(1, XDATA, add(CFA_XSP16, literal(-3)))
          CFI (cfiCond310) DPL0 load(1, XDATA, add(CFA_XSP16, literal(-2)))
          CFI (cfiCond310) DPH0 load(1, XDATA, add(CFA_XSP16, literal(-1)))
          CFI (cfiCond310) CFA_SP SP+-5
          CFI (cfiCond310) CFA_XSP16 add(XSP16, 33)
          CFI Block cfiCond311 Using cfiCommon0
          CFI (cfiCond311) Function MT_AfIncomingMsg
          CFI (cfiCond311) Conditional ??CrossCallReturnLabel_161, ??CrossCallReturnLabel_30
          CFI (cfiCond311) R6 load(1, XDATA, add(CFA_XSP16, literal(-16)))
          CFI (cfiCond311) VB load(1, XDATA, add(CFA_XSP16, literal(-15)))
          CFI (cfiCond311) V0 load(1, XDATA, add(CFA_XSP16, literal(-14)))
          CFI (cfiCond311) V1 load(1, XDATA, add(CFA_XSP16, literal(-13)))
          CFI (cfiCond311) V2 load(1, XDATA, add(CFA_XSP16, literal(-12)))
          CFI (cfiCond311) V3 load(1, XDATA, add(CFA_XSP16, literal(-11)))
          CFI (cfiCond311) V4 load(1, XDATA, add(CFA_XSP16, literal(-10)))
          CFI (cfiCond311) V5 load(1, XDATA, add(CFA_XSP16, literal(-9)))
          CFI (cfiCond311) V6 load(1, XDATA, add(CFA_XSP16, literal(-8)))
          CFI (cfiCond311) V7 load(1, XDATA, add(CFA_XSP16, literal(-7)))
          CFI (cfiCond311) R7 load(1, XDATA, add(CFA_XSP16, literal(-6)))
          CFI (cfiCond311) ?RET_LOW load(1, XDATA, add(CFA_XSP16, literal(-5)))
          CFI (cfiCond311) ?RET_HIGH load(1, XDATA, add(CFA_XSP16, literal(-4)))
          CFI (cfiCond311) ?BRET_EXT load(1, XDATA, add(CFA_XSP16, literal(-3)))
          CFI (cfiCond311) DPL0 load(1, XDATA, add(CFA_XSP16, literal(-2)))
          CFI (cfiCond311) DPH0 load(1, XDATA, add(CFA_XSP16, literal(-1)))
          CFI (cfiCond311) CFA_SP SP+-4
          CFI (cfiCond311) CFA_XSP16 add(XSP16, 23)
          CFI Block cfiCond312 Using cfiCommon0
          CFI (cfiCond312) Function MT_AfIncomingMsg
          CFI (cfiCond312) Conditional ??CrossCallReturnLabel_158, ??CrossCallReturnLabel_9
          CFI (cfiCond312) R6 load(1, XDATA, add(CFA_XSP16, literal(-16)))
          CFI (cfiCond312) VB load(1, XDATA, add(CFA_XSP16, literal(-15)))
          CFI (cfiCond312) V0 load(1, XDATA, add(CFA_XSP16, literal(-14)))
          CFI (cfiCond312) V1 load(1, XDATA, add(CFA_XSP16, literal(-13)))
          CFI (cfiCond312) V2 load(1, XDATA, add(CFA_XSP16, literal(-12)))
          CFI (cfiCond312) V3 load(1, XDATA, add(CFA_XSP16, literal(-11)))
          CFI (cfiCond312) V4 load(1, XDATA, add(CFA_XSP16, literal(-10)))
          CFI (cfiCond312) V5 load(1, XDATA, add(CFA_XSP16, literal(-9)))
          CFI (cfiCond312) V6 load(1, XDATA, add(CFA_XSP16, literal(-8)))
          CFI (cfiCond312) V7 load(1, XDATA, add(CFA_XSP16, literal(-7)))
          CFI (cfiCond312) R7 load(1, XDATA, add(CFA_XSP16, literal(-6)))
          CFI (cfiCond312) ?RET_LOW load(1, XDATA, add(CFA_XSP16, literal(-5)))
          CFI (cfiCond312) ?RET_HIGH load(1, XDATA, add(CFA_XSP16, literal(-4)))
          CFI (cfiCond312) ?BRET_EXT load(1, XDATA, add(CFA_XSP16, literal(-3)))
          CFI (cfiCond312) DPL0 load(1, XDATA, add(CFA_XSP16, literal(-2)))
          CFI (cfiCond312) DPH0 load(1, XDATA, add(CFA_XSP16, literal(-1)))
          CFI (cfiCond312) CFA_SP SP+-4
          CFI (cfiCond312) CFA_XSP16 add(XSP16, 23)
          CFI Block cfiCond313 Using cfiCommon0
          CFI (cfiCond313) Function MT_AfIncomingMsg
          CFI (cfiCond313) Conditional ??CrossCallReturnLabel_158, ??CrossCallReturnLabel_10
          CFI (cfiCond313) R6 load(1, XDATA, add(CFA_XSP16, literal(-16)))
          CFI (cfiCond313) VB load(1, XDATA, add(CFA_XSP16, literal(-15)))
          CFI (cfiCond313) V0 load(1, XDATA, add(CFA_XSP16, literal(-14)))
          CFI (cfiCond313) V1 load(1, XDATA, add(CFA_XSP16, literal(-13)))
          CFI (cfiCond313) V2 load(1, XDATA, add(CFA_XSP16, literal(-12)))
          CFI (cfiCond313) V3 load(1, XDATA, add(CFA_XSP16, literal(-11)))
          CFI (cfiCond313) V4 load(1, XDATA, add(CFA_XSP16, literal(-10)))
          CFI (cfiCond313) V5 load(1, XDATA, add(CFA_XSP16, literal(-9)))
          CFI (cfiCond313) V6 load(1, XDATA, add(CFA_XSP16, literal(-8)))
          CFI (cfiCond313) V7 load(1, XDATA, add(CFA_XSP16, literal(-7)))
          CFI (cfiCond313) R7 load(1, XDATA, add(CFA_XSP16, literal(-6)))
          CFI (cfiCond313) ?RET_LOW load(1, XDATA, add(CFA_XSP16, literal(-5)))
          CFI (cfiCond313) ?RET_HIGH load(1, XDATA, add(CFA_XSP16, literal(-4)))
          CFI (cfiCond313) ?BRET_EXT load(1, XDATA, add(CFA_XSP16, literal(-3)))
          CFI (cfiCond313) DPL0 load(1, XDATA, add(CFA_XSP16, literal(-2)))
          CFI (cfiCond313) DPH0 load(1, XDATA, add(CFA_XSP16, literal(-1)))
          CFI (cfiCond313) CFA_SP SP+-4
          CFI (cfiCond313) CFA_XSP16 add(XSP16, 23)
          CFI Block cfiCond314 Using cfiCommon0
          CFI (cfiCond314) Function MT_AfIncomingMsg
          CFI (cfiCond314) Conditional ??CrossCallReturnLabel_160, ??CrossCallReturnLabel_19
          CFI (cfiCond314) R6 load(1, XDATA, add(CFA_XSP16, literal(-16)))
          CFI (cfiCond314) VB load(1, XDATA, add(CFA_XSP16, literal(-15)))
          CFI (cfiCond314) V0 load(1, XDATA, add(CFA_XSP16, literal(-14)))
          CFI (cfiCond314) V1 load(1, XDATA, add(CFA_XSP16, literal(-13)))
          CFI (cfiCond314) V2 load(1, XDATA, add(CFA_XSP16, literal(-12)))
          CFI (cfiCond314) V3 load(1, XDATA, add(CFA_XSP16, literal(-11)))
          CFI (cfiCond314) V4 load(1, XDATA, add(CFA_XSP16, literal(-10)))
          CFI (cfiCond314) V5 load(1, XDATA, add(CFA_XSP16, literal(-9)))
          CFI (cfiCond314) V6 load(1, XDATA, add(CFA_XSP16, literal(-8)))
          CFI (cfiCond314) V7 load(1, XDATA, add(CFA_XSP16, literal(-7)))
          CFI (cfiCond314) R7 load(1, XDATA, add(CFA_XSP16, literal(-6)))
          CFI (cfiCond314) ?RET_LOW load(1, XDATA, add(CFA_XSP16, literal(-5)))
          CFI (cfiCond314) ?RET_HIGH load(1, XDATA, add(CFA_XSP16, literal(-4)))
          CFI (cfiCond314) ?BRET_EXT load(1, XDATA, add(CFA_XSP16, literal(-3)))
          CFI (cfiCond314) DPL0 load(1, XDATA, add(CFA_XSP16, literal(-2)))
          CFI (cfiCond314) DPH0 load(1, XDATA, add(CFA_XSP16, literal(-1)))
          CFI (cfiCond314) CFA_SP SP+-4
          CFI (cfiCond314) CFA_XSP16 add(XSP16, 23)
          CFI Block cfiCond315 Using cfiCommon0
          CFI (cfiCond315) Function MT_AfDataStore
          CFI (cfiCond315) Conditional ??CrossCallReturnLabel_160, ??CrossCallReturnLabel_20
          CFI (cfiCond315) R6 load(1, XDATA, add(CFA_XSP16, literal(-11)))
          CFI (cfiCond315) VB load(1, XDATA, add(CFA_XSP16, literal(-10)))
          CFI (cfiCond315) V0 load(1, XDATA, add(CFA_XSP16, literal(-9)))
          CFI (cfiCond315) V1 load(1, XDATA, add(CFA_XSP16, literal(-8)))
          CFI (cfiCond315) V2 load(1, XDATA, add(CFA_XSP16, literal(-7)))
          CFI (cfiCond315) R7 load(1, XDATA, add(CFA_XSP16, literal(-6)))
          CFI (cfiCond315) ?RET_LOW load(1, XDATA, add(CFA_XSP16, literal(-5)))
          CFI (cfiCond315) ?RET_HIGH load(1, XDATA, add(CFA_XSP16, literal(-4)))
          CFI (cfiCond315) ?BRET_EXT load(1, XDATA, add(CFA_XSP16, literal(-3)))
          CFI (cfiCond315) DPL0 load(1, XDATA, add(CFA_XSP16, literal(-2)))
          CFI (cfiCond315) DPH0 load(1, XDATA, add(CFA_XSP16, literal(-1)))
          CFI (cfiCond315) CFA_SP SP+-4
          CFI (cfiCond315) CFA_XSP16 add(XSP16, 21)
          CFI Block cfiCond316 Using cfiCommon0
          CFI (cfiCond316) Function MT_AfIncomingMsg
          CFI (cfiCond316) Conditional ??CrossCallReturnLabel_159, ??CrossCallReturnLabel_17
          CFI (cfiCond316) R6 load(1, XDATA, add(CFA_XSP16, literal(-16)))
          CFI (cfiCond316) VB load(1, XDATA, add(CFA_XSP16, literal(-15)))
          CFI (cfiCond316) V0 load(1, XDATA, add(CFA_XSP16, literal(-14)))
          CFI (cfiCond316) V1 load(1, XDATA, add(CFA_XSP16, literal(-13)))
          CFI (cfiCond316) V2 load(1, XDATA, add(CFA_XSP16, literal(-12)))
          CFI (cfiCond316) V3 load(1, XDATA, add(CFA_XSP16, literal(-11)))
          CFI (cfiCond316) V4 load(1, XDATA, add(CFA_XSP16, literal(-10)))
          CFI (cfiCond316) V5 load(1, XDATA, add(CFA_XSP16, literal(-9)))
          CFI (cfiCond316) V6 load(1, XDATA, add(CFA_XSP16, literal(-8)))
          CFI (cfiCond316) V7 load(1, XDATA, add(CFA_XSP16, literal(-7)))
          CFI (cfiCond316) R7 load(1, XDATA, add(CFA_XSP16, literal(-6)))
          CFI (cfiCond316) ?RET_LOW load(1, XDATA, add(CFA_XSP16, literal(-5)))
          CFI (cfiCond316) ?RET_HIGH load(1, XDATA, add(CFA_XSP16, literal(-4)))
          CFI (cfiCond316) ?BRET_EXT load(1, XDATA, add(CFA_XSP16, literal(-3)))
          CFI (cfiCond316) DPL0 load(1, XDATA, add(CFA_XSP16, literal(-2)))
          CFI (cfiCond316) DPH0 load(1, XDATA, add(CFA_XSP16, literal(-1)))
          CFI (cfiCond316) CFA_SP SP+-4
          CFI (cfiCond316) CFA_XSP16 add(XSP16, 23)
          CFI Block cfiCond317 Using cfiCommon0
          CFI (cfiCond317) Function MT_AfDataStore
          CFI (cfiCond317) Conditional ??CrossCallReturnLabel_159, ??CrossCallReturnLabel_18
          CFI (cfiCond317) R6 load(1, XDATA, add(CFA_XSP16, literal(-11)))
          CFI (cfiCond317) VB load(1, XDATA, add(CFA_XSP16, literal(-10)))
          CFI (cfiCond317) V0 load(1, XDATA, add(CFA_XSP16, literal(-9)))
          CFI (cfiCond317) V1 load(1, XDATA, add(CFA_XSP16, literal(-8)))
          CFI (cfiCond317) V2 load(1, XDATA, add(CFA_XSP16, literal(-7)))
          CFI (cfiCond317) R7 load(1, XDATA, add(CFA_XSP16, literal(-6)))
          CFI (cfiCond317) ?RET_LOW load(1, XDATA, add(CFA_XSP16, literal(-5)))
          CFI (cfiCond317) ?RET_HIGH load(1, XDATA, add(CFA_XSP16, literal(-4)))
          CFI (cfiCond317) ?BRET_EXT load(1, XDATA, add(CFA_XSP16, literal(-3)))
          CFI (cfiCond317) DPL0 load(1, XDATA, add(CFA_XSP16, literal(-2)))
          CFI (cfiCond317) DPH0 load(1, XDATA, add(CFA_XSP16, literal(-1)))
          CFI (cfiCond317) CFA_SP SP+-4
          CFI (cfiCond317) CFA_XSP16 add(XSP16, 21)
          CFI Block cfiCond318 Using cfiCommon0
          CFI (cfiCond318) Function MT_AfExec
          CFI (cfiCond318) Conditional ??CrossCallReturnLabel_163, ??CrossCallReturnLabel_24
          CFI (cfiCond318) R6 load(1, XDATA, add(CFA_XSP16, literal(-9)))
          CFI (cfiCond318) VB load(1, XDATA, add(CFA_XSP16, literal(-8)))
          CFI (cfiCond318) V0 load(1, XDATA, add(CFA_XSP16, literal(-7)))
          CFI (cfiCond318) R7 load(1, XDATA, add(CFA_XSP16, literal(-6)))
          CFI (cfiCond318) ?RET_LOW load(1, XDATA, add(CFA_XSP16, literal(-5)))
          CFI (cfiCond318) ?RET_HIGH load(1, XDATA, add(CFA_XSP16, literal(-4)))
          CFI (cfiCond318) ?BRET_EXT load(1, XDATA, add(CFA_XSP16, literal(-3)))
          CFI (cfiCond318) DPL0 load(1, XDATA, add(CFA_XSP16, literal(-2)))
          CFI (cfiCond318) DPH0 load(1, XDATA, add(CFA_XSP16, literal(-1)))
          CFI (cfiCond318) CFA_SP SP+-4
          CFI (cfiCond318) CFA_XSP16 add(XSP16, 9)
          CFI Block cfiCond319 Using cfiCommon0
          CFI (cfiCond319) Function MT_AfDataRequest
          CFI (cfiCond319) Conditional ??CrossCallReturnLabel_163, ??CrossCallReturnLabel_23
          CFI (cfiCond319) R6 load(1, XDATA, add(CFA_XSP16, literal(-16)))
          CFI (cfiCond319) VB load(1, XDATA, add(CFA_XSP16, literal(-15)))
          CFI (cfiCond319) V0 load(1, XDATA, add(CFA_XSP16, literal(-14)))
          CFI (cfiCond319) V1 load(1, XDATA, add(CFA_XSP16, literal(-13)))
          CFI (cfiCond319) V2 load(1, XDATA, add(CFA_XSP16, literal(-12)))
          CFI (cfiCond319) V3 load(1, XDATA, add(CFA_XSP16, literal(-11)))
          CFI (cfiCond319) V4 load(1, XDATA, add(CFA_XSP16, literal(-10)))
          CFI (cfiCond319) V5 load(1, XDATA, add(CFA_XSP16, literal(-9)))
          CFI (cfiCond319) V6 load(1, XDATA, add(CFA_XSP16, literal(-8)))
          CFI (cfiCond319) V7 load(1, XDATA, add(CFA_XSP16, literal(-7)))
          CFI (cfiCond319) R7 load(1, XDATA, add(CFA_XSP16, literal(-6)))
          CFI (cfiCond319) ?RET_LOW load(1, XDATA, add(CFA_XSP16, literal(-5)))
          CFI (cfiCond319) ?RET_HIGH load(1, XDATA, add(CFA_XSP16, literal(-4)))
          CFI (cfiCond319) ?BRET_EXT load(1, XDATA, add(CFA_XSP16, literal(-3)))
          CFI (cfiCond319) DPL0 load(1, XDATA, add(CFA_XSP16, literal(-2)))
          CFI (cfiCond319) DPH0 load(1, XDATA, add(CFA_XSP16, literal(-1)))
          CFI (cfiCond319) CFA_SP SP+-4
          CFI (cfiCond319) CFA_XSP16 add(XSP16, 33)
          CFI Block cfiCond320 Using cfiCommon0
          CFI (cfiCond320) Function MT_AfDataRequest
          CFI (cfiCond320) Conditional ??CrossCallReturnLabel_165, ??CrossCallReturnLabel_27
          CFI (cfiCond320) R6 load(1, XDATA, add(CFA_XSP16, literal(-16)))
          CFI (cfiCond320) VB load(1, XDATA, add(CFA_XSP16, literal(-15)))
          CFI (cfiCond320) V0 load(1, XDATA, add(CFA_XSP16, literal(-14)))
          CFI (cfiCond320) V1 load(1, XDATA, add(CFA_XSP16, literal(-13)))
          CFI (cfiCond320) V2 load(1, XDATA, add(CFA_XSP16, literal(-12)))
          CFI (cfiCond320) V3 load(1, XDATA, add(CFA_XSP16, literal(-11)))
          CFI (cfiCond320) V4 load(1, XDATA, add(CFA_XSP16, literal(-10)))
          CFI (cfiCond320) V5 load(1, XDATA, add(CFA_XSP16, literal(-9)))
          CFI (cfiCond320) V6 load(1, XDATA, add(CFA_XSP16, literal(-8)))
          CFI (cfiCond320) V7 load(1, XDATA, add(CFA_XSP16, literal(-7)))
          CFI (cfiCond320) R7 load(1, XDATA, add(CFA_XSP16, literal(-6)))
          CFI (cfiCond320) ?RET_LOW load(1, XDATA, add(CFA_XSP16, literal(-5)))
          CFI (cfiCond320) ?RET_HIGH load(1, XDATA, add(CFA_XSP16, literal(-4)))
          CFI (cfiCond320) ?BRET_EXT load(1, XDATA, add(CFA_XSP16, literal(-3)))
          CFI (cfiCond320) DPL0 load(1, XDATA, add(CFA_XSP16, literal(-2)))
          CFI (cfiCond320) DPH0 load(1, XDATA, add(CFA_XSP16, literal(-1)))
          CFI (cfiCond320) CFA_SP SP+-4
          CFI (cfiCond320) CFA_XSP16 add(XSP16, 33)
          CFI Block cfiCond321 Using cfiCommon0
          CFI (cfiCond321) Function MT_AfDataStore
          CFI (cfiCond321) Conditional ??CrossCallReturnLabel_165, ??CrossCallReturnLabel_28
          CFI (cfiCond321) R6 load(1, XDATA, add(CFA_XSP16, literal(-11)))
          CFI (cfiCond321) VB load(1, XDATA, add(CFA_XSP16, literal(-10)))
          CFI (cfiCond321) V0 load(1, XDATA, add(CFA_XSP16, literal(-9)))
          CFI (cfiCond321) V1 load(1, XDATA, add(CFA_XSP16, literal(-8)))
          CFI (cfiCond321) V2 load(1, XDATA, add(CFA_XSP16, literal(-7)))
          CFI (cfiCond321) R7 load(1, XDATA, add(CFA_XSP16, literal(-6)))
          CFI (cfiCond321) ?RET_LOW load(1, XDATA, add(CFA_XSP16, literal(-5)))
          CFI (cfiCond321) ?RET_HIGH load(1, XDATA, add(CFA_XSP16, literal(-4)))
          CFI (cfiCond321) ?BRET_EXT load(1, XDATA, add(CFA_XSP16, literal(-3)))
          CFI (cfiCond321) DPL0 load(1, XDATA, add(CFA_XSP16, literal(-2)))
          CFI (cfiCond321) DPH0 load(1, XDATA, add(CFA_XSP16, literal(-1)))
          CFI (cfiCond321) CFA_SP SP+-4
          CFI (cfiCond321) CFA_XSP16 add(XSP16, 17)
          CFI Block cfiCond322 Using cfiCommon0
          CFI (cfiCond322) Function MT_AfDataRequest
          CFI (cfiCond322) Conditional ??CrossCallReturnLabel_164, ??CrossCallReturnLabel_25
          CFI (cfiCond322) R6 load(1, XDATA, add(CFA_XSP16, literal(-16)))
          CFI (cfiCond322) VB load(1, XDATA, add(CFA_XSP16, literal(-15)))
          CFI (cfiCond322) V0 load(1, XDATA, add(CFA_XSP16, literal(-14)))
          CFI (cfiCond322) V1 load(1, XDATA, add(CFA_XSP16, literal(-13)))
          CFI (cfiCond322) V2 load(1, XDATA, add(CFA_XSP16, literal(-12)))
          CFI (cfiCond322) V3 load(1, XDATA, add(CFA_XSP16, literal(-11)))
          CFI (cfiCond322) V4 load(1, XDATA, add(CFA_XSP16, literal(-10)))
          CFI (cfiCond322) V5 load(1, XDATA, add(CFA_XSP16, literal(-9)))
          CFI (cfiCond322) V6 load(1, XDATA, add(CFA_XSP16, literal(-8)))
          CFI (cfiCond322) V7 load(1, XDATA, add(CFA_XSP16, literal(-7)))
          CFI (cfiCond322) R7 load(1, XDATA, add(CFA_XSP16, literal(-6)))
          CFI (cfiCond322) ?RET_LOW load(1, XDATA, add(CFA_XSP16, literal(-5)))
          CFI (cfiCond322) ?RET_HIGH load(1, XDATA, add(CFA_XSP16, literal(-4)))
          CFI (cfiCond322) ?BRET_EXT load(1, XDATA, add(CFA_XSP16, literal(-3)))
          CFI (cfiCond322) DPL0 load(1, XDATA, add(CFA_XSP16, literal(-2)))
          CFI (cfiCond322) DPH0 load(1, XDATA, add(CFA_XSP16, literal(-1)))
          CFI (cfiCond322) CFA_SP SP+-4
          CFI (cfiCond322) CFA_XSP16 add(XSP16, 33)
          CFI Block cfiCond323 Using cfiCommon0
          CFI (cfiCond323) Function MT_AfDataStore
          CFI (cfiCond323) Conditional ??CrossCallReturnLabel_164, ??CrossCallReturnLabel_26
          CFI (cfiCond323) R6 load(1, XDATA, add(CFA_XSP16, literal(-11)))
          CFI (cfiCond323) VB load(1, XDATA, add(CFA_XSP16, literal(-10)))
          CFI (cfiCond323) V0 load(1, XDATA, add(CFA_XSP16, literal(-9)))
          CFI (cfiCond323) V1 load(1, XDATA, add(CFA_XSP16, literal(-8)))
          CFI (cfiCond323) V2 load(1, XDATA, add(CFA_XSP16, literal(-7)))
          CFI (cfiCond323) R7 load(1, XDATA, add(CFA_XSP16, literal(-6)))
          CFI (cfiCond323) ?RET_LOW load(1, XDATA, add(CFA_XSP16, literal(-5)))
          CFI (cfiCond323) ?RET_HIGH load(1, XDATA, add(CFA_XSP16, literal(-4)))
          CFI (cfiCond323) ?BRET_EXT load(1, XDATA, add(CFA_XSP16, literal(-3)))
          CFI (cfiCond323) DPL0 load(1, XDATA, add(CFA_XSP16, literal(-2)))
          CFI (cfiCond323) DPH0 load(1, XDATA, add(CFA_XSP16, literal(-1)))
          CFI (cfiCond323) CFA_SP SP+-4
          CFI (cfiCond323) CFA_XSP16 add(XSP16, 19)
          CFI Block cfiPicker324 Using cfiCommon1
          CFI (cfiPicker324) NoFunction
          CFI (cfiPicker324) Picker
        MOVX    A,@DPTR
        MOV     R0,A
        INC     DPTR
        MOVX    A,@DPTR
        XCH     A,R0
        RET
          CFI EndBlock cfiCond298
          CFI EndBlock cfiCond299
          CFI EndBlock cfiCond300
          CFI EndBlock cfiCond301
          CFI EndBlock cfiCond302
          CFI EndBlock cfiCond303
          CFI EndBlock cfiCond304
          CFI EndBlock cfiCond305
          CFI EndBlock cfiCond306
          CFI EndBlock cfiCond307
          CFI EndBlock cfiCond308
          CFI EndBlock cfiCond309
          CFI EndBlock cfiCond310
          CFI EndBlock cfiCond311
          CFI EndBlock cfiCond312
          CFI EndBlock cfiCond313
          CFI EndBlock cfiCond314
          CFI EndBlock cfiCond315
          CFI EndBlock cfiCond316
          CFI EndBlock cfiCond317
          CFI EndBlock cfiCond318
          CFI EndBlock cfiCond319
          CFI EndBlock cfiCond320
          CFI EndBlock cfiCond321
          CFI EndBlock cfiCond322
          CFI EndBlock cfiCond323
          CFI EndBlock cfiPicker324

        RSEG BANKED_CODE:HUGECODE:NOROOT(0)
?Subroutine12:
          CFI Block cfiCond325 Using cfiCommon0
          CFI Function MT_AfIncomingMsg
          CFI Conditional ??CrossCallReturnLabel_17
          CFI R6 load(1, XDATA, add(CFA_XSP16, literal(-16)))
          CFI VB load(1, XDATA, add(CFA_XSP16, literal(-15)))
          CFI V0 load(1, XDATA, add(CFA_XSP16, literal(-14)))
          CFI V1 load(1, XDATA, add(CFA_XSP16, literal(-13)))
          CFI V2 load(1, XDATA, add(CFA_XSP16, literal(-12)))
          CFI V3 load(1, XDATA, add(CFA_XSP16, literal(-11)))
          CFI V4 load(1, XDATA, add(CFA_XSP16, literal(-10)))
          CFI V5 load(1, XDATA, add(CFA_XSP16, literal(-9)))
          CFI V6 load(1, XDATA, add(CFA_XSP16, literal(-8)))
          CFI V7 load(1, XDATA, add(CFA_XSP16, literal(-7)))
          CFI R7 load(1, XDATA, add(CFA_XSP16, literal(-6)))
          CFI ?RET_LOW load(1, XDATA, add(CFA_XSP16, literal(-5)))
          CFI ?RET_HIGH load(1, XDATA, add(CFA_XSP16, literal(-4)))
          CFI ?BRET_EXT load(1, XDATA, add(CFA_XSP16, literal(-3)))
          CFI DPL0 load(1, XDATA, add(CFA_XSP16, literal(-2)))
          CFI DPH0 load(1, XDATA, add(CFA_XSP16, literal(-1)))
          CFI CFA_SP SP+-2
          CFI CFA_XSP16 add(XSP16, 23)
          CFI Block cfiCond326 Using cfiCommon0
          CFI (cfiCond326) Function MT_AfDataStore
          CFI (cfiCond326) Conditional ??CrossCallReturnLabel_18
          CFI (cfiCond326) R6 load(1, XDATA, add(CFA_XSP16, literal(-11)))
          CFI (cfiCond326) VB load(1, XDATA, add(CFA_XSP16, literal(-10)))
          CFI (cfiCond326) V0 load(1, XDATA, add(CFA_XSP16, literal(-9)))
          CFI (cfiCond326) V1 load(1, XDATA, add(CFA_XSP16, literal(-8)))
          CFI (cfiCond326) V2 load(1, XDATA, add(CFA_XSP16, literal(-7)))
          CFI (cfiCond326) R7 load(1, XDATA, add(CFA_XSP16, literal(-6)))
          CFI (cfiCond326) ?RET_LOW load(1, XDATA, add(CFA_XSP16, literal(-5)))
          CFI (cfiCond326) ?RET_HIGH load(1, XDATA, add(CFA_XSP16, literal(-4)))
          CFI (cfiCond326) ?BRET_EXT load(1, XDATA, add(CFA_XSP16, literal(-3)))
          CFI (cfiCond326) DPL0 load(1, XDATA, add(CFA_XSP16, literal(-2)))
          CFI (cfiCond326) DPH0 load(1, XDATA, add(CFA_XSP16, literal(-1)))
          CFI (cfiCond326) CFA_SP SP+-2
          CFI (cfiCond326) CFA_XSP16 add(XSP16, 21)
          CFI Block cfiPicker327 Using cfiCommon1
          CFI (cfiPicker327) NoFunction
          CFI (cfiPicker327) Picker
        LCALL   ??Subroutine60_0 & 0xFFFF
??CrossCallReturnLabel_159:
        ADD     A,#0xe
        LCALL   ?Subroutine47 & 0xFFFF
??CrossCallReturnLabel_93:
        RET
          CFI EndBlock cfiCond325
          CFI EndBlock cfiCond326
          CFI EndBlock cfiPicker327

        RSEG BANKED_CODE:HUGECODE:NOROOT(0)
?Subroutine47:
          CFI Block cfiCond328 Using cfiCommon0
          CFI Function MT_AfExec
          CFI Conditional ??CrossCallReturnLabel_88
          CFI R6 load(1, XDATA, add(CFA_XSP16, literal(-9)))
          CFI VB load(1, XDATA, add(CFA_XSP16, literal(-8)))
          CFI V0 load(1, XDATA, add(CFA_XSP16, literal(-7)))
          CFI R7 load(1, XDATA, add(CFA_XSP16, literal(-6)))
          CFI ?RET_LOW load(1, XDATA, add(CFA_XSP16, literal(-5)))
          CFI ?RET_HIGH load(1, XDATA, add(CFA_XSP16, literal(-4)))
          CFI ?BRET_EXT load(1, XDATA, add(CFA_XSP16, literal(-3)))
          CFI DPL0 load(1, XDATA, add(CFA_XSP16, literal(-2)))
          CFI DPH0 load(1, XDATA, add(CFA_XSP16, literal(-1)))
          CFI CFA_SP SP+-2
          CFI CFA_XSP16 add(XSP16, 9)
          CFI Block cfiCond329 Using cfiCommon0
          CFI (cfiCond329) Function MT_AfIncomingMsg
          CFI (cfiCond329) Conditional ??CrossCallReturnLabel_89
          CFI (cfiCond329) R6 load(1, XDATA, add(CFA_XSP16, literal(-16)))
          CFI (cfiCond329) VB load(1, XDATA, add(CFA_XSP16, literal(-15)))
          CFI (cfiCond329) V0 load(1, XDATA, add(CFA_XSP16, literal(-14)))
          CFI (cfiCond329) V1 load(1, XDATA, add(CFA_XSP16, literal(-13)))
          CFI (cfiCond329) V2 load(1, XDATA, add(CFA_XSP16, literal(-12)))
          CFI (cfiCond329) V3 load(1, XDATA, add(CFA_XSP16, literal(-11)))
          CFI (cfiCond329) V4 load(1, XDATA, add(CFA_XSP16, literal(-10)))
          CFI (cfiCond329) V5 load(1, XDATA, add(CFA_XSP16, literal(-9)))
          CFI (cfiCond329) V6 load(1, XDATA, add(CFA_XSP16, literal(-8)))
          CFI (cfiCond329) V7 load(1, XDATA, add(CFA_XSP16, literal(-7)))
          CFI (cfiCond329) R7 load(1, XDATA, add(CFA_XSP16, literal(-6)))
          CFI (cfiCond329) ?RET_LOW load(1, XDATA, add(CFA_XSP16, literal(-5)))
          CFI (cfiCond329) ?RET_HIGH load(1, XDATA, add(CFA_XSP16, literal(-4)))
          CFI (cfiCond329) ?BRET_EXT load(1, XDATA, add(CFA_XSP16, literal(-3)))
          CFI (cfiCond329) DPL0 load(1, XDATA, add(CFA_XSP16, literal(-2)))
          CFI (cfiCond329) DPH0 load(1, XDATA, add(CFA_XSP16, literal(-1)))
          CFI (cfiCond329) CFA_SP SP+-2
          CFI (cfiCond329) CFA_XSP16 add(XSP16, 23)
          CFI Block cfiCond330 Using cfiCommon0
          CFI (cfiCond330) Function MT_AfIncomingMsg
          CFI (cfiCond330) Conditional ??CrossCallReturnLabel_90
          CFI (cfiCond330) R6 load(1, XDATA, add(CFA_XSP16, literal(-16)))
          CFI (cfiCond330) VB load(1, XDATA, add(CFA_XSP16, literal(-15)))
          CFI (cfiCond330) V0 load(1, XDATA, add(CFA_XSP16, literal(-14)))
          CFI (cfiCond330) V1 load(1, XDATA, add(CFA_XSP16, literal(-13)))
          CFI (cfiCond330) V2 load(1, XDATA, add(CFA_XSP16, literal(-12)))
          CFI (cfiCond330) V3 load(1, XDATA, add(CFA_XSP16, literal(-11)))
          CFI (cfiCond330) V4 load(1, XDATA, add(CFA_XSP16, literal(-10)))
          CFI (cfiCond330) V5 load(1, XDATA, add(CFA_XSP16, literal(-9)))
          CFI (cfiCond330) V6 load(1, XDATA, add(CFA_XSP16, literal(-8)))
          CFI (cfiCond330) V7 load(1, XDATA, add(CFA_XSP16, literal(-7)))
          CFI (cfiCond330) R7 load(1, XDATA, add(CFA_XSP16, literal(-6)))
          CFI (cfiCond330) ?RET_LOW load(1, XDATA, add(CFA_XSP16, literal(-5)))
          CFI (cfiCond330) ?RET_HIGH load(1, XDATA, add(CFA_XSP16, literal(-4)))
          CFI (cfiCond330) ?BRET_EXT load(1, XDATA, add(CFA_XSP16, literal(-3)))
          CFI (cfiCond330) DPL0 load(1, XDATA, add(CFA_XSP16, literal(-2)))
          CFI (cfiCond330) DPH0 load(1, XDATA, add(CFA_XSP16, literal(-1)))
          CFI (cfiCond330) CFA_SP SP+-2
          CFI (cfiCond330) CFA_XSP16 add(XSP16, 23)
          CFI Block cfiCond331 Using cfiCommon0
          CFI (cfiCond331) Function MT_AfIncomingMsg
          CFI (cfiCond331) Conditional ??CrossCallReturnLabel_92, ??CrossCallReturnLabel_9
          CFI (cfiCond331) R6 load(1, XDATA, add(CFA_XSP16, literal(-16)))
          CFI (cfiCond331) VB load(1, XDATA, add(CFA_XSP16, literal(-15)))
          CFI (cfiCond331) V0 load(1, XDATA, add(CFA_XSP16, literal(-14)))
          CFI (cfiCond331) V1 load(1, XDATA, add(CFA_XSP16, literal(-13)))
          CFI (cfiCond331) V2 load(1, XDATA, add(CFA_XSP16, literal(-12)))
          CFI (cfiCond331) V3 load(1, XDATA, add(CFA_XSP16, literal(-11)))
          CFI (cfiCond331) V4 load(1, XDATA, add(CFA_XSP16, literal(-10)))
          CFI (cfiCond331) V5 load(1, XDATA, add(CFA_XSP16, literal(-9)))
          CFI (cfiCond331) V6 load(1, XDATA, add(CFA_XSP16, literal(-8)))
          CFI (cfiCond331) V7 load(1, XDATA, add(CFA_XSP16, literal(-7)))
          CFI (cfiCond331) R7 load(1, XDATA, add(CFA_XSP16, literal(-6)))
          CFI (cfiCond331) ?RET_LOW load(1, XDATA, add(CFA_XSP16, literal(-5)))
          CFI (cfiCond331) ?RET_HIGH load(1, XDATA, add(CFA_XSP16, literal(-4)))
          CFI (cfiCond331) ?BRET_EXT load(1, XDATA, add(CFA_XSP16, literal(-3)))
          CFI (cfiCond331) DPL0 load(1, XDATA, add(CFA_XSP16, literal(-2)))
          CFI (cfiCond331) DPH0 load(1, XDATA, add(CFA_XSP16, literal(-1)))
          CFI (cfiCond331) CFA_SP SP+-4
          CFI (cfiCond331) CFA_XSP16 add(XSP16, 23)
          CFI Block cfiCond332 Using cfiCommon0
          CFI (cfiCond332) Function MT_AfIncomingMsg
          CFI (cfiCond332) Conditional ??CrossCallReturnLabel_92, ??CrossCallReturnLabel_10
          CFI (cfiCond332) R6 load(1, XDATA, add(CFA_XSP16, literal(-16)))
          CFI (cfiCond332) VB load(1, XDATA, add(CFA_XSP16, literal(-15)))
          CFI (cfiCond332) V0 load(1, XDATA, add(CFA_XSP16, literal(-14)))
          CFI (cfiCond332) V1 load(1, XDATA, add(CFA_XSP16, literal(-13)))
          CFI (cfiCond332) V2 load(1, XDATA, add(CFA_XSP16, literal(-12)))
          CFI (cfiCond332) V3 load(1, XDATA, add(CFA_XSP16, literal(-11)))
          CFI (cfiCond332) V4 load(1, XDATA, add(CFA_XSP16, literal(-10)))
          CFI (cfiCond332) V5 load(1, XDATA, add(CFA_XSP16, literal(-9)))
          CFI (cfiCond332) V6 load(1, XDATA, add(CFA_XSP16, literal(-8)))
          CFI (cfiCond332) V7 load(1, XDATA, add(CFA_XSP16, literal(-7)))
          CFI (cfiCond332) R7 load(1, XDATA, add(CFA_XSP16, literal(-6)))
          CFI (cfiCond332) ?RET_LOW load(1, XDATA, add(CFA_XSP16, literal(-5)))
          CFI (cfiCond332) ?RET_HIGH load(1, XDATA, add(CFA_XSP16, literal(-4)))
          CFI (cfiCond332) ?BRET_EXT load(1, XDATA, add(CFA_XSP16, literal(-3)))
          CFI (cfiCond332) DPL0 load(1, XDATA, add(CFA_XSP16, literal(-2)))
          CFI (cfiCond332) DPH0 load(1, XDATA, add(CFA_XSP16, literal(-1)))
          CFI (cfiCond332) CFA_SP SP+-4
          CFI (cfiCond332) CFA_XSP16 add(XSP16, 23)
          CFI Block cfiCond333 Using cfiCommon0
          CFI (cfiCond333) Function MT_AfDataStore
          CFI (cfiCond333) Conditional ??CrossCallReturnLabel_91
          CFI (cfiCond333) R6 load(1, XDATA, add(CFA_XSP16, literal(-11)))
          CFI (cfiCond333) VB load(1, XDATA, add(CFA_XSP16, literal(-10)))
          CFI (cfiCond333) V0 load(1, XDATA, add(CFA_XSP16, literal(-9)))
          CFI (cfiCond333) V1 load(1, XDATA, add(CFA_XSP16, literal(-8)))
          CFI (cfiCond333) V2 load(1, XDATA, add(CFA_XSP16, literal(-7)))
          CFI (cfiCond333) R7 load(1, XDATA, add(CFA_XSP16, literal(-6)))
          CFI (cfiCond333) ?RET_LOW load(1, XDATA, add(CFA_XSP16, literal(-5)))
          CFI (cfiCond333) ?RET_HIGH load(1, XDATA, add(CFA_XSP16, literal(-4)))
          CFI (cfiCond333) ?BRET_EXT load(1, XDATA, add(CFA_XSP16, literal(-3)))
          CFI (cfiCond333) DPL0 load(1, XDATA, add(CFA_XSP16, literal(-2)))
          CFI (cfiCond333) DPH0 load(1, XDATA, add(CFA_XSP16, literal(-1)))
          CFI (cfiCond333) CFA_SP SP+-2
          CFI (cfiCond333) CFA_XSP16 add(XSP16, 12)
          CFI Block cfiCond334 Using cfiCommon0
          CFI (cfiCond334) Function MT_AfIncomingMsg
          CFI (cfiCond334) Conditional ??CrossCallReturnLabel_94, ??CrossCallReturnLabel_19
          CFI (cfiCond334) R6 load(1, XDATA, add(CFA_XSP16, literal(-16)))
          CFI (cfiCond334) VB load(1, XDATA, add(CFA_XSP16, literal(-15)))
          CFI (cfiCond334) V0 load(1, XDATA, add(CFA_XSP16, literal(-14)))
          CFI (cfiCond334) V1 load(1, XDATA, add(CFA_XSP16, literal(-13)))
          CFI (cfiCond334) V2 load(1, XDATA, add(CFA_XSP16, literal(-12)))
          CFI (cfiCond334) V3 load(1, XDATA, add(CFA_XSP16, literal(-11)))
          CFI (cfiCond334) V4 load(1, XDATA, add(CFA_XSP16, literal(-10)))
          CFI (cfiCond334) V5 load(1, XDATA, add(CFA_XSP16, literal(-9)))
          CFI (cfiCond334) V6 load(1, XDATA, add(CFA_XSP16, literal(-8)))
          CFI (cfiCond334) V7 load(1, XDATA, add(CFA_XSP16, literal(-7)))
          CFI (cfiCond334) R7 load(1, XDATA, add(CFA_XSP16, literal(-6)))
          CFI (cfiCond334) ?RET_LOW load(1, XDATA, add(CFA_XSP16, literal(-5)))
          CFI (cfiCond334) ?RET_HIGH load(1, XDATA, add(CFA_XSP16, literal(-4)))
          CFI (cfiCond334) ?BRET_EXT load(1, XDATA, add(CFA_XSP16, literal(-3)))
          CFI (cfiCond334) DPL0 load(1, XDATA, add(CFA_XSP16, literal(-2)))
          CFI (cfiCond334) DPH0 load(1, XDATA, add(CFA_XSP16, literal(-1)))
          CFI (cfiCond334) CFA_SP SP+-4
          CFI (cfiCond334) CFA_XSP16 add(XSP16, 23)
          CFI Block cfiCond335 Using cfiCommon0
          CFI (cfiCond335) Function MT_AfDataStore
          CFI (cfiCond335) Conditional ??CrossCallReturnLabel_94, ??CrossCallReturnLabel_20
          CFI (cfiCond335) R6 load(1, XDATA, add(CFA_XSP16, literal(-11)))
          CFI (cfiCond335) VB load(1, XDATA, add(CFA_XSP16, literal(-10)))
          CFI (cfiCond335) V0 load(1, XDATA, add(CFA_XSP16, literal(-9)))
          CFI (cfiCond335) V1 load(1, XDATA, add(CFA_XSP16, literal(-8)))
          CFI (cfiCond335) V2 load(1, XDATA, add(CFA_XSP16, literal(-7)))
          CFI (cfiCond335) R7 load(1, XDATA, add(CFA_XSP16, literal(-6)))
          CFI (cfiCond335) ?RET_LOW load(1, XDATA, add(CFA_XSP16, literal(-5)))
          CFI (cfiCond335) ?RET_HIGH load(1, XDATA, add(CFA_XSP16, literal(-4)))
          CFI (cfiCond335) ?BRET_EXT load(1, XDATA, add(CFA_XSP16, literal(-3)))
          CFI (cfiCond335) DPL0 load(1, XDATA, add(CFA_XSP16, literal(-2)))
          CFI (cfiCond335) DPH0 load(1, XDATA, add(CFA_XSP16, literal(-1)))
          CFI (cfiCond335) CFA_SP SP+-4
          CFI (cfiCond335) CFA_XSP16 add(XSP16, 21)
          CFI Block cfiCond336 Using cfiCommon0
          CFI (cfiCond336) Function MT_AfIncomingMsg
          CFI (cfiCond336) Conditional ??CrossCallReturnLabel_93, ??CrossCallReturnLabel_17
          CFI (cfiCond336) R6 load(1, XDATA, add(CFA_XSP16, literal(-16)))
          CFI (cfiCond336) VB load(1, XDATA, add(CFA_XSP16, literal(-15)))
          CFI (cfiCond336) V0 load(1, XDATA, add(CFA_XSP16, literal(-14)))
          CFI (cfiCond336) V1 load(1, XDATA, add(CFA_XSP16, literal(-13)))
          CFI (cfiCond336) V2 load(1, XDATA, add(CFA_XSP16, literal(-12)))
          CFI (cfiCond336) V3 load(1, XDATA, add(CFA_XSP16, literal(-11)))
          CFI (cfiCond336) V4 load(1, XDATA, add(CFA_XSP16, literal(-10)))
          CFI (cfiCond336) V5 load(1, XDATA, add(CFA_XSP16, literal(-9)))
          CFI (cfiCond336) V6 load(1, XDATA, add(CFA_XSP16, literal(-8)))
          CFI (cfiCond336) V7 load(1, XDATA, add(CFA_XSP16, literal(-7)))
          CFI (cfiCond336) R7 load(1, XDATA, add(CFA_XSP16, literal(-6)))
          CFI (cfiCond336) ?RET_LOW load(1, XDATA, add(CFA_XSP16, literal(-5)))
          CFI (cfiCond336) ?RET_HIGH load(1, XDATA, add(CFA_XSP16, literal(-4)))
          CFI (cfiCond336) ?BRET_EXT load(1, XDATA, add(CFA_XSP16, literal(-3)))
          CFI (cfiCond336) DPL0 load(1, XDATA, add(CFA_XSP16, literal(-2)))
          CFI (cfiCond336) DPH0 load(1, XDATA, add(CFA_XSP16, literal(-1)))
          CFI (cfiCond336) CFA_SP SP+-4
          CFI (cfiCond336) CFA_XSP16 add(XSP16, 23)
          CFI Block cfiCond337 Using cfiCommon0
          CFI (cfiCond337) Function MT_AfDataStore
          CFI (cfiCond337) Conditional ??CrossCallReturnLabel_93, ??CrossCallReturnLabel_18
          CFI (cfiCond337) R6 load(1, XDATA, add(CFA_XSP16, literal(-11)))
          CFI (cfiCond337) VB load(1, XDATA, add(CFA_XSP16, literal(-10)))
          CFI (cfiCond337) V0 load(1, XDATA, add(CFA_XSP16, literal(-9)))
          CFI (cfiCond337) V1 load(1, XDATA, add(CFA_XSP16, literal(-8)))
          CFI (cfiCond337) V2 load(1, XDATA, add(CFA_XSP16, literal(-7)))
          CFI (cfiCond337) R7 load(1, XDATA, add(CFA_XSP16, literal(-6)))
          CFI (cfiCond337) ?RET_LOW load(1, XDATA, add(CFA_XSP16, literal(-5)))
          CFI (cfiCond337) ?RET_HIGH load(1, XDATA, add(CFA_XSP16, literal(-4)))
          CFI (cfiCond337) ?BRET_EXT load(1, XDATA, add(CFA_XSP16, literal(-3)))
          CFI (cfiCond337) DPL0 load(1, XDATA, add(CFA_XSP16, literal(-2)))
          CFI (cfiCond337) DPH0 load(1, XDATA, add(CFA_XSP16, literal(-1)))
          CFI (cfiCond337) CFA_SP SP+-4
          CFI (cfiCond337) CFA_XSP16 add(XSP16, 21)
          CFI Block cfiPicker338 Using cfiCommon1
          CFI (cfiPicker338) NoFunction
          CFI (cfiPicker338) Picker
        MOV     DPL,A
        CLR     A
        ADDC    A,R0
        MOV     DPH,A
        MOVX    A,@DPTR
        RET
          CFI EndBlock cfiCond328
          CFI EndBlock cfiCond329
          CFI EndBlock cfiCond330
          CFI EndBlock cfiCond331
          CFI EndBlock cfiCond332
          CFI EndBlock cfiCond333
          CFI EndBlock cfiCond334
          CFI EndBlock cfiCond335
          CFI EndBlock cfiCond336
          CFI EndBlock cfiCond337
          CFI EndBlock cfiPicker338

        RSEG BANKED_CODE:HUGECODE:NOROOT(0)
?Subroutine10:
          CFI Block cfiCond339 Using cfiCommon0
          CFI Function MT_AfDataRetrieve
          CFI Conditional ??CrossCallReturnLabel_14
          CFI R6 load(1, XDATA, add(CFA_XSP16, literal(-16)))
          CFI VB load(1, XDATA, add(CFA_XSP16, literal(-15)))
          CFI V0 load(1, XDATA, add(CFA_XSP16, literal(-14)))
          CFI V1 load(1, XDATA, add(CFA_XSP16, literal(-13)))
          CFI V2 load(1, XDATA, add(CFA_XSP16, literal(-12)))
          CFI V3 load(1, XDATA, add(CFA_XSP16, literal(-11)))
          CFI V4 load(1, XDATA, add(CFA_XSP16, literal(-10)))
          CFI V5 load(1, XDATA, add(CFA_XSP16, literal(-9)))
          CFI V6 load(1, XDATA, add(CFA_XSP16, literal(-8)))
          CFI V7 load(1, XDATA, add(CFA_XSP16, literal(-7)))
          CFI R7 load(1, XDATA, add(CFA_XSP16, literal(-6)))
          CFI ?RET_LOW load(1, XDATA, add(CFA_XSP16, literal(-5)))
          CFI ?RET_HIGH load(1, XDATA, add(CFA_XSP16, literal(-4)))
          CFI ?BRET_EXT load(1, XDATA, add(CFA_XSP16, literal(-3)))
          CFI DPL0 load(1, XDATA, add(CFA_XSP16, literal(-2)))
          CFI DPH0 load(1, XDATA, add(CFA_XSP16, literal(-1)))
          CFI CFA_SP SP+-2
          CFI CFA_XSP16 add(XSP16, 21)
          CFI Block cfiCond340 Using cfiCommon0
          CFI (cfiCond340) Function MT_AfDataRetrieve
          CFI (cfiCond340) Conditional ??CrossCallReturnLabel_15
          CFI (cfiCond340) R6 load(1, XDATA, add(CFA_XSP16, literal(-16)))
          CFI (cfiCond340) VB load(1, XDATA, add(CFA_XSP16, literal(-15)))
          CFI (cfiCond340) V0 load(1, XDATA, add(CFA_XSP16, literal(-14)))
          CFI (cfiCond340) V1 load(1, XDATA, add(CFA_XSP16, literal(-13)))
          CFI (cfiCond340) V2 load(1, XDATA, add(CFA_XSP16, literal(-12)))
          CFI (cfiCond340) V3 load(1, XDATA, add(CFA_XSP16, literal(-11)))
          CFI (cfiCond340) V4 load(1, XDATA, add(CFA_XSP16, literal(-10)))
          CFI (cfiCond340) V5 load(1, XDATA, add(CFA_XSP16, literal(-9)))
          CFI (cfiCond340) V6 load(1, XDATA, add(CFA_XSP16, literal(-8)))
          CFI (cfiCond340) V7 load(1, XDATA, add(CFA_XSP16, literal(-7)))
          CFI (cfiCond340) R7 load(1, XDATA, add(CFA_XSP16, literal(-6)))
          CFI (cfiCond340) ?RET_LOW load(1, XDATA, add(CFA_XSP16, literal(-5)))
          CFI (cfiCond340) ?RET_HIGH load(1, XDATA, add(CFA_XSP16, literal(-4)))
          CFI (cfiCond340) ?BRET_EXT load(1, XDATA, add(CFA_XSP16, literal(-3)))
          CFI (cfiCond340) DPL0 load(1, XDATA, add(CFA_XSP16, literal(-2)))
          CFI (cfiCond340) DPH0 load(1, XDATA, add(CFA_XSP16, literal(-1)))
          CFI (cfiCond340) CFA_SP SP+-2
          CFI (cfiCond340) CFA_XSP16 add(XSP16, 21)
          CFI Block cfiCond341 Using cfiCommon0
          CFI (cfiCond341) Function MT_AfDataStore
          CFI (cfiCond341) Conditional ??CrossCallReturnLabel_16
          CFI (cfiCond341) R6 load(1, XDATA, add(CFA_XSP16, literal(-11)))
          CFI (cfiCond341) VB load(1, XDATA, add(CFA_XSP16, literal(-10)))
          CFI (cfiCond341) V0 load(1, XDATA, add(CFA_XSP16, literal(-9)))
          CFI (cfiCond341) V1 load(1, XDATA, add(CFA_XSP16, literal(-8)))
          CFI (cfiCond341) V2 load(1, XDATA, add(CFA_XSP16, literal(-7)))
          CFI (cfiCond341) R7 load(1, XDATA, add(CFA_XSP16, literal(-6)))
          CFI (cfiCond341) ?RET_LOW load(1, XDATA, add(CFA_XSP16, literal(-5)))
          CFI (cfiCond341) ?RET_HIGH load(1, XDATA, add(CFA_XSP16, literal(-4)))
          CFI (cfiCond341) ?BRET_EXT load(1, XDATA, add(CFA_XSP16, literal(-3)))
          CFI (cfiCond341) DPL0 load(1, XDATA, add(CFA_XSP16, literal(-2)))
          CFI (cfiCond341) DPH0 load(1, XDATA, add(CFA_XSP16, literal(-1)))
          CFI (cfiCond341) CFA_SP SP+-2
          CFI (cfiCond341) CFA_XSP16 add(XSP16, 15)
          CFI Block cfiPicker342 Using cfiCommon1
          CFI (cfiPicker342) NoFunction
          CFI (cfiPicker342) Picker
        LCALL   ?Subroutine41 & 0xFFFF
??CrossCallReturnLabel_140:
        MOVX    A,@DPTR
        RET
          CFI EndBlock cfiCond339
          CFI EndBlock cfiCond340
          CFI EndBlock cfiCond341
          CFI EndBlock cfiPicker342

        RSEG BANK_RELAYS:CODE:REORDER:NOROOT(0)
`??MT_AfExec::?relay`:
        CODE
        LCALL   ?BDISPATCH
        DATA24
        DC24    MT_AfExec

        RSEG BANK_RELAYS:CODE:REORDER:NOROOT(0)
`??MT_AfCommandProcessing::?relay`:
        CODE
        LCALL   ?BDISPATCH
        DATA24
        DC24    MT_AfCommandProcessing

        RSEG BANK_RELAYS:CODE:REORDER:NOROOT(0)
`??MT_AfRegister::?relay`:
        CODE
        LCALL   ?BDISPATCH
        DATA24
        DC24    MT_AfRegister

        RSEG BANK_RELAYS:CODE:REORDER:NOROOT(0)
`??MT_AfDataRequest::?relay`:
        CODE
        LCALL   ?BDISPATCH
        DATA24
        DC24    MT_AfDataRequest

        RSEG BANK_RELAYS:CODE:REORDER:NOROOT(0)
`??MT_AfDataConfirm::?relay`:
        CODE
        LCALL   ?BDISPATCH
        DATA24
        DC24    MT_AfDataConfirm

        RSEG BANK_RELAYS:CODE:REORDER:NOROOT(0)
`??MT_AfIncomingMsg::?relay`:
        CODE
        LCALL   ?BDISPATCH
        DATA24
        DC24    MT_AfIncomingMsg

        RSEG BANK_RELAYS:CODE:REORDER:NOROOT(0)
`??MT_AfDataRetrieve::?relay`:
        CODE
        LCALL   ?BDISPATCH
        DATA24
        DC24    MT_AfDataRetrieve

        RSEG BANK_RELAYS:CODE:REORDER:NOROOT(0)
`??MT_AfDataStore::?relay`:
        CODE
        LCALL   ?BDISPATCH
        DATA24
        DC24    MT_AfDataStore

        END
//  907 
//  908 /***************************************************************************************************
//  909 ***************************************************************************************************/
// 
// 3 295 bytes in segment BANKED_CODE
//    48 bytes in segment BANK_RELAYS
//     4 bytes in segment XDATA_Z
// 
//    48 bytes of CODE     memory
// 3 295 bytes of HUGECODE memory
//     4 bytes of XDATA    memory
//
//Errors: none
//Warnings: none
