///////////////////////////////////////////////////////////////////////////////
//
// IAR C/C++ Compiler V9.30.3.3983 for 8051               25/Apr/2017  12:03:37
// Copyright 2004-2016 IAR Systems AB.
// Standalone license - IAR Embedded Workbench for 8051
//
//    Core               =  plain
//    Code model         =  banked
//    Data model         =  large
//    Calling convention =  xdata reentrant
//    Constant location  =  data_rom
//    Dptr setup         =  1,16
//                          
//    Source file        =  
//        C:\Texas
//        Instruments\ZStack-CC2530-2.4.0-1.4.0\Components\stack\zdo\ZDApp.c
//    Command line       =  
//        -f "C:\Texas
//        Instruments\ZStack-CC2530-2.4.0-1.4.0\Projects\zstack\Samples\NetworkTopology-Star\CC2530DB\..\..\..\Tools\CC2530DB\f8wEndev.cfg"
//        (-DCPU32MHZ -DROOT=__near_func -DMAC_CFG_TX_DATA_MAX=3
//        -DMAC_CFG_TX_MAX=6 -DMAC_CFG_RX_MAX=3) -f "C:\Texas
//        Instruments\ZStack-CC2530-2.4.0-1.4.0\Projects\zstack\Samples\NetworkTopology-Star\CC2530DB\..\..\..\Tools\CC2530DB\f8wConfig-top.cfg"
//        (-DSECURE=0 -DZG_SECURE_DYNAMIC=0 -DREFLECTOR
//        -DDEFAULT_CHANLIST=0x00000800 -DZDAPP_CONFIG_PAN_ID=0x2100
//        -DNWK_START_DELAY=100 -DEXTENDED_JOINING_RANDOM_MASK=0x007F
//        -DBEACON_REQUEST_DELAY=100 -DBEACON_REQ_DELAY_MASK=0x00FF
//        -DLINK_STATUS_JITTER_MASK=0x007F -DROUTE_EXPIRY_TIME=30
//        -DAPSC_ACK_WAIT_DURATION_POLLED=3000 -DNWK_INDIRECT_MSG_TIMEOUT=7
//        -DMAX_RREQ_ENTRIES=8 -DAPSC_MAX_FRAME_RETRIES=3
//        -DNWK_MAX_DATA_RETRIES=2 -DMAX_POLL_FAILURE_RETRIES=2 -DMAX_BCAST=9
//        -DAPS_MAX_GROUPS=16 -DMAX_RTG_ENTRIES=40 -DNWK_MAX_BINDING_ENTRIES=4
//        -DMAX_BINDING_CLUSTER_IDS=4 "-DDEFAULT_KEY={0x01, 0x03, 0x05, 0x07,
//        0x09, 0x0B, 0x0D, 0x0F, 0x00, 0x02, 0x04, 0x06, 0x08, 0x0A, 0x0C,
//        0x0D}" -DMAC_MAX_FRAME_SIZE=116 -DZDNWKMGR_MIN_TRANSMISSIONS=20
//        "-DCONST=const __code" -DGENERIC=__generic -DRFD_RCVC_ALWAYS_ON=TRUE
//        -DPOLL_RATE=1000 -DQUEUED_POLL_RATE=100 -DRESPONSE_POLL_RATE=100)
//        -DREJOIN_POLL_RATE=440 "C:\Texas
//        Instruments\ZStack-CC2530-2.4.0-1.4.0\Components\stack\zdo\ZDApp.c"
//        -D NWK_AUTO_POLL -D HOLD_AUTO_START -D REFLECTOR -D xPOWER_SAVING -D
//        NV_INIT -D xNV_RESTORE -D xZTOOL_P1 -D xMT_TASK -D xMT_SYS_FUNC -D
//        xMT_SAPI_FUNC -D xMT_SAPI_CB_FUNC -D STARTEST -D LCD_USE -lC
//        "C:\Texas
//        Instruments\ZStack-CC2530-2.4.0-1.4.0\Projects\zstack\Samples\NetworkTopology-Star\CC2530DB\MPEndPoint\List"
//        -lA "C:\Texas
//        Instruments\ZStack-CC2530-2.4.0-1.4.0\Projects\zstack\Samples\NetworkTopology-Star\CC2530DB\MPEndPoint\List"
//        --diag_suppress Pe001,Pa010 -o "C:\Texas
//        Instruments\ZStack-CC2530-2.4.0-1.4.0\Projects\zstack\Samples\NetworkTopology-Star\CC2530DB\MPEndPoint\Obj"
//        -e --no_code_motion --debug --core=plain --dptr=16,1
//        --data_model=large --code_model=banked
//        --calling_convention=xdata_reentrant --place_constants=data_rom
//        --nr_virtual_regs 8 -I "C:\Texas
//        Instruments\ZStack-CC2530-2.4.0-1.4.0\Projects\zstack\Samples\NetworkTopology-Star\CC2530DB\"
//        -I "C:\Texas
//        Instruments\ZStack-CC2530-2.4.0-1.4.0\Projects\zstack\Samples\NetworkTopology-Star\CC2530DB\..\Source\"
//        -I "C:\Texas
//        Instruments\ZStack-CC2530-2.4.0-1.4.0\Projects\zstack\Samples\NetworkTopology-Star\CC2530DB\..\..\..\ZMain\TI2530DB\"
//        -I "C:\Texas
//        Instruments\ZStack-CC2530-2.4.0-1.4.0\Projects\zstack\Samples\NetworkTopology-Star\CC2530DB\..\..\..\..\..\Components\hal\include\"
//        -I "C:\Texas
//        Instruments\ZStack-CC2530-2.4.0-1.4.0\Projects\zstack\Samples\NetworkTopology-Star\CC2530DB\..\..\..\..\..\Components\hal\target\CC2530EB\"
//        -I "C:\Texas
//        Instruments\ZStack-CC2530-2.4.0-1.4.0\Projects\zstack\Samples\NetworkTopology-Star\CC2530DB\..\..\..\..\..\Components\mac\include\"
//        -I "C:\Texas
//        Instruments\ZStack-CC2530-2.4.0-1.4.0\Projects\zstack\Samples\NetworkTopology-Star\CC2530DB\..\..\..\..\..\Components\mac\high_level\"
//        -I "C:\Texas
//        Instruments\ZStack-CC2530-2.4.0-1.4.0\Projects\zstack\Samples\NetworkTopology-Star\CC2530DB\..\..\..\..\..\Components\mac\low_level\srf04\"
//        -I "C:\Texas
//        Instruments\ZStack-CC2530-2.4.0-1.4.0\Projects\zstack\Samples\NetworkTopology-Star\CC2530DB\..\..\..\..\..\Components\mac\low_level\srf04\single_chip\"
//        -I "C:\Texas
//        Instruments\ZStack-CC2530-2.4.0-1.4.0\Projects\zstack\Samples\NetworkTopology-Star\CC2530DB\..\..\..\..\..\Components\mt\"
//        -I "C:\Texas
//        Instruments\ZStack-CC2530-2.4.0-1.4.0\Projects\zstack\Samples\NetworkTopology-Star\CC2530DB\..\..\..\..\..\Components\osal\include\"
//        -I "C:\Texas
//        Instruments\ZStack-CC2530-2.4.0-1.4.0\Projects\zstack\Samples\NetworkTopology-Star\CC2530DB\..\..\..\..\..\Components\osal\mcu\ccsoc\"
//        -I "C:\Texas
//        Instruments\ZStack-CC2530-2.4.0-1.4.0\Projects\zstack\Samples\NetworkTopology-Star\CC2530DB\..\..\..\..\..\Components\services\saddr\"
//        -I "C:\Texas
//        Instruments\ZStack-CC2530-2.4.0-1.4.0\Projects\zstack\Samples\NetworkTopology-Star\CC2530DB\..\..\..\..\..\Components\services\sdata\"
//        -I "C:\Texas
//        Instruments\ZStack-CC2530-2.4.0-1.4.0\Projects\zstack\Samples\NetworkTopology-Star\CC2530DB\..\..\..\..\..\Components\stack\af\"
//        -I "C:\Texas
//        Instruments\ZStack-CC2530-2.4.0-1.4.0\Projects\zstack\Samples\NetworkTopology-Star\CC2530DB\..\..\..\..\..\Components\stack\nwk\"
//        -I "C:\Texas
//        Instruments\ZStack-CC2530-2.4.0-1.4.0\Projects\zstack\Samples\NetworkTopology-Star\CC2530DB\..\..\..\..\..\Components\stack\sapi\"
//        -I "C:\Texas
//        Instruments\ZStack-CC2530-2.4.0-1.4.0\Projects\zstack\Samples\NetworkTopology-Star\CC2530DB\..\..\..\..\..\Components\stack\sec\"
//        -I "C:\Texas
//        Instruments\ZStack-CC2530-2.4.0-1.4.0\Projects\zstack\Samples\NetworkTopology-Star\CC2530DB\..\..\..\..\..\Components\stack\sys\"
//        -I "C:\Texas
//        Instruments\ZStack-CC2530-2.4.0-1.4.0\Projects\zstack\Samples\NetworkTopology-Star\CC2530DB\..\..\..\..\..\Components\stack\zdo\"
//        -I "C:\Texas
//        Instruments\ZStack-CC2530-2.4.0-1.4.0\Projects\zstack\Samples\NetworkTopology-Star\CC2530DB\..\..\..\..\..\Components\zmac\"
//        -I "C:\Texas
//        Instruments\ZStack-CC2530-2.4.0-1.4.0\Projects\zstack\Samples\NetworkTopology-Star\CC2530DB\..\..\..\..\..\Components\zmac\f8w\"
//        -Ohz
//    List file          =  
//        C:\Texas
//        Instruments\ZStack-CC2530-2.4.0-1.4.0\Projects\zstack\Samples\NetworkTopology-Star\CC2530DB\MPEndPoint\List\ZDApp.s51
//
///////////////////////////////////////////////////////////////////////////////

        NAME ZDApp

        RTMODEL "__SystemLibrary", "CLib"
        RTMODEL "__calling_convention", "xdata_reentrant"
        RTMODEL "__code_model", "banked"
        RTMODEL "__core", "plain"
        RTMODEL "__data_model", "large"
        RTMODEL "__dptr_size", "16"
        RTMODEL "__extended_stack", "disabled"
        RTMODEL "__location_for_constants", "data"
        RTMODEL "__number_of_dptrs", "1"
        RTMODEL "__rt_version", "1"

        RSEG DOVERLAY:DATA:NOROOT(0)
        RSEG IOVERLAY:IDATA:NOROOT(0)
        RSEG ISTACK:IDATA:NOROOT(0)
        RSEG PSTACK:XDATA:NOROOT(0)
        RSEG XSTACK:XDATA:NOROOT(0)

        EXTERN ?V0
        EXTERN ?V1
        EXTERN ?V2
        EXTERN ?V3
        EXTERN ?V4
        EXTERN ?V5
        EXTERN ?V6
        EXTERN ?V7
        EXTERN ?ALLOC_XSTACK8
        EXTERN ?BANKED_ENTER_XDATA
        EXTERN ?BANKED_LEAVE_XDATA
        EXTERN ?BDISPATCH
        EXTERN ?BRET
        EXTERN ?CALL_IND
        EXTERN ?DEALLOC_XSTACK8
        EXTERN ?L_ADD_TO_X
        EXTERN ?L_MOV_X
        EXTERN ?PUSH_XSTACK8_X_TWO
        EXTERN ?PUSH_XSTACK_I_ONE
        EXTERN ?PUSH_XSTACK_I_THREE
        EXTERN ?PUSH_XSTACK_I_TWO
        EXTERN ?US_SWITCH_SPARSE
        EXTERN ?XLOAD_R0123
        EXTERN ?XSP
        EXTERN ?XSTACK_DISP0_8
        EXTERN ?XSTACK_DISP102_8
        EXTERN ?XSTORE_R0123
        EXTERN __INIT_XDATA_I
        EXTERN __INIT_XDATA_Z

        PUBLIC `??AddrMgrWriteNVRequest::?relay`
        FUNCTION `??AddrMgrWriteNVRequest::?relay`,0203H
        PUBLIC `??ZDAppCheckForHoldKey::?relay`
        FUNCTION `??ZDAppCheckForHoldKey::?relay`,0203H
        PUBLIC `??ZDAppDetermineDeviceType::?relay`
        FUNCTION `??ZDAppDetermineDeviceType::?relay`,0203H
        PUBLIC `??ZDApp_AnnounceNewAddress::?relay`
        FUNCTION `??ZDApp_AnnounceNewAddress::?relay`,0203H
        PUBLIC `??ZDApp_ChangeMatchDescRespPermission::?relay`
        FUNCTION `??ZDApp_ChangeMatchDescRespPermission::?relay`,0203H
        PUBLIC `??ZDApp_CoordStartPANIDConflictCB::?relay`
        FUNCTION `??ZDApp_CoordStartPANIDConflictCB::?relay`,0203H
        PUBLIC `??ZDApp_DeviceAuthEvt::?relay`
        FUNCTION `??ZDApp_DeviceAuthEvt::?relay`,0203H
        PUBLIC `??ZDApp_InMsgCB::?relay`
        FUNCTION `??ZDApp_InMsgCB::?relay`,0203H
        PUBLIC `??ZDApp_Init::?relay`
        FUNCTION `??ZDApp_Init::?relay`,0203H
        PUBLIC `??ZDApp_InitUserDesc::?relay`
        FUNCTION `??ZDApp_InitUserDesc::?relay`,0203H
        PUBLIC `??ZDApp_InitZdoCBFunc::?relay`
        FUNCTION `??ZDApp_InitZdoCBFunc::?relay`,0203H
        PUBLIC `??ZDApp_JoinReq::?relay`
        FUNCTION `??ZDApp_JoinReq::?relay`,0203H
        PUBLIC `??ZDApp_LeaveCtrlBypass::?relay`
        FUNCTION `??ZDApp_LeaveCtrlBypass::?relay`,0203H
        PUBLIC `??ZDApp_LeaveCtrlInit::?relay`
        FUNCTION `??ZDApp_LeaveCtrlInit::?relay`,0203H
        PUBLIC `??ZDApp_LeaveCtrlSet::?relay`
        FUNCTION `??ZDApp_LeaveCtrlSet::?relay`,0203H
        PUBLIC `??ZDApp_LeaveCtrlStartup::?relay`
        FUNCTION `??ZDApp_LeaveCtrlStartup::?relay`,0203H
        PUBLIC `??ZDApp_LeaveReset::?relay`
        FUNCTION `??ZDApp_LeaveReset::?relay`,0203H
        PUBLIC `??ZDApp_LeaveUpdate::?relay`
        FUNCTION `??ZDApp_LeaveUpdate::?relay`,0203H
        PUBLIC `??ZDApp_NVUpdate::?relay`
        FUNCTION `??ZDApp_NVUpdate::?relay`,0203H
        PUBLIC `??ZDApp_NetworkDiscoveryReq::?relay`
        FUNCTION `??ZDApp_NetworkDiscoveryReq::?relay`,0203H
        PUBLIC `??ZDApp_NetworkInit::?relay`
        FUNCTION `??ZDApp_NetworkInit::?relay`,0203H
        PUBLIC `??ZDApp_NetworkStartEvt::?relay`
        FUNCTION `??ZDApp_NetworkStartEvt::?relay`,0203H
        PUBLIC `??ZDApp_NodeProfileSync::?relay`
        FUNCTION `??ZDApp_NodeProfileSync::?relay`,0203H
        PUBLIC `??ZDApp_NwkDescListProcessing::?relay`
        FUNCTION `??ZDApp_NwkDescListProcessing::?relay`,0203H
        PUBLIC `??ZDApp_NwkStateUpdateCB::?relay`
        FUNCTION `??ZDApp_NwkStateUpdateCB::?relay`,0203H
        PUBLIC `??ZDApp_ProcessMsgCBs::?relay`
        FUNCTION `??ZDApp_ProcessMsgCBs::?relay`,0203H
        PUBLIC `??ZDApp_ProcessNetworkJoin::?relay`
        FUNCTION `??ZDApp_ProcessNetworkJoin::?relay`,0203H
        PUBLIC `??ZDApp_ProcessOSALMsg::?relay`
        FUNCTION `??ZDApp_ProcessOSALMsg::?relay`,0203H
        PUBLIC `??ZDApp_ProcessSecEvent::?relay`
        FUNCTION `??ZDApp_ProcessSecEvent::?relay`,0203H
        PUBLIC `??ZDApp_ProcessSecMsg::?relay`
        FUNCTION `??ZDApp_ProcessSecMsg::?relay`,0203H
        PUBLIC `??ZDApp_ReadNetworkRestoreState::?relay`
        FUNCTION `??ZDApp_ReadNetworkRestoreState::?relay`,0203H
        PUBLIC `??ZDApp_RegisterCBs::?relay`
        FUNCTION `??ZDApp_RegisterCBs::?relay`,0203H
        PUBLIC `??ZDApp_ResetNwkKey::?relay`
        FUNCTION `??ZDApp_ResetNwkKey::?relay`,0203H
        PUBLIC `??ZDApp_ResetTimerCancel::?relay`
        FUNCTION `??ZDApp_ResetTimerCancel::?relay`,0203H
        PUBLIC `??ZDApp_ResetTimerStart::?relay`
        FUNCTION `??ZDApp_ResetTimerStart::?relay`,0203H
        PUBLIC `??ZDApp_RestoreNetworkState::?relay`
        FUNCTION `??ZDApp_RestoreNetworkState::?relay`,0203H
        PUBLIC `??ZDApp_RestoreNwkKey::?relay`
        FUNCTION `??ZDApp_RestoreNwkKey::?relay`,0203H
        PUBLIC `??ZDApp_SaveNetworkStateEvt::?relay`
        FUNCTION `??ZDApp_SaveNetworkStateEvt::?relay`,0203H
        PUBLIC `??ZDApp_SaveNwkKey::?relay`
        FUNCTION `??ZDApp_SaveNwkKey::?relay`,0203H
        PUBLIC `??ZDApp_SecInit::?relay`
        FUNCTION `??ZDApp_SecInit::?relay`,0203H
        PUBLIC `??ZDApp_SendEventMsg::?relay`
        FUNCTION `??ZDApp_SendEventMsg::?relay`,0203H
        PUBLIC `??ZDApp_SendMsg::?relay`
        FUNCTION `??ZDApp_SendMsg::?relay`,0203H
        PUBLIC `??ZDApp_StartJoiningCycle::?relay`
        FUNCTION `??ZDApp_StartJoiningCycle::?relay`,0203H
        PUBLIC `??ZDApp_StopJoiningCycle::?relay`
        FUNCTION `??ZDApp_StopJoiningCycle::?relay`,0203H
        PUBLIC `??ZDApp_event_loop::?relay`
        FUNCTION `??ZDApp_event_loop::?relay`,0203H
        PUBLIC `??ZDOInitDevice::?relay`
        FUNCTION `??ZDOInitDevice::?relay`,0203H
        PUBLIC `??ZDO_AddrChangeIndicationCB::?relay`
        FUNCTION `??ZDO_AddrChangeIndicationCB::?relay`,0203H
        PUBLIC `??ZDO_ConcentratorIndicationCB::?relay`
        FUNCTION `??ZDO_ConcentratorIndicationCB::?relay`,0203H
        PUBLIC `??ZDO_DeregisterForZdoCB::?relay`
        FUNCTION `??ZDO_DeregisterForZdoCB::?relay`,0203H
        PUBLIC `??ZDO_JoinConfirmCB::?relay`
        FUNCTION `??ZDO_JoinConfirmCB::?relay`,0203H
        PUBLIC `??ZDO_JoinIndicationCB::?relay`
        FUNCTION `??ZDO_JoinIndicationCB::?relay`,0203H
        PUBLIC `??ZDO_LeaveCnf::?relay`
        FUNCTION `??ZDO_LeaveCnf::?relay`,0203H
        PUBLIC `??ZDO_LeaveInd::?relay`
        FUNCTION `??ZDO_LeaveInd::?relay`,0203H
        PUBLIC `??ZDO_ManytoOneFailureIndicationCB::?relay`
        FUNCTION `??ZDO_ManytoOneFailureIndicationCB::?relay`,0203H
        PUBLIC `??ZDO_NetworkDiscoveryConfirmCB::?relay`
        FUNCTION `??ZDO_NetworkDiscoveryConfirmCB::?relay`,0203H
        PUBLIC `??ZDO_NetworkFormationConfirmCB::?relay`
        FUNCTION `??ZDO_NetworkFormationConfirmCB::?relay`,0203H
        PUBLIC `??ZDO_PollConfirmCB::?relay`
        FUNCTION `??ZDO_PollConfirmCB::?relay`,0203H
        PUBLIC `??ZDO_RegisterForZdoCB::?relay`
        FUNCTION `??ZDO_RegisterForZdoCB::?relay`,0203H
        PUBLIC `??ZDO_SrcRtgIndCB::?relay`
        FUNCTION `??ZDO_SrcRtgIndCB::?relay`,0203H
        PUBLIC `??ZDO_StartRouterConfirmCB::?relay`
        FUNCTION `??ZDO_StartRouterConfirmCB::?relay`,0203H
        PUBLIC `??ZDO_SyncIndicationCB::?relay`
        FUNCTION `??ZDO_SyncIndicationCB::?relay`,0203H
        PUBLIC `??ZDO_UpdateDeviceIndication::?relay`
        FUNCTION `??ZDO_UpdateDeviceIndication::?relay`,0203H
        PUBLIC `??ZDO_beaconNotifyIndCB::?relay`
        FUNCTION `??ZDO_beaconNotifyIndCB::?relay`,0203H
        PUBLIC AddrMgrWriteNVRequest
        FUNCTION AddrMgrWriteNVRequest,0203H
        ARGFRAME XSTACK, 0, STACK
        PUBLIC ZDAppCheckForHoldKey
        FUNCTION ZDAppCheckForHoldKey,021203H
        ARGFRAME XSTACK, 9, STACK
        ARGFRAME IOVERLAY, 0, STATIC
        ARGFRAME DOVERLAY, 0, STATIC
        LOCFRAME ISTACK, 2, STACK
        PUBLIC ZDAppDetermineDeviceType
        FUNCTION ZDAppDetermineDeviceType,021203H
        ARGFRAME XSTACK, 12, STACK
        ARGFRAME IOVERLAY, 0, STATIC
        ARGFRAME DOVERLAY, 0, STATIC
        LOCFRAME ISTACK, 2, STACK
        PUBLIC ZDAppNwkAddr
        PUBLIC ZDAppTaskID
        PUBLIC ZDApp_AnnounceNewAddress
        FUNCTION ZDApp_AnnounceNewAddress,0a1203H
        ARGFRAME XSTACK, 12, STACK
        ARGFRAME IOVERLAY, 0, STATIC
        ARGFRAME DOVERLAY, 0, STATIC
        LOCFRAME XSTACK, 11, STACK
        PUBLIC ZDApp_AutoFindMode_epDesc
        PUBLIC ZDApp_ChangeMatchDescRespPermission
        FUNCTION ZDApp_ChangeMatchDescRespPermission,021203H
        ARGFRAME XSTACK, 0, STACK
        LOCFRAME XSTACK, 9, STACK
        PUBLIC ZDApp_CoordStartPANIDConflictCB
        FUNCTION ZDApp_CoordStartPANIDConflictCB,0203H
        ARGFRAME XSTACK, 0, STACK
        PUBLIC ZDApp_DeviceAuthEvt
        FUNCTION ZDApp_DeviceAuthEvt,021203H
        ARGFRAME XSTACK, 9, STACK
        ARGFRAME IOVERLAY, 0, STATIC
        ARGFRAME DOVERLAY, 0, STATIC
        LOCFRAME ISTACK, 2, STACK
        PUBLIC ZDApp_InMsgCB
        FUNCTION ZDApp_InMsgCB,0a1203H
        ARGFRAME XSTACK, 0, STACK
        LOCFRAME XSTACK, 14, STACK
        PUBLIC ZDApp_Init
        FUNCTION ZDApp_Init,021203H
        ARGFRAME XSTACK, 0, STACK
        LOCFRAME XSTACK, 9, STACK
        PUBLIC ZDApp_InitUserDesc
        FUNCTION ZDApp_InitUserDesc,0a1203H
        ARGFRAME XSTACK, 0, STACK
        LOCFRAME XSTACK, 31, STACK
        PUBLIC ZDApp_InitZdoCBFunc
        FUNCTION ZDApp_InitZdoCBFunc,0203H
        ARGFRAME XSTACK, 9, STACK
        ARGFRAME IOVERLAY, 0, STATIC
        ARGFRAME DOVERLAY, 0, STATIC
        LOCFRAME ISTACK, 2, STACK
        PUBLIC ZDApp_JoinReq
        FUNCTION ZDApp_JoinReq,0a1203H
        ARGFRAME XSTACK, 4, STACK
        LOCFRAME XSTACK, 16, STACK
        PUBLIC ZDApp_LeaveCtrl
        PUBLIC ZDApp_LeaveCtrlBypass
        FUNCTION ZDApp_LeaveCtrlBypass,0203H
        ARGFRAME XSTACK, 0, STACK
        LOCFRAME ISTACK, 2, STACK
        PUBLIC ZDApp_LeaveCtrlInit
        FUNCTION ZDApp_LeaveCtrlInit,0a1203H
        ARGFRAME XSTACK, 12, STACK
        ARGFRAME IOVERLAY, 0, STATIC
        ARGFRAME DOVERLAY, 0, STATIC
        LOCFRAME XSTACK, 14, STACK
        PUBLIC ZDApp_LeaveCtrlSet
        FUNCTION ZDApp_LeaveCtrlSet,0a1203H
        ARGFRAME XSTACK, 9, STACK
        ARGFRAME IOVERLAY, 0, STATIC
        ARGFRAME DOVERLAY, 0, STATIC
        LOCFRAME XSTACK, 14, STACK
        PUBLIC ZDApp_LeaveCtrlStartup
        FUNCTION ZDApp_LeaveCtrlStartup,0a1203H
        ARGFRAME XSTACK, 12, STACK
        ARGFRAME IOVERLAY, 0, STATIC
        ARGFRAME DOVERLAY, 0, STATIC
        LOCFRAME XSTACK, 14, STACK
        PUBLIC ZDApp_LeaveReset
        FUNCTION ZDApp_LeaveReset,021203H
        ARGFRAME XSTACK, 10, STACK
        ARGFRAME IOVERLAY, 0, STATIC
        ARGFRAME DOVERLAY, 0, STATIC
        LOCFRAME XSTACK, 9, STACK
        PUBLIC ZDApp_LeaveUpdate
        FUNCTION ZDApp_LeaveUpdate,0203H
        ARGFRAME XSTACK, 0, STACK
        PUBLIC ZDApp_NVUpdate
        FUNCTION ZDApp_NVUpdate,0203H
        ARGFRAME XSTACK, 0, STACK
        PUBLIC ZDApp_NetworkDiscoveryReq
        FUNCTION ZDApp_NetworkDiscoveryReq,0a1203H
        ARGFRAME XSTACK, 0, STACK
        LOCFRAME XSTACK, 12, STACK
        PUBLIC ZDApp_NetworkInit
        FUNCTION ZDApp_NetworkInit,021203H
        ARGFRAME XSTACK, 12, STACK
        ARGFRAME IOVERLAY, 0, STATIC
        ARGFRAME DOVERLAY, 0, STATIC
        LOCFRAME ISTACK, 2, STACK
        PUBLIC ZDApp_NetworkStartEvt
        FUNCTION ZDApp_NetworkStartEvt,021203H
        ARGFRAME XSTACK, 0, STACK
        LOCFRAME ISTACK, 2, STACK
        PUBLIC ZDApp_NodeProfileSync
        FUNCTION ZDApp_NodeProfileSync,021203H
        ARGFRAME XSTACK, 12, STACK
        ARGFRAME IOVERLAY, 0, STATIC
        ARGFRAME DOVERLAY, 0, STATIC
        LOCFRAME XSTACK, 9, STACK
        PUBLIC ZDApp_NwkDescListProcessing
        FUNCTION ZDApp_NwkDescListProcessing,0a1203H
        ARGFRAME XSTACK, 11, STACK
        ARGFRAME IOVERLAY, 0, STATIC
        ARGFRAME DOVERLAY, 0, STATIC
        LOCFRAME XSTACK, 14, STACK
        PUBLIC ZDApp_NwkStateUpdateCB
        FUNCTION ZDApp_NwkStateUpdateCB,021203H
        ARGFRAME XSTACK, 0, STACK
        LOCFRAME ISTACK, 2, STACK
        PUBLIC ZDApp_ProcessMsgCBs
        FUNCTION ZDApp_ProcessMsgCBs,0a1203H
        ARGFRAME XSTACK, 11, STACK
        ARGFRAME IOVERLAY, 0, STATIC
        ARGFRAME DOVERLAY, 0, STATIC
        LOCFRAME XSTACK, 31, STACK
        PUBLIC ZDApp_ProcessNetworkJoin
        FUNCTION ZDApp_ProcessNetworkJoin,0a1203H
        ARGFRAME XSTACK, 11, STACK
        ARGFRAME IOVERLAY, 0, STATIC
        ARGFRAME DOVERLAY, 0, STATIC
        LOCFRAME XSTACK, 12, STACK
        PUBLIC ZDApp_ProcessOSALMsg
        FUNCTION ZDApp_ProcessOSALMsg,0a1203H
        ARGFRAME XSTACK, 12, STACK
        ARGFRAME IOVERLAY, 0, STATIC
        ARGFRAME DOVERLAY, 0, STATIC
        LOCFRAME XSTACK, 15, STACK
        PUBLIC ZDApp_ProcessSecEvent
        FUNCTION ZDApp_ProcessSecEvent,021203H
        ARGFRAME XSTACK, 0, STACK
        LOCFRAME XSTACK, 9, STACK
        PUBLIC ZDApp_ProcessSecMsg
        FUNCTION ZDApp_ProcessSecMsg,021203H
        ARGFRAME XSTACK, 0, STACK
        LOCFRAME ISTACK, 2, STACK
        PUBLIC ZDApp_ReadNetworkRestoreState
        FUNCTION ZDApp_ReadNetworkRestoreState,021203H
        ARGFRAME XSTACK, 0, STACK
        LOCFRAME XSTACK, 9, STACK
        PUBLIC ZDApp_RegisterCBs
        FUNCTION ZDApp_RegisterCBs,021203H
        ARGFRAME XSTACK, 9, STACK
        ARGFRAME IOVERLAY, 0, STATIC
        ARGFRAME DOVERLAY, 0, STATIC
        LOCFRAME ISTACK, 2, STACK
        PUBLIC ZDApp_ResetNwkKey
        FUNCTION ZDApp_ResetNwkKey,0a1203H
        ARGFRAME XSTACK, 0, STACK
        LOCFRAME XSTACK, 35, STACK
        PUBLIC ZDApp_ResetTimerCancel
        FUNCTION ZDApp_ResetTimerCancel,021203H
        ARGFRAME XSTACK, 0, STACK
        ARGFRAME IOVERLAY, 0, STATIC
        ARGFRAME DOVERLAY, 0, STATIC
        LOCFRAME ISTACK, 2, STACK
        PUBLIC ZDApp_ResetTimerStart
        FUNCTION ZDApp_ResetTimerStart,021203H
        ARGFRAME XSTACK, 9, STACK
        ARGFRAME IOVERLAY, 0, STATIC
        ARGFRAME DOVERLAY, 0, STATIC
        LOCFRAME ISTACK, 2, STACK
        PUBLIC ZDApp_RestoreNetworkState
        FUNCTION ZDApp_RestoreNetworkState,021203H
        ARGFRAME XSTACK, 0, STACK
        LOCFRAME XSTACK, 9, STACK
        PUBLIC ZDApp_RestoreNwkKey
        FUNCTION ZDApp_RestoreNwkKey,0a1203H
        ARGFRAME XSTACK, 0, STACK
        LOCFRAME XSTACK, 37, STACK
        PUBLIC ZDApp_SaveNetworkStateEvt
        FUNCTION ZDApp_SaveNetworkStateEvt,0203H
        ARGFRAME XSTACK, 0, STACK
        PUBLIC ZDApp_SaveNwkKey
        FUNCTION ZDApp_SaveNwkKey,0a1203H
        ARGFRAME XSTACK, 9, STACK
        ARGFRAME IOVERLAY, 0, STATIC
        ARGFRAME DOVERLAY, 0, STATIC
        LOCFRAME XSTACK, 37, STACK
        PUBLIC ZDApp_SavedPollRate
        PUBLIC ZDApp_SecInit
        FUNCTION ZDApp_SecInit,021203H
        ARGFRAME XSTACK, 0, STACK
        LOCFRAME XSTACK, 9, STACK
        PUBLIC ZDApp_SendEventMsg
        FUNCTION ZDApp_SendEventMsg,021203H
        ARGFRAME XSTACK, 0, STACK
        LOCFRAME XSTACK, 9, STACK
        PUBLIC ZDApp_SendMsg
        FUNCTION ZDApp_SendMsg,0a1203H
        ARGFRAME XSTACK, 14, STACK
        ARGFRAME IOVERLAY, 0, STATIC
        ARGFRAME DOVERLAY, 0, STATIC
        LOCFRAME ISTACK, 1, STACK
        LOCFRAME XSTACK, 19, STACK
        PUBLIC ZDApp_StartJoiningCycle
        FUNCTION ZDApp_StartJoiningCycle,021203H
        ARGFRAME XSTACK, 0, STACK
        LOCFRAME ISTACK, 2, STACK
        PUBLIC ZDApp_StopJoiningCycle
        FUNCTION ZDApp_StopJoiningCycle,0203H
        ARGFRAME XSTACK, 0, STACK
        LOCFRAME ISTACK, 2, STACK
        PUBLIC ZDApp_epDesc
        PUBLIC ZDApp_event_loop
        FUNCTION ZDApp_event_loop,0a1203H
        ARGFRAME XSTACK, 0, STACK
        LOCFRAME XSTACK, 12, STACK
        PUBLIC ZDOInitDevice
        FUNCTION ZDOInitDevice,0a1203H
        ARGFRAME XSTACK, 9, STACK
        ARGFRAME IOVERLAY, 0, STATIC
        ARGFRAME DOVERLAY, 0, STATIC
        LOCFRAME XSTACK, 12, STACK
        PUBLIC ZDO_AddrChangeIndicationCB
        FUNCTION ZDO_AddrChangeIndicationCB,021203H
        ARGFRAME XSTACK, 0, STACK
        LOCFRAME ISTACK, 2, STACK
        PUBLIC ZDO_ConcentratorIndicationCB
        FUNCTION ZDO_ConcentratorIndicationCB,0203H
        ARGFRAME XSTACK, 0, STACK
        LOCFRAME ISTACK, 1, STACK
        LOCFRAME XSTACK, 14, STACK
        PUBLIC ZDO_DeregisterForZdoCB
        FUNCTION ZDO_DeregisterForZdoCB,0203H
        ARGFRAME XSTACK, 0, STACK
        LOCFRAME ISTACK, 2, STACK
        PUBLIC ZDO_JoinConfirmCB
        FUNCTION ZDO_JoinConfirmCB,021203H
        ARGFRAME XSTACK, 0, STACK
        LOCFRAME ISTACK, 1, STACK
        LOCFRAME XSTACK, 14, STACK
        PUBLIC ZDO_JoinIndicationCB
        FUNCTION ZDO_JoinIndicationCB,0203H
        ARGFRAME XSTACK, 1, STACK
        PUBLIC ZDO_LeaveCnf
        FUNCTION ZDO_LeaveCnf,021203H
        ARGFRAME XSTACK, 0, STACK
        LOCFRAME XSTACK, 9, STACK
        PUBLIC ZDO_LeaveInd
        FUNCTION ZDO_LeaveInd,0a1203H
        ARGFRAME XSTACK, 0, STACK
        LOCFRAME XSTACK, 10, STACK
        PUBLIC ZDO_ManytoOneFailureIndicationCB
        FUNCTION ZDO_ManytoOneFailureIndicationCB,021203H
        ARGFRAME XSTACK, 0, STACK
        LOCFRAME ISTACK, 2, STACK
        PUBLIC ZDO_NetworkDiscoveryConfirmCB
        FUNCTION ZDO_NetworkDiscoveryConfirmCB,021203H
        ARGFRAME XSTACK, 0, STACK
        LOCFRAME ISTACK, 3, STACK
        LOCFRAME XSTACK, 3, STACK
        PUBLIC ZDO_NetworkFormationConfirmCB
        FUNCTION ZDO_NetworkFormationConfirmCB,021203H
        ARGFRAME XSTACK, 0, STACK
        LOCFRAME XSTACK, 9, STACK
        PUBLIC ZDO_PollConfirmCB
        FUNCTION ZDO_PollConfirmCB,0203H
        ARGFRAME XSTACK, 0, STACK
        PUBLIC ZDO_RegisterForZdoCB
        FUNCTION ZDO_RegisterForZdoCB,0203H
        ARGFRAME XSTACK, 0, STACK
        LOCFRAME ISTACK, 2, STACK
        PUBLIC ZDO_SrcRtgIndCB
        FUNCTION ZDO_SrcRtgIndCB,0203H
        ARGFRAME XSTACK, 0, STACK
        LOCFRAME ISTACK, 1, STACK
        LOCFRAME XSTACK, 14, STACK
        PUBLIC ZDO_StartRouterConfirmCB
        FUNCTION ZDO_StartRouterConfirmCB,021203H
        ARGFRAME XSTACK, 0, STACK
        LOCFRAME XSTACK, 9, STACK
        PUBLIC ZDO_SyncIndicationCB
        FUNCTION ZDO_SyncIndicationCB,021203H
        ARGFRAME XSTACK, 0, STACK
        LOCFRAME XSTACK, 9, STACK
        PUBLIC ZDO_UpdateDeviceIndication
        FUNCTION ZDO_UpdateDeviceIndication,0203H
        ARGFRAME XSTACK, 0, STACK
        PUBLIC ZDO_UseExtendedPANID
        PUBLIC ZDO_beaconNotifyIndCB
        FUNCTION ZDO_beaconNotifyIndCB,0a1203H
        ARGFRAME XSTACK, 0, STACK
        LOCFRAME ISTACK, 1, STACK
        LOCFRAME XSTACK, 14, STACK
        PUBWEAK __Constant_1
        PUBWEAK __Constant_3e8
        PUBLIC _tmpRejoinState
        PUBLIC continueJoining
        PUBLIC devStartMode
        PUBLIC devState
        PUBLIC nwkFrameCounterChanges
        PUBLIC nwkStatus
        PUBLIC retryCnt
        PUBLIC zdappMgmtNwkDiscReqInProgress
        PUBLIC zdappMgmtNwkDiscRspAddr
        PUBLIC zdappMgmtNwkDiscRspTransSeq
        PUBLIC zdappMgmtNwkDiscStartIndex
        PUBLIC zdappMgmtSavedNwkState
        PUBLIC zdoCBFunc
        PUBLIC zdoDiscCounter
        
          CFI Names cfiNames0
          CFI StackFrame CFA_SP SP IDATA
          CFI StackFrame CFA_PSP16 PSP16 XDATA
          CFI StackFrame CFA_XSP16 XSP16 XDATA
          CFI StaticOverlayFrame CFA_IOVERLAY IOVERLAY
          CFI StaticOverlayFrame CFA_DOVERLAY DOVERLAY
          CFI Resource `PSW.CY`:1, `B.BR0`:1, `B.BR1`:1, `B.BR2`:1, `B.BR3`:1
          CFI Resource `B.BR4`:1, `B.BR5`:1, `B.BR6`:1, `B.BR7`:1, `VB.BR8`:1
          CFI Resource `VB.BR9`:1, `VB.BR10`:1, `VB.BR11`:1, `VB.BR12`:1
          CFI Resource `VB.BR13`:1, `VB.BR14`:1, `VB.BR15`:1, VB:8, B:8, A:8
          CFI Resource PSW:8, DPL0:8, DPH0:8, R0:8, R1:8, R2:8, R3:8, R4:8, R5:8
          CFI Resource R6:8, R7:8, V0:8, V1:8, V2:8, V3:8, V4:8, V5:8, V6:8, V7:8
          CFI Resource SP:8, PSPH:8, PSPL:8, PSP16:16, XSPH:8, XSPL:8, XSP16:16
          CFI VirtualResource ?RET:24
          CFI Resource ?BRET_EXT:8
          CFI VirtualResource ?RET_HIGH:8, ?RET_LOW:8
          CFI ResourceParts PSP16 PSPH, PSPL
          CFI ResourceParts XSP16 XSPH, XSPL
          CFI ResourceParts ?RET ?BRET_EXT, ?RET_HIGH, ?RET_LOW
          CFI EndNames cfiNames0
        
          CFI Common cfiCommon0 Using cfiNames0
          CFI CodeAlign 1
          CFI DataAlign -1
          CFI ReturnAddress ?RET CODE
          CFI CFA_DOVERLAY Used
          CFI CFA_IOVERLAY Used
          CFI CFA_SP SP+-3
          CFI CFA_PSP16 PSP16+0
          CFI CFA_XSP16 XSP16+0
          CFI `PSW.CY` SameValue
          CFI `B.BR0` SameValue
          CFI `B.BR1` SameValue
          CFI `B.BR2` SameValue
          CFI `B.BR3` SameValue
          CFI `B.BR4` SameValue
          CFI `B.BR5` SameValue
          CFI `B.BR6` SameValue
          CFI `B.BR7` SameValue
          CFI `VB.BR8` SameValue
          CFI `VB.BR9` SameValue
          CFI `VB.BR10` SameValue
          CFI `VB.BR11` SameValue
          CFI `VB.BR12` SameValue
          CFI `VB.BR13` SameValue
          CFI `VB.BR14` SameValue
          CFI `VB.BR15` SameValue
          CFI VB SameValue
          CFI B Undefined
          CFI A Undefined
          CFI PSW SameValue
          CFI DPL0 SameValue
          CFI DPH0 SameValue
          CFI R0 Undefined
          CFI R1 Undefined
          CFI R2 Undefined
          CFI R3 Undefined
          CFI R4 Undefined
          CFI R5 Undefined
          CFI R6 SameValue
          CFI R7 SameValue
          CFI V0 SameValue
          CFI V1 SameValue
          CFI V2 SameValue
          CFI V3 SameValue
          CFI V4 SameValue
          CFI V5 SameValue
          CFI V6 SameValue
          CFI V7 SameValue
          CFI PSPH Undefined
          CFI PSPL Undefined
          CFI XSPH Undefined
          CFI XSPL Undefined
          CFI ?RET Concat
          CFI ?BRET_EXT Frame(CFA_SP, 3)
          CFI ?RET_HIGH Frame(CFA_SP, 2)
          CFI ?RET_LOW Frame(CFA_SP, 1)
          CFI EndCommon cfiCommon0
        
        
          CFI Common cfiCommon1 Using cfiNames0
          CFI CodeAlign 1
          CFI DataAlign -1
          CFI ReturnAddress ?RET CODE
          CFI CFA_DOVERLAY Used
          CFI CFA_IOVERLAY Used
          CFI CFA_SP SP+-2
          CFI CFA_PSP16 PSP16+0
          CFI CFA_XSP16 XSP16+0
          CFI `PSW.CY` SameValue
          CFI `B.BR0` SameValue
          CFI `B.BR1` SameValue
          CFI `B.BR2` SameValue
          CFI `B.BR3` SameValue
          CFI `B.BR4` SameValue
          CFI `B.BR5` SameValue
          CFI `B.BR6` SameValue
          CFI `B.BR7` SameValue
          CFI `VB.BR8` SameValue
          CFI `VB.BR9` SameValue
          CFI `VB.BR10` SameValue
          CFI `VB.BR11` SameValue
          CFI `VB.BR12` SameValue
          CFI `VB.BR13` SameValue
          CFI `VB.BR14` SameValue
          CFI `VB.BR15` SameValue
          CFI VB SameValue
          CFI B SameValue
          CFI A SameValue
          CFI PSW SameValue
          CFI DPL0 SameValue
          CFI DPH0 SameValue
          CFI R0 SameValue
          CFI R1 SameValue
          CFI R2 SameValue
          CFI R3 SameValue
          CFI R4 SameValue
          CFI R5 SameValue
          CFI R6 SameValue
          CFI R7 SameValue
          CFI V0 SameValue
          CFI V1 SameValue
          CFI V2 SameValue
          CFI V3 SameValue
          CFI V4 SameValue
          CFI V5 SameValue
          CFI V6 SameValue
          CFI V7 SameValue
          CFI PSPH Undefined
          CFI PSPL Undefined
          CFI XSPH Undefined
          CFI XSPL Undefined
          CFI ?RET Concat
          CFI ?BRET_EXT SameValue
          CFI ?RET_HIGH Frame(CFA_SP, 2)
          CFI ?RET_LOW Frame(CFA_SP, 1)
          CFI EndCommon cfiCommon1
        
HalKeyRead          SYMBOL "HalKeyRead"
`??HalKeyRead::?relay` SYMBOL "?relay", HalKeyRead
HalLedBlink         SYMBOL "HalLedBlink"
`??HalLedBlink::?relay` SYMBOL "?relay", HalLedBlink
HalLedSet           SYMBOL "HalLedSet"
`??HalLedSet::?relay` SYMBOL "?relay", HalLedSet
NLME_GetCoordShortAddr SYMBOL "NLME_GetCoordShortAddr"
`??NLME_GetCoordShortAddr::?relay` SYMBOL "?relay", NLME_GetCoordShortAddr
NLME_GetEnergyThreshold SYMBOL "NLME_GetEnergyThreshold"
`??NLME_GetEnergyThreshold::?relay` SYMBOL "?relay", NLME_GetEnergyThreshold
NLME_GetExtAddr     SYMBOL "NLME_GetExtAddr"
`??NLME_GetExtAddr::?relay` SYMBOL "?relay", NLME_GetExtAddr
NLME_GetShortAddr   SYMBOL "NLME_GetShortAddr"
`??NLME_GetShortAddr::?relay` SYMBOL "?relay", NLME_GetShortAddr
NLME_InitNV         SYMBOL "NLME_InitNV"
`??NLME_InitNV::?relay` SYMBOL "?relay", NLME_InitNV
NLME_JoinRequest    SYMBOL "NLME_JoinRequest"
`??NLME_JoinRequest::?relay` SYMBOL "?relay", NLME_JoinRequest
NLME_NetworkDiscoveryRequest SYMBOL "NLME_NetworkDiscoveryRequest"
`??NLME_NetworkDiscoveryRequest::?relay` SYMBOL "?relay", NLME_NetworkDiscoveryRequest
NLME_NwkDiscTerm    SYMBOL "NLME_NwkDiscTerm"
`??NLME_NwkDiscTerm::?relay` SYMBOL "?relay", NLME_NwkDiscTerm
NLME_ReJoinRequest  SYMBOL "NLME_ReJoinRequest"
`??NLME_ReJoinRequest::?relay` SYMBOL "?relay", NLME_ReJoinRequest
NLME_RestoreFromNV  SYMBOL "NLME_RestoreFromNV"
`??NLME_RestoreFromNV::?relay` SYMBOL "?relay", NLME_RestoreFromNV
NLME_SetBroadcastFilter SYMBOL "NLME_SetBroadcastFilter"
`??NLME_SetBroadcastFilter::?relay` SYMBOL "?relay", NLME_SetBroadcastFilter
NLME_SetEnergyThreshold SYMBOL "NLME_SetEnergyThreshold"
`??NLME_SetEnergyThreshold::?relay` SYMBOL "?relay", NLME_SetEnergyThreshold
NLME_SetPollRate    SYMBOL "NLME_SetPollRate"
`??NLME_SetPollRate::?relay` SYMBOL "?relay", NLME_SetPollRate
NLME_SetQueuedPollRate SYMBOL "NLME_SetQueuedPollRate"
`??NLME_SetQueuedPollRate::?relay` SYMBOL "?relay", NLME_SetQueuedPollRate
NLME_SetResponseRate SYMBOL "NLME_SetResponseRate"
`??NLME_SetResponseRate::?relay` SYMBOL "?relay", NLME_SetResponseRate
RTG_MTORouteReq     SYMBOL "RTG_MTORouteReq"
`??RTG_MTORouteReq::?relay` SYMBOL "?relay", RTG_MTORouteReq
SSP_ReadNwkActiveKey SYMBOL "SSP_ReadNwkActiveKey"
`??SSP_ReadNwkActiveKey::?relay` SYMBOL "?relay", SSP_ReadNwkActiveKey
ZDConfig_InitDescriptors SYMBOL "ZDConfig_InitDescriptors"
`??ZDConfig_InitDescriptors::?relay` SYMBOL "?relay", ZDConfig_InitDescriptors
ZDO_Init            SYMBOL "ZDO_Init"
`??ZDO_Init::?relay` SYMBOL "?relay", ZDO_Init
ZDO_ParseAddrRsp    SYMBOL "ZDO_ParseAddrRsp"
`??ZDO_ParseAddrRsp::?relay` SYMBOL "?relay", ZDO_ParseAddrRsp
ZDO_ParseBindUnbindReq SYMBOL "ZDO_ParseBindUnbindReq"
`??ZDO_ParseBindUnbindReq::?relay` SYMBOL "?relay", ZDO_ParseBindUnbindReq
ZDO_ProcessBindUnbindReq SYMBOL "ZDO_ProcessBindUnbindReq"
`??ZDO_ProcessBindUnbindReq::?relay` SYMBOL "?relay", ZDO_ProcessBindUnbindReq
ZDO_RegisterForZDOMsg SYMBOL "ZDO_RegisterForZDOMsg"
`??ZDO_RegisterForZDOMsg::?relay` SYMBOL "?relay", ZDO_RegisterForZDOMsg
ZDO_StartDevice     SYMBOL "ZDO_StartDevice"
`??ZDO_StartDevice::?relay` SYMBOL "?relay", ZDO_StartDevice
ZDO_UpdateAddrManager SYMBOL "ZDO_UpdateAddrManager"
`??ZDO_UpdateAddrManager::?relay` SYMBOL "?relay", ZDO_UpdateAddrManager
ZDO_UpdateNwkStatus SYMBOL "ZDO_UpdateNwkStatus"
`??ZDO_UpdateNwkStatus::?relay` SYMBOL "?relay", ZDO_UpdateNwkStatus
ZDP_DeviceAnnce     SYMBOL "ZDP_DeviceAnnce"
`??ZDP_DeviceAnnce::?relay` SYMBOL "?relay", ZDP_DeviceAnnce
ZDP_GenericRsp      SYMBOL "ZDP_GenericRsp"
`??ZDP_GenericRsp::?relay` SYMBOL "?relay", ZDP_GenericRsp
ZDP_IncomingData    SYMBOL "ZDP_IncomingData"
`??ZDP_IncomingData::?relay` SYMBOL "?relay", ZDP_IncomingData
ZDSecMgrInit        SYMBOL "ZDSecMgrInit"
`??ZDSecMgrInit::?relay` SYMBOL "?relay", ZDSecMgrInit
ZDSecMgrSaveTCLinkKey SYMBOL "ZDSecMgrSaveTCLinkKey"
`??ZDSecMgrSaveTCLinkKey::?relay` SYMBOL "?relay", ZDSecMgrSaveTCLinkKey
ZDSecMgrSwitchKeyInd SYMBOL "ZDSecMgrSwitchKeyInd"
`??ZDSecMgrSwitchKeyInd::?relay` SYMBOL "?relay", ZDSecMgrSwitchKeyInd
ZDSecMgrTransportKeyInd SYMBOL "ZDSecMgrTransportKeyInd"
`??ZDSecMgrTransportKeyInd::?relay` SYMBOL "?relay", ZDSecMgrTransportKeyInd
ZMacSetReq          SYMBOL "ZMacSetReq"
`??ZMacSetReq::?relay` SYMBOL "?relay", ZMacSetReq
afRegister          SYMBOL "afRegister"
`??afRegister::?relay` SYMBOL "?relay", afRegister
afSetMatch          SYMBOL "afSetMatch"
`??afSetMatch::?relay` SYMBOL "?relay", afSetMatch
nwkNeighborInitTable SYMBOL "nwkNeighborInitTable"
`??nwkNeighborInitTable::?relay` SYMBOL "?relay", nwkNeighborInitTable
nwk_ExtPANIDValid   SYMBOL "nwk_ExtPANIDValid"
`??nwk_ExtPANIDValid::?relay` SYMBOL "?relay", nwk_ExtPANIDValid
nwk_getNwkDescList  SYMBOL "nwk_getNwkDescList"
`??nwk_getNwkDescList::?relay` SYMBOL "?relay", nwk_getNwkDescList
osal_get_timeoutEx  SYMBOL "osal_get_timeoutEx"
`??osal_get_timeoutEx::?relay` SYMBOL "?relay", osal_get_timeoutEx
osal_mem_alloc      SYMBOL "osal_mem_alloc"
`??osal_mem_alloc::?relay` SYMBOL "?relay", osal_mem_alloc
osal_mem_free       SYMBOL "osal_mem_free"
`??osal_mem_free::?relay` SYMBOL "?relay", osal_mem_free
osal_memcpy         SYMBOL "osal_memcpy"
`??osal_memcpy::?relay` SYMBOL "?relay", osal_memcpy
osal_memset         SYMBOL "osal_memset"
`??osal_memset::?relay` SYMBOL "?relay", osal_memset
osal_msg_allocate   SYMBOL "osal_msg_allocate"
`??osal_msg_allocate::?relay` SYMBOL "?relay", osal_msg_allocate
osal_msg_deallocate SYMBOL "osal_msg_deallocate"
`??osal_msg_deallocate::?relay` SYMBOL "?relay", osal_msg_deallocate
osal_msg_receive    SYMBOL "osal_msg_receive"
`??osal_msg_receive::?relay` SYMBOL "?relay", osal_msg_receive
osal_msg_send       SYMBOL "osal_msg_send"
`??osal_msg_send::?relay` SYMBOL "?relay", osal_msg_send
osal_nv_item_init   SYMBOL "osal_nv_item_init"
`??osal_nv_item_init::?relay` SYMBOL "?relay", osal_nv_item_init
osal_nv_read        SYMBOL "osal_nv_read"
`??osal_nv_read::?relay` SYMBOL "?relay", osal_nv_read
osal_nv_write       SYMBOL "osal_nv_write"
`??osal_nv_write::?relay` SYMBOL "?relay", osal_nv_write
osal_pwrmgr_device  SYMBOL "osal_pwrmgr_device"
`??osal_pwrmgr_device::?relay` SYMBOL "?relay", osal_pwrmgr_device
osal_rand           SYMBOL "osal_rand"
`??osal_rand::?relay` SYMBOL "?relay", osal_rand
osal_set_event      SYMBOL "osal_set_event"
`??osal_set_event::?relay` SYMBOL "?relay", osal_set_event
osal_start_timerEx  SYMBOL "osal_start_timerEx"
`??osal_start_timerEx::?relay` SYMBOL "?relay", osal_start_timerEx
osal_stop_timerEx   SYMBOL "osal_stop_timerEx"
`??osal_stop_timerEx::?relay` SYMBOL "?relay", osal_stop_timerEx
sAddrExtCmp         SYMBOL "sAddrExtCmp"
`??sAddrExtCmp::?relay` SYMBOL "?relay", sAddrExtCmp
sAddrExtCpy         SYMBOL "sAddrExtCpy"
`??sAddrExtCpy::?relay` SYMBOL "?relay", sAddrExtCpy
zgInitItems         SYMBOL "zgInitItems"
`??zgInitItems::?relay` SYMBOL "?relay", zgInitItems
zgReadStartupOptions SYMBOL "zgReadStartupOptions"
`??zgReadStartupOptions::?relay` SYMBOL "?relay", zgReadStartupOptions
zgWriteStartupOptions SYMBOL "zgWriteStartupOptions"
`??zgWriteStartupOptions::?relay` SYMBOL "?relay", zgWriteStartupOptions
AddrMgrWriteNVRequest SYMBOL "AddrMgrWriteNVRequest"
`??AddrMgrWriteNVRequest::?relay` SYMBOL "?relay", AddrMgrWriteNVRequest
ZDAppCheckForHoldKey SYMBOL "ZDAppCheckForHoldKey"
`??ZDAppCheckForHoldKey::?relay` SYMBOL "?relay", ZDAppCheckForHoldKey
ZDAppDetermineDeviceType SYMBOL "ZDAppDetermineDeviceType"
`??ZDAppDetermineDeviceType::?relay` SYMBOL "?relay", ZDAppDetermineDeviceType
ZDApp_AnnounceNewAddress SYMBOL "ZDApp_AnnounceNewAddress"
`??ZDApp_AnnounceNewAddress::?relay` SYMBOL "?relay", ZDApp_AnnounceNewAddress
ZDApp_ChangeMatchDescRespPermission SYMBOL "ZDApp_ChangeMatchDescRespPermission"
`??ZDApp_ChangeMatchDescRespPermission::?relay` SYMBOL "?relay", ZDApp_ChangeMatchDescRespPermission
ZDApp_CoordStartPANIDConflictCB SYMBOL "ZDApp_CoordStartPANIDConflictCB"
`??ZDApp_CoordStartPANIDConflictCB::?relay` SYMBOL "?relay", ZDApp_CoordStartPANIDConflictCB
ZDApp_DeviceAuthEvt SYMBOL "ZDApp_DeviceAuthEvt"
`??ZDApp_DeviceAuthEvt::?relay` SYMBOL "?relay", ZDApp_DeviceAuthEvt
ZDApp_InMsgCB       SYMBOL "ZDApp_InMsgCB"
`??ZDApp_InMsgCB::?relay` SYMBOL "?relay", ZDApp_InMsgCB
ZDApp_Init          SYMBOL "ZDApp_Init"
`??ZDApp_Init::?relay` SYMBOL "?relay", ZDApp_Init
ZDApp_InitUserDesc  SYMBOL "ZDApp_InitUserDesc"
`??ZDApp_InitUserDesc::?relay` SYMBOL "?relay", ZDApp_InitUserDesc
ZDApp_InitZdoCBFunc SYMBOL "ZDApp_InitZdoCBFunc"
`??ZDApp_InitZdoCBFunc::?relay` SYMBOL "?relay", ZDApp_InitZdoCBFunc
ZDApp_JoinReq       SYMBOL "ZDApp_JoinReq"
`??ZDApp_JoinReq::?relay` SYMBOL "?relay", ZDApp_JoinReq
ZDApp_LeaveCtrlBypass SYMBOL "ZDApp_LeaveCtrlBypass"
`??ZDApp_LeaveCtrlBypass::?relay` SYMBOL "?relay", ZDApp_LeaveCtrlBypass
ZDApp_LeaveCtrlInit SYMBOL "ZDApp_LeaveCtrlInit"
`??ZDApp_LeaveCtrlInit::?relay` SYMBOL "?relay", ZDApp_LeaveCtrlInit
ZDApp_LeaveCtrlSet  SYMBOL "ZDApp_LeaveCtrlSet"
`??ZDApp_LeaveCtrlSet::?relay` SYMBOL "?relay", ZDApp_LeaveCtrlSet
ZDApp_LeaveCtrlStartup SYMBOL "ZDApp_LeaveCtrlStartup"
`??ZDApp_LeaveCtrlStartup::?relay` SYMBOL "?relay", ZDApp_LeaveCtrlStartup
ZDApp_LeaveReset    SYMBOL "ZDApp_LeaveReset"
`??ZDApp_LeaveReset::?relay` SYMBOL "?relay", ZDApp_LeaveReset
ZDApp_LeaveUpdate   SYMBOL "ZDApp_LeaveUpdate"
`??ZDApp_LeaveUpdate::?relay` SYMBOL "?relay", ZDApp_LeaveUpdate
ZDApp_NVUpdate      SYMBOL "ZDApp_NVUpdate"
`??ZDApp_NVUpdate::?relay` SYMBOL "?relay", ZDApp_NVUpdate
ZDApp_NetworkDiscoveryReq SYMBOL "ZDApp_NetworkDiscoveryReq"
`??ZDApp_NetworkDiscoveryReq::?relay` SYMBOL "?relay", ZDApp_NetworkDiscoveryReq
ZDApp_NetworkInit   SYMBOL "ZDApp_NetworkInit"
`??ZDApp_NetworkInit::?relay` SYMBOL "?relay", ZDApp_NetworkInit
ZDApp_NetworkStartEvt SYMBOL "ZDApp_NetworkStartEvt"
`??ZDApp_NetworkStartEvt::?relay` SYMBOL "?relay", ZDApp_NetworkStartEvt
ZDApp_NodeProfileSync SYMBOL "ZDApp_NodeProfileSync"
`??ZDApp_NodeProfileSync::?relay` SYMBOL "?relay", ZDApp_NodeProfileSync
ZDApp_NwkDescListProcessing SYMBOL "ZDApp_NwkDescListProcessing"
`??ZDApp_NwkDescListProcessing::?relay` SYMBOL "?relay", ZDApp_NwkDescListProcessing
ZDApp_NwkStateUpdateCB SYMBOL "ZDApp_NwkStateUpdateCB"
`??ZDApp_NwkStateUpdateCB::?relay` SYMBOL "?relay", ZDApp_NwkStateUpdateCB
ZDApp_ProcessMsgCBs SYMBOL "ZDApp_ProcessMsgCBs"
`??ZDApp_ProcessMsgCBs::?relay` SYMBOL "?relay", ZDApp_ProcessMsgCBs
ZDApp_ProcessNetworkJoin SYMBOL "ZDApp_ProcessNetworkJoin"
`??ZDApp_ProcessNetworkJoin::?relay` SYMBOL "?relay", ZDApp_ProcessNetworkJoin
ZDApp_ProcessOSALMsg SYMBOL "ZDApp_ProcessOSALMsg"
`??ZDApp_ProcessOSALMsg::?relay` SYMBOL "?relay", ZDApp_ProcessOSALMsg
ZDApp_ProcessSecEvent SYMBOL "ZDApp_ProcessSecEvent"
`??ZDApp_ProcessSecEvent::?relay` SYMBOL "?relay", ZDApp_ProcessSecEvent
ZDApp_ProcessSecMsg SYMBOL "ZDApp_ProcessSecMsg"
`??ZDApp_ProcessSecMsg::?relay` SYMBOL "?relay", ZDApp_ProcessSecMsg
ZDApp_ReadNetworkRestoreState SYMBOL "ZDApp_ReadNetworkRestoreState"
`??ZDApp_ReadNetworkRestoreState::?relay` SYMBOL "?relay", ZDApp_ReadNetworkRestoreState
ZDApp_RegisterCBs   SYMBOL "ZDApp_RegisterCBs"
`??ZDApp_RegisterCBs::?relay` SYMBOL "?relay", ZDApp_RegisterCBs
ZDApp_ResetNwkKey   SYMBOL "ZDApp_ResetNwkKey"
`??ZDApp_ResetNwkKey::?relay` SYMBOL "?relay", ZDApp_ResetNwkKey
ZDApp_ResetTimerCancel SYMBOL "ZDApp_ResetTimerCancel"
`??ZDApp_ResetTimerCancel::?relay` SYMBOL "?relay", ZDApp_ResetTimerCancel
ZDApp_ResetTimerStart SYMBOL "ZDApp_ResetTimerStart"
`??ZDApp_ResetTimerStart::?relay` SYMBOL "?relay", ZDApp_ResetTimerStart
ZDApp_RestoreNetworkState SYMBOL "ZDApp_RestoreNetworkState"
`??ZDApp_RestoreNetworkState::?relay` SYMBOL "?relay", ZDApp_RestoreNetworkState
ZDApp_RestoreNwkKey SYMBOL "ZDApp_RestoreNwkKey"
`??ZDApp_RestoreNwkKey::?relay` SYMBOL "?relay", ZDApp_RestoreNwkKey
ZDApp_SaveNetworkStateEvt SYMBOL "ZDApp_SaveNetworkStateEvt"
`??ZDApp_SaveNetworkStateEvt::?relay` SYMBOL "?relay", ZDApp_SaveNetworkStateEvt
ZDApp_SaveNwkKey    SYMBOL "ZDApp_SaveNwkKey"
`??ZDApp_SaveNwkKey::?relay` SYMBOL "?relay", ZDApp_SaveNwkKey
ZDApp_SecInit       SYMBOL "ZDApp_SecInit"
`??ZDApp_SecInit::?relay` SYMBOL "?relay", ZDApp_SecInit
ZDApp_SendEventMsg  SYMBOL "ZDApp_SendEventMsg"
`??ZDApp_SendEventMsg::?relay` SYMBOL "?relay", ZDApp_SendEventMsg
ZDApp_SendMsg       SYMBOL "ZDApp_SendMsg"
`??ZDApp_SendMsg::?relay` SYMBOL "?relay", ZDApp_SendMsg
ZDApp_StartJoiningCycle SYMBOL "ZDApp_StartJoiningCycle"
`??ZDApp_StartJoiningCycle::?relay` SYMBOL "?relay", ZDApp_StartJoiningCycle
ZDApp_StopJoiningCycle SYMBOL "ZDApp_StopJoiningCycle"
`??ZDApp_StopJoiningCycle::?relay` SYMBOL "?relay", ZDApp_StopJoiningCycle
ZDApp_event_loop    SYMBOL "ZDApp_event_loop"
`??ZDApp_event_loop::?relay` SYMBOL "?relay", ZDApp_event_loop
ZDOInitDevice       SYMBOL "ZDOInitDevice"
`??ZDOInitDevice::?relay` SYMBOL "?relay", ZDOInitDevice
ZDO_AddrChangeIndicationCB SYMBOL "ZDO_AddrChangeIndicationCB"
`??ZDO_AddrChangeIndicationCB::?relay` SYMBOL "?relay", ZDO_AddrChangeIndicationCB
ZDO_ConcentratorIndicationCB SYMBOL "ZDO_ConcentratorIndicationCB"
`??ZDO_ConcentratorIndicationCB::?relay` SYMBOL "?relay", ZDO_ConcentratorIndicationCB
ZDO_DeregisterForZdoCB SYMBOL "ZDO_DeregisterForZdoCB"
`??ZDO_DeregisterForZdoCB::?relay` SYMBOL "?relay", ZDO_DeregisterForZdoCB
ZDO_JoinConfirmCB   SYMBOL "ZDO_JoinConfirmCB"
`??ZDO_JoinConfirmCB::?relay` SYMBOL "?relay", ZDO_JoinConfirmCB
ZDO_JoinIndicationCB SYMBOL "ZDO_JoinIndicationCB"
`??ZDO_JoinIndicationCB::?relay` SYMBOL "?relay", ZDO_JoinIndicationCB
ZDO_LeaveCnf        SYMBOL "ZDO_LeaveCnf"
`??ZDO_LeaveCnf::?relay` SYMBOL "?relay", ZDO_LeaveCnf
ZDO_LeaveInd        SYMBOL "ZDO_LeaveInd"
`??ZDO_LeaveInd::?relay` SYMBOL "?relay", ZDO_LeaveInd
ZDO_ManytoOneFailureIndicationCB SYMBOL "ZDO_ManytoOneFailureIndicationCB"
`??ZDO_ManytoOneFailureIndicationCB::?relay` SYMBOL "?relay", ZDO_ManytoOneFailureIndicationCB
ZDO_NetworkDiscoveryConfirmCB SYMBOL "ZDO_NetworkDiscoveryConfirmCB"
`??ZDO_NetworkDiscoveryConfirmCB::?relay` SYMBOL "?relay", ZDO_NetworkDiscoveryConfirmCB
ZDO_NetworkFormationConfirmCB SYMBOL "ZDO_NetworkFormationConfirmCB"
`??ZDO_NetworkFormationConfirmCB::?relay` SYMBOL "?relay", ZDO_NetworkFormationConfirmCB
ZDO_PollConfirmCB   SYMBOL "ZDO_PollConfirmCB"
`??ZDO_PollConfirmCB::?relay` SYMBOL "?relay", ZDO_PollConfirmCB
ZDO_RegisterForZdoCB SYMBOL "ZDO_RegisterForZdoCB"
`??ZDO_RegisterForZdoCB::?relay` SYMBOL "?relay", ZDO_RegisterForZdoCB
ZDO_SrcRtgIndCB     SYMBOL "ZDO_SrcRtgIndCB"
`??ZDO_SrcRtgIndCB::?relay` SYMBOL "?relay", ZDO_SrcRtgIndCB
ZDO_StartRouterConfirmCB SYMBOL "ZDO_StartRouterConfirmCB"
`??ZDO_StartRouterConfirmCB::?relay` SYMBOL "?relay", ZDO_StartRouterConfirmCB
ZDO_SyncIndicationCB SYMBOL "ZDO_SyncIndicationCB"
`??ZDO_SyncIndicationCB::?relay` SYMBOL "?relay", ZDO_SyncIndicationCB
ZDO_UpdateDeviceIndication SYMBOL "ZDO_UpdateDeviceIndication"
`??ZDO_UpdateDeviceIndication::?relay` SYMBOL "?relay", ZDO_UpdateDeviceIndication
ZDO_beaconNotifyIndCB SYMBOL "ZDO_beaconNotifyIndCB"
`??ZDO_beaconNotifyIndCB::?relay` SYMBOL "?relay", ZDO_beaconNotifyIndCB

        EXTERN `??HalKeyRead::?relay`
        FUNCTION `??HalKeyRead::?relay`,00H
        EXTERN `??HalLedBlink::?relay`
        FUNCTION `??HalLedBlink::?relay`,00H
        EXTERN `??HalLedSet::?relay`
        FUNCTION `??HalLedSet::?relay`,00H
        EXTERN `??NLME_GetCoordShortAddr::?relay`
        FUNCTION `??NLME_GetCoordShortAddr::?relay`,00H
        EXTERN `??NLME_GetEnergyThreshold::?relay`
        FUNCTION `??NLME_GetEnergyThreshold::?relay`,00H
        EXTERN `??NLME_GetExtAddr::?relay`
        FUNCTION `??NLME_GetExtAddr::?relay`,00H
        EXTERN `??NLME_GetShortAddr::?relay`
        FUNCTION `??NLME_GetShortAddr::?relay`,00H
        EXTERN `??NLME_InitNV::?relay`
        FUNCTION `??NLME_InitNV::?relay`,00H
        EXTERN `??NLME_JoinRequest::?relay`
        FUNCTION `??NLME_JoinRequest::?relay`,00H
        EXTERN `??NLME_NetworkDiscoveryRequest::?relay`
        FUNCTION `??NLME_NetworkDiscoveryRequest::?relay`,00H
        EXTERN `??NLME_NwkDiscTerm::?relay`
        FUNCTION `??NLME_NwkDiscTerm::?relay`,00H
        EXTERN `??NLME_ReJoinRequest::?relay`
        FUNCTION `??NLME_ReJoinRequest::?relay`,00H
        EXTERN `??NLME_RestoreFromNV::?relay`
        FUNCTION `??NLME_RestoreFromNV::?relay`,00H
        EXTERN `??NLME_SetBroadcastFilter::?relay`
        FUNCTION `??NLME_SetBroadcastFilter::?relay`,00H
        EXTERN `??NLME_SetEnergyThreshold::?relay`
        FUNCTION `??NLME_SetEnergyThreshold::?relay`,00H
        EXTERN `??NLME_SetPollRate::?relay`
        FUNCTION `??NLME_SetPollRate::?relay`,00H
        EXTERN `??NLME_SetQueuedPollRate::?relay`
        FUNCTION `??NLME_SetQueuedPollRate::?relay`,00H
        EXTERN `??NLME_SetResponseRate::?relay`
        FUNCTION `??NLME_SetResponseRate::?relay`,00H
        EXTERN `??RTG_MTORouteReq::?relay`
        FUNCTION `??RTG_MTORouteReq::?relay`,00H
        EXTERN `??SSP_ReadNwkActiveKey::?relay`
        FUNCTION `??SSP_ReadNwkActiveKey::?relay`,00H
        EXTERN `??ZDConfig_InitDescriptors::?relay`
        FUNCTION `??ZDConfig_InitDescriptors::?relay`,00H
        EXTERN `??ZDO_Init::?relay`
        FUNCTION `??ZDO_Init::?relay`,00H
        EXTERN `??ZDO_ParseAddrRsp::?relay`
        FUNCTION `??ZDO_ParseAddrRsp::?relay`,00H
        EXTERN `??ZDO_ParseBindUnbindReq::?relay`
        FUNCTION `??ZDO_ParseBindUnbindReq::?relay`,00H
        EXTERN `??ZDO_ProcessBindUnbindReq::?relay`
        FUNCTION `??ZDO_ProcessBindUnbindReq::?relay`,00H
        EXTERN `??ZDO_RegisterForZDOMsg::?relay`
        FUNCTION `??ZDO_RegisterForZDOMsg::?relay`,00H
        EXTERN `??ZDO_StartDevice::?relay`
        FUNCTION `??ZDO_StartDevice::?relay`,00H
        EXTERN `??ZDO_UpdateAddrManager::?relay`
        FUNCTION `??ZDO_UpdateAddrManager::?relay`,00H
        EXTERN `??ZDO_UpdateNwkStatus::?relay`
        FUNCTION `??ZDO_UpdateNwkStatus::?relay`,00H
        EXTERN `??ZDP_DeviceAnnce::?relay`
        FUNCTION `??ZDP_DeviceAnnce::?relay`,00H
        EXTERN `??ZDP_GenericRsp::?relay`
        FUNCTION `??ZDP_GenericRsp::?relay`,00H
        EXTERN `??ZDP_IncomingData::?relay`
        FUNCTION `??ZDP_IncomingData::?relay`,00H
        EXTERN `??ZDSecMgrInit::?relay`
        FUNCTION `??ZDSecMgrInit::?relay`,00H
        EXTERN `??ZDSecMgrSaveTCLinkKey::?relay`
        FUNCTION `??ZDSecMgrSaveTCLinkKey::?relay`,00H
        EXTERN `??ZDSecMgrSwitchKeyInd::?relay`
        FUNCTION `??ZDSecMgrSwitchKeyInd::?relay`,00H
        EXTERN `??ZDSecMgrTransportKeyInd::?relay`
        FUNCTION `??ZDSecMgrTransportKeyInd::?relay`,00H
        EXTERN `??ZMacSetReq::?relay`
        FUNCTION `??ZMacSetReq::?relay`,00H
        EXTERN `??afRegister::?relay`
        FUNCTION `??afRegister::?relay`,00H
        EXTERN `??afSetMatch::?relay`
        FUNCTION `??afSetMatch::?relay`,00H
        EXTERN `??nwkNeighborInitTable::?relay`
        FUNCTION `??nwkNeighborInitTable::?relay`,00H
        EXTERN `??nwk_ExtPANIDValid::?relay`
        FUNCTION `??nwk_ExtPANIDValid::?relay`,00H
        EXTERN `??nwk_getNwkDescList::?relay`
        FUNCTION `??nwk_getNwkDescList::?relay`,00H
        EXTERN `??osal_get_timeoutEx::?relay`
        FUNCTION `??osal_get_timeoutEx::?relay`,00H
        EXTERN `??osal_mem_alloc::?relay`
        FUNCTION `??osal_mem_alloc::?relay`,00H
        EXTERN `??osal_mem_free::?relay`
        FUNCTION `??osal_mem_free::?relay`,00H
        EXTERN `??osal_memcpy::?relay`
        FUNCTION `??osal_memcpy::?relay`,00H
        EXTERN `??osal_memset::?relay`
        FUNCTION `??osal_memset::?relay`,00H
        EXTERN `??osal_msg_allocate::?relay`
        FUNCTION `??osal_msg_allocate::?relay`,00H
        EXTERN `??osal_msg_deallocate::?relay`
        FUNCTION `??osal_msg_deallocate::?relay`,00H
        EXTERN `??osal_msg_receive::?relay`
        FUNCTION `??osal_msg_receive::?relay`,00H
        EXTERN `??osal_msg_send::?relay`
        FUNCTION `??osal_msg_send::?relay`,00H
        EXTERN `??osal_nv_item_init::?relay`
        FUNCTION `??osal_nv_item_init::?relay`,00H
        EXTERN `??osal_nv_read::?relay`
        FUNCTION `??osal_nv_read::?relay`,00H
        EXTERN `??osal_nv_write::?relay`
        FUNCTION `??osal_nv_write::?relay`,00H
        EXTERN `??osal_pwrmgr_device::?relay`
        FUNCTION `??osal_pwrmgr_device::?relay`,00H
        EXTERN `??osal_rand::?relay`
        FUNCTION `??osal_rand::?relay`,00H
        EXTERN `??osal_set_event::?relay`
        FUNCTION `??osal_set_event::?relay`,00H
        EXTERN `??osal_start_timerEx::?relay`
        FUNCTION `??osal_start_timerEx::?relay`,00H
        EXTERN `??osal_stop_timerEx::?relay`
        FUNCTION `??osal_stop_timerEx::?relay`,00H
        EXTERN `??sAddrExtCmp::?relay`
        FUNCTION `??sAddrExtCmp::?relay`,00H
        EXTERN `??sAddrExtCpy::?relay`
        FUNCTION `??sAddrExtCpy::?relay`,00H
        EXTERN `??zgInitItems::?relay`
        FUNCTION `??zgInitItems::?relay`,00H
        EXTERN `??zgReadStartupOptions::?relay`
        FUNCTION `??zgReadStartupOptions::?relay`,00H
        EXTERN `??zgWriteStartupOptions::?relay`
        FUNCTION `??zgWriteStartupOptions::?relay`,00H
        EXTERN AIB_apsUseExtendedPANID
        EXTERN AIB_apsUseInsecureJoin
        EXTERN HalKeyRead
        FUNCTION HalKeyRead,0202H
        ARGFRAME ISTACK, 2, STACK
        ARGFRAME PSTACK, 0, STACK
        ARGFRAME XSTACK, 0, STACK
        ARGFRAME IOVERLAY, 0, STATIC
        ARGFRAME DOVERLAY, 0, STATIC
        EXTERN HalLedBlink
        FUNCTION HalLedBlink,0202H
        ARGFRAME ISTACK, 0, STACK
        ARGFRAME PSTACK, 0, STACK
        ARGFRAME XSTACK, 9, STACK
        ARGFRAME IOVERLAY, 0, STATIC
        ARGFRAME DOVERLAY, 0, STATIC
        EXTERN HalLedSet
        FUNCTION HalLedSet,0202H
        ARGFRAME ISTACK, 0, STACK
        ARGFRAME PSTACK, 0, STACK
        ARGFRAME XSTACK, 14, STACK
        ARGFRAME IOVERLAY, 0, STATIC
        ARGFRAME DOVERLAY, 0, STATIC
        EXTERN NLME_GetCoordShortAddr
        FUNCTION NLME_GetCoordShortAddr,0202H
        ARGFRAME ISTACK, 0, STACK
        ARGFRAME PSTACK, 0, STACK
        ARGFRAME XSTACK, 10, STACK
        ARGFRAME IOVERLAY, 0, STATIC
        ARGFRAME DOVERLAY, 0, STATIC
        EXTERN NLME_GetEnergyThreshold
        FUNCTION NLME_GetEnergyThreshold,0202H
        ARGFRAME ISTACK, 2, STACK
        ARGFRAME PSTACK, 0, STACK
        ARGFRAME XSTACK, 0, STACK
        ARGFRAME IOVERLAY, 0, STATIC
        ARGFRAME DOVERLAY, 0, STATIC
        EXTERN NLME_GetExtAddr
        FUNCTION NLME_GetExtAddr,0202H
        ARGFRAME ISTACK, 0, STACK
        ARGFRAME PSTACK, 0, STACK
        ARGFRAME XSTACK, 10, STACK
        ARGFRAME IOVERLAY, 0, STATIC
        ARGFRAME DOVERLAY, 0, STATIC
        EXTERN NLME_GetShortAddr
        FUNCTION NLME_GetShortAddr,0202H
        ARGFRAME ISTACK, 0, STACK
        ARGFRAME PSTACK, 0, STACK
        ARGFRAME XSTACK, 12, STACK
        ARGFRAME IOVERLAY, 0, STATIC
        ARGFRAME DOVERLAY, 0, STATIC
        EXTERN NLME_InitNV
        FUNCTION NLME_InitNV,0202H
        ARGFRAME ISTACK, 0, STACK
        ARGFRAME PSTACK, 0, STACK
        ARGFRAME XSTACK, 9, STACK
        ARGFRAME IOVERLAY, 0, STATIC
        ARGFRAME DOVERLAY, 0, STATIC
        EXTERN NLME_JoinRequest
        FUNCTION NLME_JoinRequest,0202H
        ARGFRAME ISTACK, 0, STACK
        ARGFRAME PSTACK, 0, STACK
        ARGFRAME XSTACK, 16, STACK
        ARGFRAME IOVERLAY, 0, STATIC
        ARGFRAME DOVERLAY, 0, STATIC
        EXTERN NLME_NetworkDiscoveryRequest
        FUNCTION NLME_NetworkDiscoveryRequest,0202H
        ARGFRAME ISTACK, 0, STACK
        ARGFRAME PSTACK, 0, STACK
        ARGFRAME XSTACK, 12, STACK
        ARGFRAME IOVERLAY, 0, STATIC
        ARGFRAME DOVERLAY, 0, STATIC
        EXTERN NLME_NwkDiscTerm
        FUNCTION NLME_NwkDiscTerm,0202H
        ARGFRAME ISTACK, 0, STACK
        ARGFRAME PSTACK, 0, STACK
        ARGFRAME XSTACK, 12, STACK
        ARGFRAME IOVERLAY, 0, STATIC
        ARGFRAME DOVERLAY, 0, STATIC
        EXTERN NLME_ReJoinRequest
        FUNCTION NLME_ReJoinRequest,0202H
        ARGFRAME ISTACK, 0, STACK
        ARGFRAME PSTACK, 0, STACK
        ARGFRAME XSTACK, 11, STACK
        ARGFRAME IOVERLAY, 0, STATIC
        ARGFRAME DOVERLAY, 0, STATIC
        EXTERN NLME_RestoreFromNV
        FUNCTION NLME_RestoreFromNV,0202H
        ARGFRAME ISTACK, 0, STACK
        ARGFRAME PSTACK, 0, STACK
        ARGFRAME XSTACK, 9, STACK
        ARGFRAME IOVERLAY, 0, STATIC
        ARGFRAME DOVERLAY, 0, STATIC
        EXTERN NLME_SetBroadcastFilter
        FUNCTION NLME_SetBroadcastFilter,0202H
        ARGFRAME ISTACK, 0, STACK
        ARGFRAME PSTACK, 0, STACK
        ARGFRAME XSTACK, 12, STACK
        ARGFRAME IOVERLAY, 0, STATIC
        ARGFRAME DOVERLAY, 0, STATIC
        EXTERN NLME_SetEnergyThreshold
        FUNCTION NLME_SetEnergyThreshold,0202H
        ARGFRAME ISTACK, 2, STACK
        ARGFRAME PSTACK, 0, STACK
        ARGFRAME XSTACK, 0, STACK
        ARGFRAME IOVERLAY, 0, STATIC
        ARGFRAME DOVERLAY, 0, STATIC
        EXTERN NLME_SetPollRate
        FUNCTION NLME_SetPollRate,0202H
        ARGFRAME ISTACK, 2, STACK
        ARGFRAME PSTACK, 0, STACK
        ARGFRAME XSTACK, 12, STACK
        ARGFRAME IOVERLAY, 0, STATIC
        ARGFRAME DOVERLAY, 0, STATIC
        EXTERN NLME_SetQueuedPollRate
        FUNCTION NLME_SetQueuedPollRate,0202H
        ARGFRAME ISTACK, 0, STACK
        ARGFRAME PSTACK, 0, STACK
        ARGFRAME XSTACK, 12, STACK
        ARGFRAME IOVERLAY, 0, STATIC
        ARGFRAME DOVERLAY, 0, STATIC
        EXTERN NLME_SetResponseRate
        FUNCTION NLME_SetResponseRate,0202H
        ARGFRAME ISTACK, 0, STACK
        ARGFRAME PSTACK, 0, STACK
        ARGFRAME XSTACK, 12, STACK
        ARGFRAME IOVERLAY, 0, STATIC
        ARGFRAME DOVERLAY, 0, STATIC
        EXTERN NWK_TaskID
        EXTERN NwkDescList
        EXTERN Onboard_soft_reset
        FUNCTION Onboard_soft_reset,0202H
        ARGFRAME ISTACK, 0, STACK
        ARGFRAME PSTACK, 0, STACK
        ARGFRAME XSTACK, 12, STACK
        ARGFRAME IOVERLAY, 0, STATIC
        ARGFRAME DOVERLAY, 0, STATIC
        EXTERN RTG_MTORouteReq
        FUNCTION RTG_MTORouteReq,0202H
        ARGFRAME ISTACK, 2, STACK
        ARGFRAME PSTACK, 0, STACK
        ARGFRAME XSTACK, 0, STACK
        ARGFRAME IOVERLAY, 0, STATIC
        ARGFRAME DOVERLAY, 0, STATIC
        EXTERN SSP_ReadNwkActiveKey
        FUNCTION SSP_ReadNwkActiveKey,0202H
        ARGFRAME ISTACK, 0, STACK
        ARGFRAME PSTACK, 0, STACK
        ARGFRAME XSTACK, 33, STACK
        ARGFRAME IOVERLAY, 0, STATIC
        ARGFRAME DOVERLAY, 0, STATIC
        EXTERN ZDConfig_InitDescriptors
        FUNCTION ZDConfig_InitDescriptors,0202H
        ARGFRAME ISTACK, 0, STACK
        ARGFRAME PSTACK, 0, STACK
        ARGFRAME XSTACK, 12, STACK
        ARGFRAME IOVERLAY, 0, STATIC
        ARGFRAME DOVERLAY, 0, STATIC
        EXTERN ZDO_Config_Node_Descriptor
        EXTERN ZDO_Init
        FUNCTION ZDO_Init,0202H
        ARGFRAME ISTACK, 0, STACK
        ARGFRAME PSTACK, 0, STACK
        ARGFRAME XSTACK, 9, STACK
        ARGFRAME IOVERLAY, 0, STATIC
        ARGFRAME DOVERLAY, 0, STATIC
        EXTERN ZDO_ParseAddrRsp
        FUNCTION ZDO_ParseAddrRsp,0202H
        ARGFRAME ISTACK, 0, STACK
        ARGFRAME PSTACK, 0, STACK
        ARGFRAME XSTACK, 31, STACK
        ARGFRAME IOVERLAY, 0, STATIC
        ARGFRAME DOVERLAY, 0, STATIC
        EXTERN ZDO_ParseBindUnbindReq
        FUNCTION ZDO_ParseBindUnbindReq,0202H
        ARGFRAME ISTACK, 0, STACK
        ARGFRAME PSTACK, 0, STACK
        ARGFRAME XSTACK, 31, STACK
        ARGFRAME IOVERLAY, 0, STATIC
        ARGFRAME DOVERLAY, 0, STATIC
        EXTERN ZDO_ProcessBindUnbindReq
        FUNCTION ZDO_ProcessBindUnbindReq,0202H
        ARGFRAME ISTACK, 0, STACK
        ARGFRAME PSTACK, 0, STACK
        ARGFRAME XSTACK, 31, STACK
        ARGFRAME IOVERLAY, 0, STATIC
        ARGFRAME DOVERLAY, 0, STATIC
        EXTERN ZDO_RegisterForZDOMsg
        FUNCTION ZDO_RegisterForZDOMsg,0202H
        ARGFRAME ISTACK, 2, STACK
        ARGFRAME PSTACK, 0, STACK
        ARGFRAME XSTACK, 0, STACK
        ARGFRAME IOVERLAY, 0, STATIC
        ARGFRAME DOVERLAY, 0, STATIC
        EXTERN ZDO_StartDevice
        FUNCTION ZDO_StartDevice,0202H
        ARGFRAME ISTACK, 0, STACK
        ARGFRAME PSTACK, 0, STACK
        ARGFRAME XSTACK, 12, STACK
        ARGFRAME IOVERLAY, 0, STATIC
        ARGFRAME DOVERLAY, 0, STATIC
        EXTERN ZDO_UpdateAddrManager
        FUNCTION ZDO_UpdateAddrManager,0202H
        ARGFRAME ISTACK, 0, STACK
        ARGFRAME PSTACK, 0, STACK
        ARGFRAME XSTACK, 31, STACK
        ARGFRAME IOVERLAY, 0, STATIC
        ARGFRAME DOVERLAY, 0, STATIC
        EXTERN ZDO_UpdateNwkStatus
        FUNCTION ZDO_UpdateNwkStatus,0202H
        ARGFRAME ISTACK, 0, STACK
        ARGFRAME PSTACK, 0, STACK
        ARGFRAME XSTACK, 12, STACK
        ARGFRAME IOVERLAY, 0, STATIC
        ARGFRAME DOVERLAY, 0, STATIC
        EXTERN ZDP_DeviceAnnce
        FUNCTION ZDP_DeviceAnnce,0202H
        ARGFRAME ISTACK, 0, STACK
        ARGFRAME PSTACK, 0, STACK
        ARGFRAME XSTACK, 11, STACK
        ARGFRAME IOVERLAY, 0, STATIC
        ARGFRAME DOVERLAY, 0, STATIC
        EXTERN ZDP_GenericRsp
        FUNCTION ZDP_GenericRsp,0202H
        ARGFRAME ISTACK, 0, STACK
        ARGFRAME PSTACK, 0, STACK
        ARGFRAME XSTACK, 14, STACK
        ARGFRAME IOVERLAY, 0, STATIC
        ARGFRAME DOVERLAY, 0, STATIC
        EXTERN ZDP_IncomingData
        FUNCTION ZDP_IncomingData,0202H
        ARGFRAME ISTACK, 0, STACK
        ARGFRAME PSTACK, 0, STACK
        ARGFRAME XSTACK, 11, STACK
        ARGFRAME IOVERLAY, 0, STATIC
        ARGFRAME DOVERLAY, 0, STATIC
        EXTERN ZDSecMgrInit
        FUNCTION ZDSecMgrInit,0202H
        ARGFRAME ISTACK, 0, STACK
        ARGFRAME PSTACK, 0, STACK
        ARGFRAME XSTACK, 12, STACK
        ARGFRAME IOVERLAY, 0, STATIC
        ARGFRAME DOVERLAY, 0, STATIC
        EXTERN ZDSecMgrSaveTCLinkKey
        FUNCTION ZDSecMgrSaveTCLinkKey,0202H
        ARGFRAME ISTACK, 0, STACK
        ARGFRAME PSTACK, 0, STACK
        ARGFRAME XSTACK, 9, STACK
        ARGFRAME IOVERLAY, 0, STATIC
        ARGFRAME DOVERLAY, 0, STATIC
        EXTERN ZDSecMgrSwitchKeyInd
        FUNCTION ZDSecMgrSwitchKeyInd,0202H
        ARGFRAME ISTACK, 2, STACK
        ARGFRAME PSTACK, 0, STACK
        ARGFRAME XSTACK, 0, STACK
        ARGFRAME IOVERLAY, 0, STATIC
        ARGFRAME DOVERLAY, 0, STATIC
        EXTERN ZDSecMgrTransportKeyInd
        FUNCTION ZDSecMgrTransportKeyInd,0202H
        ARGFRAME ISTACK, 2, STACK
        ARGFRAME PSTACK, 0, STACK
        ARGFRAME XSTACK, 0, STACK
        ARGFRAME IOVERLAY, 0, STATIC
        ARGFRAME DOVERLAY, 0, STATIC
        EXTERN ZMacSetReq
        FUNCTION ZMacSetReq,0202H
        ARGFRAME ISTACK, 0, STACK
        ARGFRAME PSTACK, 0, STACK
        ARGFRAME XSTACK, 12, STACK
        ARGFRAME IOVERLAY, 0, STATIC
        ARGFRAME DOVERLAY, 0, STATIC
        EXTERN _NIB
        EXTERN afRegister
        FUNCTION afRegister,0202H
        ARGFRAME ISTACK, 0, STACK
        ARGFRAME PSTACK, 0, STACK
        ARGFRAME XSTACK, 9, STACK
        ARGFRAME IOVERLAY, 0, STATIC
        ARGFRAME DOVERLAY, 0, STATIC
        EXTERN afSetMatch
        FUNCTION afSetMatch,0202H
        ARGFRAME ISTACK, 0, STACK
        ARGFRAME PSTACK, 0, STACK
        ARGFRAME XSTACK, 9, STACK
        ARGFRAME IOVERLAY, 0, STATIC
        ARGFRAME DOVERLAY, 0, STATIC
        EXTERN gMIN_TREE_LINK_COST
        EXTERN nwkFrameCounter
        EXTERN nwkNeighborInitTable
        FUNCTION nwkNeighborInitTable,0202H
        ARGFRAME ISTACK, 0, STACK
        ARGFRAME PSTACK, 0, STACK
        ARGFRAME XSTACK, 12, STACK
        ARGFRAME IOVERLAY, 0, STATIC
        ARGFRAME DOVERLAY, 0, STATIC
        EXTERN nwk_ExtPANIDValid
        FUNCTION nwk_ExtPANIDValid,0202H
        ARGFRAME ISTACK, 2, STACK
        ARGFRAME PSTACK, 0, STACK
        ARGFRAME XSTACK, 14, STACK
        ARGFRAME IOVERLAY, 0, STATIC
        ARGFRAME DOVERLAY, 0, STATIC
        EXTERN nwk_getNwkDescList
        FUNCTION nwk_getNwkDescList,0202H
        ARGFRAME ISTACK, 0, STACK
        ARGFRAME PSTACK, 0, STACK
        ARGFRAME XSTACK, 14, STACK
        ARGFRAME IOVERLAY, 0, STATIC
        ARGFRAME DOVERLAY, 0, STATIC
        EXTERN osal_get_timeoutEx
        FUNCTION osal_get_timeoutEx,0202H
        ARGFRAME ISTACK, 2, STACK
        ARGFRAME PSTACK, 0, STACK
        ARGFRAME XSTACK, 0, STACK
        ARGFRAME IOVERLAY, 0, STATIC
        ARGFRAME DOVERLAY, 0, STATIC
        EXTERN osal_mem_alloc
        FUNCTION osal_mem_alloc,0202H
        ARGFRAME ISTACK, 0, STACK
        ARGFRAME PSTACK, 0, STACK
        ARGFRAME XSTACK, 14, STACK
        ARGFRAME IOVERLAY, 0, STATIC
        ARGFRAME DOVERLAY, 0, STATIC
        EXTERN osal_mem_free
        FUNCTION osal_mem_free,0202H
        ARGFRAME ISTACK, 0, STACK
        ARGFRAME PSTACK, 0, STACK
        ARGFRAME XSTACK, 31, STACK
        ARGFRAME IOVERLAY, 0, STATIC
        ARGFRAME DOVERLAY, 0, STATIC
        EXTERN osal_memcpy
        FUNCTION osal_memcpy,0202H
        ARGFRAME ISTACK, 0, STACK
        ARGFRAME PSTACK, 0, STACK
        ARGFRAME XSTACK, 19, STACK
        ARGFRAME IOVERLAY, 0, STATIC
        ARGFRAME DOVERLAY, 0, STATIC
        EXTERN osal_memset
        FUNCTION osal_memset,0202H
        ARGFRAME ISTACK, 0, STACK
        ARGFRAME PSTACK, 0, STACK
        ARGFRAME XSTACK, 33, STACK
        ARGFRAME IOVERLAY, 0, STATIC
        ARGFRAME DOVERLAY, 0, STATIC
        EXTERN osal_msg_allocate
        FUNCTION osal_msg_allocate,0202H
        ARGFRAME ISTACK, 0, STACK
        ARGFRAME PSTACK, 0, STACK
        ARGFRAME XSTACK, 16, STACK
        ARGFRAME IOVERLAY, 0, STATIC
        ARGFRAME DOVERLAY, 0, STATIC
        EXTERN osal_msg_deallocate
        FUNCTION osal_msg_deallocate,0202H
        ARGFRAME ISTACK, 0, STACK
        ARGFRAME PSTACK, 0, STACK
        ARGFRAME XSTACK, 12, STACK
        ARGFRAME IOVERLAY, 0, STATIC
        ARGFRAME DOVERLAY, 0, STATIC
        EXTERN osal_msg_receive
        FUNCTION osal_msg_receive,0202H
        ARGFRAME ISTACK, 0, STACK
        ARGFRAME PSTACK, 0, STACK
        ARGFRAME XSTACK, 12, STACK
        ARGFRAME IOVERLAY, 0, STATIC
        ARGFRAME DOVERLAY, 0, STATIC
        EXTERN osal_msg_send
        FUNCTION osal_msg_send,0202H
        ARGFRAME ISTACK, 0, STACK
        ARGFRAME PSTACK, 0, STACK
        ARGFRAME XSTACK, 16, STACK
        ARGFRAME IOVERLAY, 0, STATIC
        ARGFRAME DOVERLAY, 0, STATIC
        EXTERN osal_nv_item_init
        FUNCTION osal_nv_item_init,0202H
        ARGFRAME ISTACK, 0, STACK
        ARGFRAME PSTACK, 0, STACK
        ARGFRAME XSTACK, 29, STACK
        ARGFRAME IOVERLAY, 0, STATIC
        ARGFRAME DOVERLAY, 0, STATIC
        EXTERN osal_nv_read
        FUNCTION osal_nv_read,0202H
        ARGFRAME ISTACK, 0, STACK
        ARGFRAME PSTACK, 0, STACK
        ARGFRAME XSTACK, 37, STACK
        ARGFRAME IOVERLAY, 0, STATIC
        ARGFRAME DOVERLAY, 0, STATIC
        EXTERN osal_nv_write
        FUNCTION osal_nv_write,0202H
        ARGFRAME ISTACK, 0, STACK
        ARGFRAME PSTACK, 0, STACK
        ARGFRAME XSTACK, 37, STACK
        ARGFRAME IOVERLAY, 0, STATIC
        ARGFRAME DOVERLAY, 0, STATIC
        EXTERN osal_pwrmgr_device
        FUNCTION osal_pwrmgr_device,0202H
        ARGFRAME ISTACK, 2, STACK
        ARGFRAME PSTACK, 0, STACK
        ARGFRAME XSTACK, 0, STACK
        ARGFRAME IOVERLAY, 0, STATIC
        ARGFRAME DOVERLAY, 0, STATIC
        EXTERN osal_rand
        FUNCTION osal_rand,0202H
        ARGFRAME ISTACK, 0, STACK
        ARGFRAME PSTACK, 0, STACK
        ARGFRAME XSTACK, 12, STACK
        ARGFRAME IOVERLAY, 0, STATIC
        ARGFRAME DOVERLAY, 0, STATIC
        EXTERN osal_set_event
        FUNCTION osal_set_event,0202H
        ARGFRAME ISTACK, 2, STACK
        ARGFRAME PSTACK, 0, STACK
        ARGFRAME XSTACK, 12, STACK
        ARGFRAME IOVERLAY, 0, STATIC
        ARGFRAME DOVERLAY, 0, STATIC
        EXTERN osal_start_timerEx
        FUNCTION osal_start_timerEx,0202H
        ARGFRAME ISTACK, 2, STACK
        ARGFRAME PSTACK, 0, STACK
        ARGFRAME XSTACK, 12, STACK
        ARGFRAME IOVERLAY, 0, STATIC
        ARGFRAME DOVERLAY, 0, STATIC
        EXTERN osal_stop_timerEx
        FUNCTION osal_stop_timerEx,0202H
        ARGFRAME ISTACK, 2, STACK
        ARGFRAME PSTACK, 0, STACK
        ARGFRAME XSTACK, 0, STACK
        ARGFRAME IOVERLAY, 0, STATIC
        ARGFRAME DOVERLAY, 0, STATIC
        EXTERN sAddrExtCmp
        FUNCTION sAddrExtCmp,0202H
        ARGFRAME ISTACK, 0, STACK
        ARGFRAME PSTACK, 0, STACK
        ARGFRAME XSTACK, 14, STACK
        ARGFRAME IOVERLAY, 0, STATIC
        ARGFRAME DOVERLAY, 0, STATIC
        EXTERN sAddrExtCpy
        FUNCTION sAddrExtCpy,0202H
        ARGFRAME ISTACK, 0, STACK
        ARGFRAME PSTACK, 0, STACK
        ARGFRAME XSTACK, 14, STACK
        ARGFRAME IOVERLAY, 0, STATIC
        ARGFRAME DOVERLAY, 0, STATIC
        EXTERN zgConcentratorEnable
        EXTERN zgConfigPANID
        EXTERN zgDefaultStartingScanDuration
        EXTERN zgDeviceLogicalType
        EXTERN zgInitItems
        FUNCTION zgInitItems,0202H
        ARGFRAME ISTACK, 0, STACK
        ARGFRAME PSTACK, 0, STACK
        ARGFRAME XSTACK, 12, STACK
        ARGFRAME IOVERLAY, 0, STATIC
        ARGFRAME DOVERLAY, 0, STATIC
        EXTERN zgReadStartupOptions
        FUNCTION zgReadStartupOptions,0202H
        ARGFRAME ISTACK, 0, STACK
        ARGFRAME PSTACK, 0, STACK
        ARGFRAME XSTACK, 9, STACK
        ARGFRAME IOVERLAY, 0, STATIC
        ARGFRAME DOVERLAY, 0, STATIC
        EXTERN zgStackProfile
        EXTERN zgWriteStartupOptions
        FUNCTION zgWriteStartupOptions,0202H
        ARGFRAME ISTACK, 0, STACK
        ARGFRAME PSTACK, 0, STACK
        ARGFRAME XSTACK, 12, STACK
        ARGFRAME IOVERLAY, 0, STATIC
        ARGFRAME DOVERLAY, 0, STATIC

// C:\Texas Instruments\ZStack-CC2530-2.4.0-1.4.0\Components\stack\zdo\ZDApp.c
//    1 /**************************************************************************************************
//    2   Filename:       ZDApp.c
//    3   Revised:        $Date: 2010-09-17 16:25:30 -0700 (Fri, 17 Sep 2010) $
//    4   Revision:       $Revision: 23835 $
//    5 
//    6   Description:    This file contains the interface to the Zigbee Device Application. This is the
//    7                   Application part that the user can change. This also contains the Task functions.
//    8 
//    9 
//   10   Copyright 2004-2010 Texas Instruments Incorporated. All rights reserved.
//   11 
//   12   IMPORTANT: Your use of this Software is limited to those specific rights
//   13   granted under the terms of a software license agreement between the user
//   14   who downloaded the software, his/her employer (which must be your employer)
//   15   and Texas Instruments Incorporated (the "License").  You may not use this
//   16   Software unless you agree to abide by the terms of the License. The License
//   17   limits your use, and you acknowledge, that the Software may not be modified,
//   18   copied or distributed unless embedded on a Texas Instruments microcontroller
//   19   or used solely and exclusively in conjunction with a Texas Instruments radio
//   20   frequency transceiver, which is integrated into your product.  Other than for
//   21   the foregoing purpose, you may not use, reproduce, copy, prepare derivative
//   22   works of, modify, distribute, perform, display or sell this Software and/or
//   23   its documentation for any purpose.
//   24 
//   25   YOU FURTHER ACKNOWLEDGE AND AGREE THAT THE SOFTWARE AND DOCUMENTATION ARE
//   26   PROVIDED AS IS WITHOUT WARRANTY OF ANY KIND, EITHER EXPRESS OR IMPLIED,
//   27   INCLUDING WITHOUT LIMITATION, ANY WARRANTY OF MERCHANTABILITY, TITLE, 
//   28   NON-INFRINGEMENT AND FITNESS FOR A PARTICULAR PURPOSE. IN NO EVENT SHALL
//   29   TEXAS INSTRUMENTS OR ITS LICENSORS BE LIABLE OR OBLIGATED UNDER CONTRACT,
//   30   NEGLIGENCE, STRICT LIABILITY, CONTRIBUTION, BREACH OF WARRANTY, OR OTHER
//   31   LEGAL EQUITABLE THEORY ANY DIRECT OR INDIRECT DAMAGES OR EXPENSES
//   32   INCLUDING BUT NOT LIMITED TO ANY INCIDENTAL, SPECIAL, INDIRECT, PUNITIVE
//   33   OR CONSEQUENTIAL DAMAGES, LOST PROFITS OR LOST DATA, COST OF PROCUREMENT
//   34   OF SUBSTITUTE GOODS, TECHNOLOGY, SERVICES, OR ANY CLAIMS BY THIRD PARTIES
//   35   (INCLUDING BUT NOT LIMITED TO ANY DEFENSE THEREOF), OR OTHER SIMILAR COSTS.
//   36 
//   37   Should you have any questions regarding your right to use this Software,
//   38   contact Texas Instruments Incorporated at www.TI.com. 
//   39 **************************************************************************************************/
//   40 
//   41 /*********************************************************************
//   42  * INCLUDES
//   43  */
//   44 
//   45 #include "ZComDef.h"
//   46 #include "ZMac.h"
//   47 #include "OSAL.h"
//   48 #include "OSAL_Tasks.h"
//   49 #include "OSAL_PwrMgr.h"
//   50 #include "OSAL_Nv.h"
//   51 #include "AF.h"
//   52 #include "APSMEDE.h"
//   53 #include "NLMEDE.h"
//   54 #include "AddrMgr.h"
//   55 #include "ZDProfile.h"
//   56 #include "ZDObject.h"
//   57 #include "ZDConfig.h"
//   58 #include "ZDSecMgr.h"
//   59 #include "ZDApp.h"
//   60 #include "DebugTrace.h"
//   61 #include "nwk_util.h"
//   62 #include "OnBoard.h"
//   63 #include "ZGlobals.h"
//   64 #include "ZDNwkMgr.h"
//   65 #include "rtg.h"
//   66 
//   67 #include "ssp.h"
//   68 
//   69 /* HAL */
//   70 #include "hal_led.h"
//   71 #include "hal_lcd.h"
//   72 #include "hal_key.h"
//   73 
//   74 #if defined( MT_MAC_FUNC ) || defined( MT_MAC_CB_FUNC )
//   75   #error "ERROR! MT_MAC functionalities should be disabled on ZDO devices"
//   76 #endif
//   77 
//   78 /*********************************************************************
//   79  * CONSTANTS
//   80  */
//   81 
//   82 #if !defined( NWK_START_DELAY )
//   83   #define NWK_START_DELAY             100   // in milliseconds
//   84 #endif
//   85 
//   86 // Init ZDO, but hold and wait for application to start the joining or 
//   87 // forming network
//   88 #define ZDO_INIT_HOLD_NWK_START       0xFFFF  
//   89 
//   90 #if !defined( EXTENDED_JOINING_RANDOM_MASK )
//   91   #define EXTENDED_JOINING_RANDOM_MASK 0x007F
//   92 #endif
//   93 
//   94 #if !defined( BEACON_REQUEST_DELAY )
//   95   #define BEACON_REQUEST_DELAY        100   // in milliseconds
//   96 #endif
//   97 
//   98 #if !defined( BEACON_REQ_DELAY_MASK )
//   99   #define BEACON_REQ_DELAY_MASK       0x007F
//  100 #endif
//  101 
//  102 #define MAX_RESUME_RETRY            3
//  103 
//  104 #define MAX_DEVICE_UNAUTH_TIMEOUT   5000  // 5 seconds
//  105 
//  106 // Beacon Order Settings (see NLMEDE.h)
//  107 #define DEFAULT_BEACON_ORDER        BEACON_ORDER_NO_BEACONS
//  108 #define DEFAULT_SUPERFRAME_ORDER    DEFAULT_BEACON_ORDER
//  109 
//  110 #if !defined( MAX_NWK_FRAMECOUNTER_CHANGES )
//  111   // The number of times the frame counter can change before
//  112   // saving to NV
//  113   #define MAX_NWK_FRAMECOUNTER_CHANGES    1000
//  114 #endif
//  115 
//  116 // Leave control bits
//  117 #define ZDAPP_LEAVE_CTRL_INIT 0
//  118 #define ZDAPP_LEAVE_CTRL_SET  1
//  119 #define ZDAPP_LEAVE_CTRL_RA   2
//  120 
//  121 // Address Manager Stub Implementation
//  122 #define ZDApp_NwkWriteNVRequest AddrMgrWriteNVRequest
//  123 
//  124 
//  125 #if !defined ZDO_NV_SAVE_RFDs
//  126 #define ZDO_NV_SAVE_RFDs  TRUE
//  127 #endif
//  128 
//  129 // Delay time before updating NWK NV data to force fewer writes during high activity.
//  130 #if ZDO_NV_SAVE_RFDs
//  131 #define ZDAPP_UPDATE_NWK_NV_TIME 700
//  132 #else
//  133 #define ZDAPP_UPDATE_NWK_NV_TIME 65000
//  134 #endif
//  135 
//  136 /*********************************************************************
//  137  * GLOBAL VARIABLES
//  138  */
//  139 
//  140 #if defined( LCD_SUPPORTED )
//  141   uint8 MatchRsps = 0;
//  142 #endif
//  143 

        RSEG XDATA_I:XDATA:NOROOT(0)
//  144 uint8 zdoDiscCounter = 1;
zdoDiscCounter:
        DATA8
        DS 1
        REQUIRE `?<Initializer for zdoDiscCounter>`
        REQUIRE __INIT_XDATA_I
//  145 

        RSEG XDATA_Z:XDATA:NOROOT(0)
        DATA8
//  146 zAddrType_t ZDAppNwkAddr;
ZDAppNwkAddr:
        DS 9
        REQUIRE __INIT_XDATA_Z
//  147 

        RSEG XDATA_Z:XDATA:NOROOT(0)
        DATA8
//  148 uint8 zdappMgmtNwkDiscRspTransSeq;
zdappMgmtNwkDiscRspTransSeq:
        DS 1
        REQUIRE __INIT_XDATA_Z

        RSEG XDATA_Z:XDATA:NOROOT(0)
        DATA8
//  149 uint8 zdappMgmtNwkDiscReqInProgress = FALSE;
zdappMgmtNwkDiscReqInProgress:
        DS 1
        REQUIRE __INIT_XDATA_Z

        RSEG XDATA_Z:XDATA:NOROOT(0)
        DATA8
//  150 zAddrType_t zdappMgmtNwkDiscRspAddr;
zdappMgmtNwkDiscRspAddr:
        DS 9
        REQUIRE __INIT_XDATA_Z

        RSEG XDATA_Z:XDATA:NOROOT(0)
        DATA8
//  151 uint8 zdappMgmtNwkDiscStartIndex;
zdappMgmtNwkDiscStartIndex:
        DS 1
        REQUIRE __INIT_XDATA_Z

        RSEG XDATA_Z:XDATA:NOROOT(0)
        DATA8
//  152 uint8 zdappMgmtSavedNwkState;
zdappMgmtSavedNwkState:
        DS 1
        REQUIRE __INIT_XDATA_Z
//  153 

        RSEG XDATA_Z:XDATA:NOROOT(0)
        DATA16
//  154 uint16 nwkFrameCounterChanges = 0;
nwkFrameCounterChanges:
        DS 2
        REQUIRE __INIT_XDATA_Z

        RSEG XDATA_I:XDATA:NOROOT(0)
//  155 uint8 continueJoining = TRUE;
continueJoining:
        DATA8
        DS 1
        REQUIRE `?<Initializer for continueJoining>`
        REQUIRE __INIT_XDATA_I
//  156 

        RSEG XDATA_Z:XDATA:NOROOT(0)
        DATA8
//  157 uint8  _tmpRejoinState;
_tmpRejoinState:
        DS 1
        REQUIRE __INIT_XDATA_Z
//  158 
//  159 // The extended PanID used in ZDO layer for rejoin.

        RSEG XDATA_Z:XDATA:NOROOT(0)
        DATA8
//  160 uint8 ZDO_UseExtendedPANID[Z_EXTADDR_LEN];
ZDO_UseExtendedPANID:
        DS 8
        REQUIRE __INIT_XDATA_Z
//  161 

        RSEG XDATA_Z:XDATA:NOROOT(0)
        DATA8
//  162 pfnZdoCb zdoCBFunc[MAX_ZDO_CB_FUNC];
zdoCBFunc:
        DS 10
        REQUIRE __INIT_XDATA_Z
//  163 
//  164 /*********************************************************************
//  165  * EXTERNAL VARIABLES
//  166  */
//  167 
//  168 /*********************************************************************
//  169  * EXTERNAL FUNCTIONS
//  170  */
//  171 
//  172 /*********************************************************************
//  173  * LOCAL FUNCTIONS
//  174  */
//  175 
//  176 void ZDApp_NetworkStartEvt( void );
//  177 void ZDApp_DeviceAuthEvt( void );
//  178 void ZDApp_SaveNetworkStateEvt( void );
//  179 
//  180 uint8 ZDApp_ReadNetworkRestoreState( void );
//  181 uint8 ZDApp_RestoreNetworkState( void );
//  182 void ZDAppDetermineDeviceType( void );
//  183 void ZDApp_InitUserDesc( void );
//  184 void ZDAppCheckForHoldKey( void );
//  185 void ZDApp_ProcessOSALMsg( osal_event_hdr_t *msgPtr );
//  186 void ZDApp_ProcessNetworkJoin( void );
//  187 void ZDApp_SetCoordAddress( uint8 endPoint, uint8 dstEP );
//  188 void ZDApp_SaveNwkKey( void );
//  189 uint8 ZDApp_RestoreNwkKey( void );
//  190 networkDesc_t* ZDApp_NwkDescListProcessing(void);  
//  191 
//  192 void ZDApp_SecInit( uint8 state );
//  193 UINT16 ZDApp_ProcessSecEvent( uint8 task_id, UINT16 events );
//  194 void ZDApp_ProcessSecMsg( osal_event_hdr_t *msgPtr );
//  195 
//  196 void ZDApp_SendMsg( uint8 taskID, uint8 cmd, uint8 len, uint8 *buf );
//  197 
//  198 void ZDApp_ResetTimerStart( uint16 delay );
//  199 void ZDApp_ResetTimerCancel( void );
//  200 void ZDApp_LeaveCtrlInit( void );
//  201 void ZDApp_LeaveCtrlSet( uint8 ra );
//  202 uint8 ZDApp_LeaveCtrlBypass( void );
//  203 void ZDApp_LeaveCtrlStartup( devStates_t* state, uint16* startDelay );
//  204 void ZDApp_LeaveReset( uint8 ra );
//  205 void ZDApp_LeaveUpdate( uint16 nwkAddr, uint8* extAddr,
//  206                         uint8 removeChildren );
//  207 void ZDApp_NodeProfileSync( uint8 stackProfile );
//  208 void ZDApp_ProcessMsgCBs( zdoIncomingMsg_t *inMsg );
//  209 void ZDApp_RegisterCBs( void );
//  210 void ZDApp_InitZdoCBFunc(void);
//  211 
//  212 /*********************************************************************
//  213  * LOCAL VARIABLES
//  214  */
//  215 

        RSEG XDATA_Z:XDATA:NOROOT(0)
        DATA8
//  216 uint8 ZDAppTaskID;
ZDAppTaskID:
        DS 1
        REQUIRE __INIT_XDATA_Z

        RSEG XDATA_Z:XDATA:NOROOT(0)
        DATA8
//  217 uint8 nwkStatus;
nwkStatus:
        DS 1
        REQUIRE __INIT_XDATA_Z

        RSEG XDATA_Z:XDATA:NOROOT(0)
        DATA16
//  218 endPointDesc_t *ZDApp_AutoFindMode_epDesc = (endPointDesc_t *)NULL;
ZDApp_AutoFindMode_epDesc:
        DS 2
        REQUIRE __INIT_XDATA_Z

        RSEG XDATA_Z:XDATA:NOROOT(0)
        DATA8
//  219 uint8 ZDApp_LeaveCtrl;
ZDApp_LeaveCtrl:
        DS 1
        REQUIRE __INIT_XDATA_Z
//  220 
//  221 #if defined( HOLD_AUTO_START )

        RSEG XDATA_Z:XDATA:NOROOT(0)
        DATA8
//  222   devStates_t devState = DEV_HOLD;
devState:
        DS 1
        REQUIRE __INIT_XDATA_Z
//  223 #else
//  224   devStates_t devState = DEV_INIT;
//  225 #endif
//  226 
//  227 #if ( ZG_BUILD_RTRONLY_TYPE ) || ( ZG_BUILD_ENDDEVICE_TYPE )

        RSEG XDATA_Z:XDATA:NOROOT(0)
        DATA8
//  228   devStartModes_t devStartMode = MODE_JOIN;     // Assume joining
devStartMode:
        DS 1
        REQUIRE __INIT_XDATA_Z
//  229   //devStartModes_t devStartMode = MODE_RESUME; // if already "directly joined"
//  230                         // to parent. Set to make the device do an Orphan scan.
//  231 #else
//  232   // Set the default to coodinator
//  233   devStartModes_t devStartMode = MODE_HARD;
//  234 #endif
//  235 

        RSEG XDATA_Z:XDATA:NOROOT(0)
        DATA8
//  236 uint8 retryCnt;
retryCnt:
        DS 1
        REQUIRE __INIT_XDATA_Z
//  237 

        RSEG XDATA_I:XDATA:NOROOT(0)
//  238 endPointDesc_t ZDApp_epDesc =
ZDApp_epDesc:
        DATA8
        DS 6
        REQUIRE `?<Initializer for ZDApp_epDesc>`
        REQUIRE __INIT_XDATA_I
//  239 {
//  240   ZDO_EP,
//  241   &ZDAppTaskID,
//  242   (SimpleDescriptionFormat_t *)NULL,  // No Simple description for ZDO
//  243   (afNetworkLatencyReq_t)0            // No Network Latency req
//  244 };
//  245 

        RSEG XDATA_I:XDATA:NOROOT(0)
//  246 uint16 ZDApp_SavedPollRate = POLL_RATE;
ZDApp_SavedPollRate:
        DATA16
        DS 2
        REQUIRE `?<Initializer for ZDApp_SavedPollRate>`
        REQUIRE __INIT_XDATA_I
//  247 
//  248 /*********************************************************************
//  249  * @fn      ZDApp_Init
//  250  *
//  251  * @brief   ZDApp Initialization function.
//  252  *
//  253  * @param   task_id - ZDApp Task ID
//  254  *
//  255  * @return  None
//  256  */

        RSEG BANKED_CODE:HUGECODE:NOROOT(0)
//  257 void ZDApp_Init( uint8 task_id )
ZDApp_Init:
          CFI Block cfiBlock0 Using cfiCommon0
          CFI Function ZDApp_Init
        CODE
//  258 {
        FUNCALL ZDApp_Init, NLME_GetExtAddr
        LOCFRAME ISTACK, 0, STACK
        LOCFRAME PSTACK, 0, STACK
        LOCFRAME XSTACK, 9, STACK
        LOCFRAME IOVERLAY, 0, STATIC
        LOCFRAME DOVERLAY, 0, STATIC
        ARGFRAME ISTACK, 0, STACK
        ARGFRAME PSTACK, 0, STACK
        ARGFRAME XSTACK, 9, STACK
        ARGFRAME IOVERLAY, 0, STATIC
        ARGFRAME DOVERLAY, 0, STATIC
        FUNCALL ZDApp_Init, ZDAppCheckForHoldKey
        LOCFRAME ISTACK, 0, STACK
        LOCFRAME PSTACK, 0, STACK
        LOCFRAME XSTACK, 9, STACK
        LOCFRAME IOVERLAY, 0, STATIC
        LOCFRAME DOVERLAY, 0, STATIC
        ARGFRAME ISTACK, 0, STACK
        ARGFRAME PSTACK, 0, STACK
        ARGFRAME XSTACK, 9, STACK
        ARGFRAME IOVERLAY, 0, STATIC
        ARGFRAME DOVERLAY, 0, STATIC
        FUNCALL ZDApp_Init, ZDO_Init
        LOCFRAME ISTACK, 0, STACK
        LOCFRAME PSTACK, 0, STACK
        LOCFRAME XSTACK, 9, STACK
        LOCFRAME IOVERLAY, 0, STATIC
        LOCFRAME DOVERLAY, 0, STATIC
        ARGFRAME ISTACK, 0, STACK
        ARGFRAME PSTACK, 0, STACK
        ARGFRAME XSTACK, 9, STACK
        ARGFRAME IOVERLAY, 0, STATIC
        ARGFRAME DOVERLAY, 0, STATIC
        FUNCALL ZDApp_Init, afRegister
        LOCFRAME ISTACK, 0, STACK
        LOCFRAME PSTACK, 0, STACK
        LOCFRAME XSTACK, 9, STACK
        LOCFRAME IOVERLAY, 0, STATIC
        LOCFRAME DOVERLAY, 0, STATIC
        ARGFRAME ISTACK, 0, STACK
        ARGFRAME PSTACK, 0, STACK
        ARGFRAME XSTACK, 9, STACK
        ARGFRAME IOVERLAY, 0, STATIC
        ARGFRAME DOVERLAY, 0, STATIC
        FUNCALL ZDApp_Init, ZDOInitDevice
        LOCFRAME ISTACK, 0, STACK
        LOCFRAME PSTACK, 0, STACK
        LOCFRAME XSTACK, 9, STACK
        LOCFRAME IOVERLAY, 0, STATIC
        LOCFRAME DOVERLAY, 0, STATIC
        ARGFRAME ISTACK, 0, STACK
        ARGFRAME PSTACK, 0, STACK
        ARGFRAME XSTACK, 9, STACK
        ARGFRAME IOVERLAY, 0, STATIC
        ARGFRAME DOVERLAY, 0, STATIC
        FUNCALL ZDApp_Init, ZDOInitDevice
        LOCFRAME ISTACK, 0, STACK
        LOCFRAME PSTACK, 0, STACK
        LOCFRAME XSTACK, 9, STACK
        LOCFRAME IOVERLAY, 0, STATIC
        LOCFRAME DOVERLAY, 0, STATIC
        ARGFRAME ISTACK, 0, STACK
        ARGFRAME PSTACK, 0, STACK
        ARGFRAME XSTACK, 9, STACK
        ARGFRAME IOVERLAY, 0, STATIC
        ARGFRAME DOVERLAY, 0, STATIC
        FUNCALL ZDApp_Init, HalLedBlink
        LOCFRAME ISTACK, 0, STACK
        LOCFRAME PSTACK, 0, STACK
        LOCFRAME XSTACK, 9, STACK
        LOCFRAME IOVERLAY, 0, STATIC
        LOCFRAME DOVERLAY, 0, STATIC
        ARGFRAME ISTACK, 0, STACK
        ARGFRAME PSTACK, 0, STACK
        ARGFRAME XSTACK, 9, STACK
        ARGFRAME IOVERLAY, 0, STATIC
        ARGFRAME DOVERLAY, 0, STATIC
        FUNCALL ZDApp_Init, ZDApp_InitZdoCBFunc
        LOCFRAME ISTACK, 0, STACK
        LOCFRAME PSTACK, 0, STACK
        LOCFRAME XSTACK, 9, STACK
        LOCFRAME IOVERLAY, 0, STATIC
        LOCFRAME DOVERLAY, 0, STATIC
        ARGFRAME ISTACK, 0, STACK
        ARGFRAME PSTACK, 0, STACK
        ARGFRAME XSTACK, 9, STACK
        ARGFRAME IOVERLAY, 0, STATIC
        ARGFRAME DOVERLAY, 0, STATIC
        FUNCALL ZDApp_Init, ZDApp_RegisterCBs
        LOCFRAME ISTACK, 0, STACK
        LOCFRAME PSTACK, 0, STACK
        LOCFRAME XSTACK, 9, STACK
        LOCFRAME IOVERLAY, 0, STATIC
        LOCFRAME DOVERLAY, 0, STATIC
        ARGFRAME ISTACK, 0, STACK
        ARGFRAME PSTACK, 0, STACK
        ARGFRAME XSTACK, 9, STACK
        ARGFRAME IOVERLAY, 0, STATIC
        ARGFRAME DOVERLAY, 0, STATIC
        MOV     A,#-0x9
        LCALL   ?BANKED_ENTER_XDATA
          CFI DPH0 load(1, XDATA, add(CFA_XSP16, literal(-1)))
          CFI DPL0 load(1, XDATA, add(CFA_XSP16, literal(-2)))
          CFI ?BRET_EXT load(1, XDATA, add(CFA_XSP16, literal(-3)))
          CFI ?RET_HIGH load(1, XDATA, add(CFA_XSP16, literal(-4)))
          CFI ?RET_LOW load(1, XDATA, add(CFA_XSP16, literal(-5)))
          CFI R7 load(1, XDATA, add(CFA_XSP16, literal(-6)))
          CFI V0 load(1, XDATA, add(CFA_XSP16, literal(-7)))
          CFI VB load(1, XDATA, add(CFA_XSP16, literal(-8)))
          CFI R6 load(1, XDATA, add(CFA_XSP16, literal(-9)))
          CFI CFA_SP SP+0
          CFI CFA_XSP16 add(XSP16, 9)
        ; Saved register size: 9
        ; Auto size: 0
        MOV     A,R1
//  259   // Save the task ID
//  260   ZDAppTaskID = task_id;
        MOV     DPTR,#ZDAppTaskID
        MOVX    @DPTR,A
//  261 
//  262   // Initialize the ZDO global device short address storage
//  263   ZDAppNwkAddr.addrMode = Addr16Bit;
        MOV     DPTR,#ZDAppNwkAddr + 8
        MOV     A,#0x2
        MOVX    @DPTR,A
//  264   ZDAppNwkAddr.addr.shortAddr = INVALID_NODE_ADDR;
        MOV     DPTR,#ZDAppNwkAddr
        MOV     A,#-0x2
        MOVX    @DPTR,A
        INC     DPTR
        INC     A
        MOVX    @DPTR,A
//  265   (void)NLME_GetExtAddr();  // Load the saveExtAddr pointer.
        ; Setup parameters for call to function NLME_GetExtAddr
        LCALL   `??NLME_GetExtAddr::?relay`; Banked call to: NLME_GetExtAddr
//  266 
//  267   // Check for manual "Hold Auto Start"
//  268   ZDAppCheckForHoldKey();
        ; Setup parameters for call to function ZDAppCheckForHoldKey
        LCALL   `??ZDAppCheckForHoldKey::?relay`; Banked call to: ZDAppCheckForHoldKey
//  269 
//  270   // Initialize ZDO items and setup the device - type of device to create.
//  271   ZDO_Init();
        ; Setup parameters for call to function ZDO_Init
        LCALL   `??ZDO_Init::?relay` ; Banked call to: ZDO_Init
//  272 
//  273   // Register the endpoint description with the AF
//  274   // This task doesn't have a Simple description, but we still need
//  275   // to register the endpoint.
//  276   afRegister( (endPointDesc_t *)&ZDApp_epDesc );
        ; Setup parameters for call to function afRegister
        MOV     R2,#ZDApp_epDesc & 0xff
        MOV     R3,#(ZDApp_epDesc >> 8) & 0xff
        LCALL   `??afRegister::?relay`; Banked call to: afRegister
//  277 
//  278 #if defined( ZDO_USERDESC_RESPONSE )
//  279   ZDApp_InitUserDesc();
//  280 #endif // ZDO_USERDESC_RESPONSE
//  281 
//  282   // Start the device?
//  283   if ( devState != DEV_HOLD )
        MOV     DPTR,#devState
        MOVX    A,@DPTR
        JZ      ??ZDApp_Init_0
//  284   {
//  285     ZDOInitDevice( 0 );
        ; Setup parameters for call to function ZDOInitDevice
        MOV     R2,#0x0
        MOV     R3,#0x0
        LCALL   `??ZDOInitDevice::?relay`; Banked call to: ZDOInitDevice
        SJMP    ??ZDApp_Init_1
//  286   }
//  287   else
//  288   {
//  289     ZDOInitDevice( ZDO_INIT_HOLD_NWK_START );
??ZDApp_Init_0:
        ; Setup parameters for call to function ZDOInitDevice
        MOV     R2,#-0x1
        MOV     R3,#-0x1
        LCALL   `??ZDOInitDevice::?relay`; Banked call to: ZDOInitDevice
//  290     // Blink LED to indicate HOLD_START
//  291     HalLedBlink ( HAL_LED_4, 0, 50, 500 );
        ; Setup parameters for call to function HalLedBlink
        MOV     R4,#-0xc
        MOV     R5,#0x1
        MOV     R3,#0x32
        MOV     R2,#0x0
        MOV     R1,#0x8
        LCALL   `??HalLedBlink::?relay`; Banked call to: HalLedBlink
//  292   }
//  293   
//  294   // Initialize the ZDO callback function pointers zdoCBFunc[]
//  295   ZDApp_InitZdoCBFunc();
??ZDApp_Init_1:
        ; Setup parameters for call to function ZDApp_InitZdoCBFunc
        LCALL   `??ZDApp_InitZdoCBFunc::?relay`; Banked call to: ZDApp_InitZdoCBFunc
//  296   
//  297   ZDApp_RegisterCBs();
        ; Setup parameters for call to function ZDApp_RegisterCBs
        LCALL   `??ZDApp_RegisterCBs::?relay`; Banked call to: ZDApp_RegisterCBs
//  298 } /* ZDApp_Init() */
        LJMP    ??Subroutine38_0 & 0xFFFF
          CFI EndBlock cfiBlock0
//  299 
//  300 /*********************************************************************
//  301  * @fn          ZDApp_SecInit
//  302  *
//  303  * @brief       ZDApp initialize security.
//  304  *
//  305  * @param       state - device initialization state
//  306  *
//  307  * @return      none
//  308  */

        RSEG BANKED_CODE:HUGECODE:NOROOT(0)
//  309 void ZDApp_SecInit( uint8 state )
ZDApp_SecInit:
          CFI Block cfiBlock1 Using cfiCommon0
          CFI Function ZDApp_SecInit
        CODE
//  310 {  
        FUNCALL ZDApp_SecInit, ZDSecMgrInit
        LOCFRAME ISTACK, 0, STACK
        LOCFRAME PSTACK, 0, STACK
        LOCFRAME XSTACK, 9, STACK
        LOCFRAME IOVERLAY, 0, STATIC
        LOCFRAME DOVERLAY, 0, STATIC
        ARGFRAME ISTACK, 0, STACK
        ARGFRAME PSTACK, 0, STACK
        ARGFRAME XSTACK, 9, STACK
        ARGFRAME IOVERLAY, 0, STATIC
        ARGFRAME DOVERLAY, 0, STATIC
        MOV     A,#-0x9
        LCALL   ?BANKED_ENTER_XDATA
          CFI DPH0 load(1, XDATA, add(CFA_XSP16, literal(-1)))
          CFI DPL0 load(1, XDATA, add(CFA_XSP16, literal(-2)))
          CFI ?BRET_EXT load(1, XDATA, add(CFA_XSP16, literal(-3)))
          CFI ?RET_HIGH load(1, XDATA, add(CFA_XSP16, literal(-4)))
          CFI ?RET_LOW load(1, XDATA, add(CFA_XSP16, literal(-5)))
          CFI R7 load(1, XDATA, add(CFA_XSP16, literal(-6)))
          CFI V0 load(1, XDATA, add(CFA_XSP16, literal(-7)))
          CFI VB load(1, XDATA, add(CFA_XSP16, literal(-8)))
          CFI R6 load(1, XDATA, add(CFA_XSP16, literal(-9)))
          CFI CFA_SP SP+0
          CFI CFA_XSP16 add(XSP16, 9)
        ; Saved register size: 9
        ; Auto size: 0
//  311   uint8 zgPreConfigKey[SEC_KEY_LEN];
//  312 
//  313   if ( ZG_SECURE_ENABLED && ZG_BUILD_COORDINATOR_TYPE && ZG_DEVICE_COORDINATOR_TYPE )
//  314   {
//  315     // Set the Trust Center bit
//  316     ZDO_Config_Node_Descriptor.ServerMask |= PRIM_TRUST_CENTER;
//  317   }
//  318 
//  319   if ( ZG_CHECK_SECURITY_MODE == ZG_SECURITY_PRO_HIGH )
//  320   {
//  321     ZDO_Config_Node_Descriptor.CapabilityFlags |= CAPINFO_SECURITY_CAPABLE;
//  322   }
//  323     
//  324   // Initialize ZigBee Device Security Manager
//  325   ZDSecMgrInit(state);
        ; Setup parameters for call to function ZDSecMgrInit
        LCALL   `??ZDSecMgrInit::?relay`; Banked call to: ZDSecMgrInit
//  326 
//  327   if ( ZG_SECURE_ENABLED )
//  328   {
//  329     if ( state != ZDO_INITDEV_RESTORED_NETWORK_STATE )
//  330     {
//  331       nwkFrameCounter = 0;
//  332   
//  333       if( _NIB.nwkKeyLoaded == FALSE )
//  334       {
//  335         if ( ( ZG_BUILD_COORDINATOR_TYPE && ZG_DEVICE_COORDINATOR_TYPE          ) ||
//  336              ( ( zgSecurityMode == ZG_SECURITY_RESIDENTIAL ) && zgPreConfigKeys )    )
//  337         {
//  338             ZDSecMgrReadKeyFromNv(ZCD_NV_PRECFGKEY, zgPreConfigKey);
//  339             SSP_UpdateNwkKey( zgPreConfigKey, 0);
//  340             SSP_SwitchNwkKey( 0 );
//  341             
//  342             // clear local copy of key
//  343             osal_memset(zgPreConfigKey, 0x00, SEC_KEY_LEN);
//  344         }
//  345       }
//  346     }
//  347   }    
//  348 }
        LJMP    ??Subroutine38_0 & 0xFFFF
          CFI EndBlock cfiBlock1
//  349 
//  350 /*********************************************************************
//  351  * @fn      ZDApp_event_loop()
//  352  *
//  353  * @brief   Main event loop for Zigbee device objects task. This function
//  354  *          should be called at periodic intervals.
//  355  *
//  356  * @param   task_id - Task ID
//  357  * @param   events  - Bitmap of events
//  358  *
//  359  * @return  none
//  360  */

        RSEG BANKED_CODE:HUGECODE:NOROOT(0)
//  361 UINT16 ZDApp_event_loop( uint8 task_id, UINT16 events )
ZDApp_event_loop:
          CFI Block cfiBlock2 Using cfiCommon0
          CFI Function ZDApp_event_loop
        CODE
//  362 {
        FUNCALL ZDApp_event_loop, ZDO_StartDevice
        LOCFRAME ISTACK, 0, STACK
        LOCFRAME PSTACK, 0, STACK
        LOCFRAME XSTACK, 12, STACK
        LOCFRAME IOVERLAY, 0, STATIC
        LOCFRAME DOVERLAY, 0, STATIC
        ARGFRAME ISTACK, 0, STACK
        ARGFRAME PSTACK, 0, STACK
        ARGFRAME XSTACK, 12, STACK
        ARGFRAME IOVERLAY, 0, STATIC
        ARGFRAME DOVERLAY, 0, STATIC
        FUNCALL ZDApp_event_loop, ZDApp_ProcessOSALMsg
        LOCFRAME ISTACK, 0, STACK
        LOCFRAME PSTACK, 0, STACK
        LOCFRAME XSTACK, 12, STACK
        LOCFRAME IOVERLAY, 0, STATIC
        LOCFRAME DOVERLAY, 0, STATIC
        ARGFRAME ISTACK, 0, STACK
        ARGFRAME PSTACK, 0, STACK
        ARGFRAME XSTACK, 12, STACK
        ARGFRAME IOVERLAY, 0, STATIC
        ARGFRAME DOVERLAY, 0, STATIC
        FUNCALL ZDApp_event_loop, osal_msg_deallocate
        LOCFRAME ISTACK, 0, STACK
        LOCFRAME PSTACK, 0, STACK
        LOCFRAME XSTACK, 12, STACK
        LOCFRAME IOVERLAY, 0, STATIC
        LOCFRAME DOVERLAY, 0, STATIC
        ARGFRAME ISTACK, 0, STACK
        ARGFRAME PSTACK, 0, STACK
        ARGFRAME XSTACK, 12, STACK
        ARGFRAME IOVERLAY, 0, STATIC
        ARGFRAME DOVERLAY, 0, STATIC
        FUNCALL ZDApp_event_loop, osal_msg_receive
        LOCFRAME ISTACK, 0, STACK
        LOCFRAME PSTACK, 0, STACK
        LOCFRAME XSTACK, 12, STACK
        LOCFRAME IOVERLAY, 0, STATIC
        LOCFRAME DOVERLAY, 0, STATIC
        ARGFRAME ISTACK, 0, STACK
        ARGFRAME PSTACK, 0, STACK
        ARGFRAME XSTACK, 12, STACK
        ARGFRAME IOVERLAY, 0, STATIC
        ARGFRAME DOVERLAY, 0, STATIC
        FUNCALL ZDApp_event_loop, ZDO_UpdateNwkStatus
        LOCFRAME ISTACK, 0, STACK
        LOCFRAME PSTACK, 0, STACK
        LOCFRAME XSTACK, 12, STACK
        LOCFRAME IOVERLAY, 0, STATIC
        LOCFRAME DOVERLAY, 0, STATIC
        ARGFRAME ISTACK, 0, STACK
        ARGFRAME PSTACK, 0, STACK
        ARGFRAME XSTACK, 12, STACK
        ARGFRAME IOVERLAY, 0, STATIC
        ARGFRAME DOVERLAY, 0, STATIC
        FUNCALL ZDApp_event_loop, osal_start_timerEx
        LOCFRAME ISTACK, 0, STACK
        LOCFRAME PSTACK, 0, STACK
        LOCFRAME XSTACK, 12, STACK
        LOCFRAME IOVERLAY, 0, STATIC
        LOCFRAME DOVERLAY, 0, STATIC
        ARGFRAME ISTACK, 0, STACK
        ARGFRAME PSTACK, 0, STACK
        ARGFRAME XSTACK, 12, STACK
        ARGFRAME IOVERLAY, 0, STATIC
        ARGFRAME DOVERLAY, 0, STATIC
        FUNCALL ZDApp_event_loop, Onboard_soft_reset
        LOCFRAME ISTACK, 0, STACK
        LOCFRAME PSTACK, 0, STACK
        LOCFRAME XSTACK, 12, STACK
        LOCFRAME IOVERLAY, 0, STATIC
        LOCFRAME DOVERLAY, 0, STATIC
        ARGFRAME ISTACK, 0, STACK
        ARGFRAME PSTACK, 0, STACK
        ARGFRAME XSTACK, 12, STACK
        ARGFRAME IOVERLAY, 0, STATIC
        ARGFRAME DOVERLAY, 0, STATIC
        REQUIRE ?V0
        REQUIRE ?V1
        REQUIRE ?V2
        REQUIRE ?V3
        MOV     A,#-0xc
        LCALL   ?BANKED_ENTER_XDATA
          CFI DPH0 load(1, XDATA, add(CFA_XSP16, literal(-1)))
          CFI DPL0 load(1, XDATA, add(CFA_XSP16, literal(-2)))
          CFI ?BRET_EXT load(1, XDATA, add(CFA_XSP16, literal(-3)))
          CFI ?RET_HIGH load(1, XDATA, add(CFA_XSP16, literal(-4)))
          CFI ?RET_LOW load(1, XDATA, add(CFA_XSP16, literal(-5)))
          CFI R7 load(1, XDATA, add(CFA_XSP16, literal(-6)))
          CFI V3 load(1, XDATA, add(CFA_XSP16, literal(-7)))
          CFI V2 load(1, XDATA, add(CFA_XSP16, literal(-8)))
          CFI V1 load(1, XDATA, add(CFA_XSP16, literal(-9)))
          CFI V0 load(1, XDATA, add(CFA_XSP16, literal(-10)))
          CFI VB load(1, XDATA, add(CFA_XSP16, literal(-11)))
          CFI R6 load(1, XDATA, add(CFA_XSP16, literal(-12)))
          CFI CFA_SP SP+0
          CFI CFA_XSP16 add(XSP16, 12)
        ; Saved register size: 12
        ; Auto size: 0
        MOV     A,R2
        MOV     R6,A
        MOV     A,R3
        MOV     R7,A
//  363   uint8 *msg_ptr;
//  364 
//  365   if ( events & SYS_EVENT_MSG )
        ANL     A,#0x80
        JNZ     ??ZDApp_event_loop_0
//  366   {
//  367     while ( (msg_ptr = osal_msg_receive( ZDAppTaskID )) )
//  368     {
//  369       ZDApp_ProcessOSALMsg( (osal_event_hdr_t *)msg_ptr );
//  370 
//  371       // Release the memory
//  372       osal_msg_deallocate( msg_ptr );
//  373     }
//  374 
//  375     // Return unprocessed events
//  376     return (events ^ SYS_EVENT_MSG);
//  377   }
//  378 
//  379   if ( events & ZDO_NETWORK_INIT )
        MOV     A,R6
        MOV     C,0xE0 /* A   */.0
        JNC     ??ZDApp_event_loop_1
//  380   {
//  381     // Initialize apps and start the network
//  382     devState = DEV_INIT;
        MOV     DPTR,#devState
        MOV     A,#0x1
        MOVX    @DPTR,A
//  383     
//  384     ZDO_StartDevice( (uint8)ZDO_Config_Node_Descriptor.LogicalType, devStartMode,
//  385                      DEFAULT_BEACON_ORDER, DEFAULT_SUPERFRAME_ORDER );
        ; Setup parameters for call to function ZDO_StartDevice
        MOV     R4,#0xf
        MOV     R3,#0xf
        MOV     DPTR,#devStartMode
        MOVX    A,@DPTR
        MOV     R2,A
        MOV     DPTR,#ZDO_Config_Node_Descriptor
        MOVX    A,@DPTR
        ANL     A,#0x7
        MOV     R1,A
        LCALL   `??ZDO_StartDevice::?relay`; Banked call to: ZDO_StartDevice
//  386 
//  387     // Return unprocessed events
//  388     return (events ^ ZDO_NETWORK_INIT);
        MOV     A,R6
        XRL     A,#0x1
        SJMP    ??ZDApp_event_loop_2
//  389   }
??ZDApp_event_loop_3:
        ; Setup parameters for call to function ZDApp_ProcessOSALMsg
        LCALL   `??ZDApp_ProcessOSALMsg::?relay`; Banked call to: ZDApp_ProcessOSALMsg
        ; Setup parameters for call to function osal_msg_deallocate
        MOV     R2,?V0
        MOV     R3,?V1
        LCALL   `??osal_msg_deallocate::?relay`; Banked call to: osal_msg_deallocate
??ZDApp_event_loop_0:
        ; Setup parameters for call to function osal_msg_receive
        MOV     DPTR,#ZDAppTaskID
        MOVX    A,@DPTR
        MOV     R1,A
        LCALL   `??osal_msg_receive::?relay`; Banked call to: osal_msg_receive
        MOV     ?V0,R2
        MOV     ?V1,R3
        MOV     A,R2
        ORL     A,?V1
        JNZ     ??ZDApp_event_loop_3
        MOV     A,R6
        MOV     R2,A
        MOV     A,R7
        XRL     A,#0x80
        SJMP    ??ZDApp_event_loop_4
//  390 
//  391   if ( ZSTACK_ROUTER_BUILD )
//  392   {
//  393     if ( events & ZDO_NETWORK_START )
//  394     {
//  395       ZDApp_NetworkStartEvt();
//  396   
//  397       // Return unprocessed events
//  398       return (events ^ ZDO_NETWORK_START);
//  399     }
//  400 
//  401     if ( events & ZDO_ROUTER_START )
//  402     {
//  403       if ( nwkStatus == ZSuccess )
//  404       {
//  405         if ( devState == DEV_END_DEVICE )
//  406           devState = DEV_ROUTER;
//  407   
//  408         osal_pwrmgr_device( PWRMGR_ALWAYS_ON );
//  409       }
//  410       else
//  411       {
//  412         // remain as end device!!
//  413       }
//  414       osal_set_event( ZDAppTaskID, ZDO_STATE_CHANGE_EVT );
//  415   
//  416       // Return unprocessed events
//  417       return (events ^ ZDO_ROUTER_START);
//  418     }
//  419   }
//  420   
//  421   if ( events & ZDO_STATE_CHANGE_EVT )
??ZDApp_event_loop_1:
        ANL     A,#0x10
        JZ      ??ZDApp_event_loop_5
//  422   {
//  423     ZDO_UpdateNwkStatus( devState );
        ; Setup parameters for call to function ZDO_UpdateNwkStatus
        MOV     DPTR,#devState
        MOVX    A,@DPTR
        MOV     R1,A
        LCALL   `??ZDO_UpdateNwkStatus::?relay`; Banked call to: ZDO_UpdateNwkStatus
//  424     
//  425     // At start up, do one MTO route discovery if the device is a concentrator
//  426     if ( zgConcentratorEnable == TRUE ) 
        MOV     DPTR,#zgConcentratorEnable
        MOVX    A,@DPTR
        XRL     A,#0x1
        JNZ     ??ZDApp_event_loop_6
//  427     {
//  428       // Start next event
//  429       osal_start_timerEx( NWK_TaskID, NWK_MTO_RTG_REQ_EVT, 100 );
        ; Setup parameters for call to function osal_start_timerEx
        MOV     R4,#0x64
        MOV     R5,#0x0
        MOV     R2,#0x0
        MOV     R3,#0x8
        MOV     DPTR,#NWK_TaskID
        MOVX    A,@DPTR
        MOV     R1,A
        LCALL   `??osal_start_timerEx::?relay`; Banked call to: osal_start_timerEx
//  430     }
//  431     
//  432     // Return unprocessed events
//  433     return (events ^ ZDO_STATE_CHANGE_EVT);
??ZDApp_event_loop_6:
        MOV     A,R6
        XRL     A,#0x10
??ZDApp_event_loop_2:
        MOV     R2,A
        MOV     A,R7
        SJMP    ??ZDApp_event_loop_4
//  434   }
//  435 
//  436   if ( events & ZDO_COMMAND_CNF )
??ZDApp_event_loop_5:
        MOV     A,R6
        ANL     A,#0x8
        JZ      ??ZDApp_event_loop_7
//  437   {
//  438     // User defined logic
//  439 
//  440     // Return unprocessed events
//  441     return (events ^ ZDO_COMMAND_CNF);
        MOV     A,R6
        XRL     A,#0x8
        MOV     R2,A
        SJMP    ??ZDApp_event_loop_8
//  442   }
//  443   
//  444   if ( events & ZDO_NWK_UPDATE_NV )
??ZDApp_event_loop_7:
        MOV     A,R7
        ANL     A,#0x2
        JZ      ??ZDApp_event_loop_9
//  445   {
//  446     ZDApp_SaveNetworkStateEvt();
//  447 
//  448     // Return unprocessed events
//  449     return (events ^ ZDO_NWK_UPDATE_NV);
        MOV     A,R7
        XRL     A,#0x2
??ZDApp_event_loop_4:
        MOV     R3,A
        SJMP    ??ZDApp_event_loop_8
//  450   }
//  451 
//  452   if ( events & ZDO_DEVICE_RESET )
??ZDApp_event_loop_9:
        MOV     A,R6
        ANL     A,#0x4
        JZ      ??ZDApp_event_loop_10
//  453   {
//  454     // The device has been in the UNAUTH state, so reset
//  455     // Note: there will be no return from this call
//  456     SystemResetSoft();
        ; Setup parameters for call to function Onboard_soft_reset
        LCALL   Onboard_soft_reset & 0xFFFF
//  457   }
//  458 
//  459   if ( ZG_SECURE_ENABLED )
//  460   {
//  461     return ( ZDApp_ProcessSecEvent( task_id, events ) );
//  462   }
//  463   else
//  464   {
//  465     // Discard or make more handlers
//  466     return 0;
??ZDApp_event_loop_10:
        MOV     R2,#0x0
        MOV     R3,#0x0
//  467   }
??ZDApp_event_loop_8:
        LJMP    ??Subroutine37_0 & 0xFFFF
//  468 }
          CFI EndBlock cfiBlock2
//  469 
//  470 /*********************************************************************
//  471  * @fn      ZDApp_ProcessSecEvent()
//  472  *
//  473  * @brief   Process incoming security events.
//  474  *
//  475  * @param   task_id - Task ID
//  476  * @param   events  - Bitmap of events
//  477  *
//  478  * @return  none
//  479  */

        RSEG BANKED_CODE:HUGECODE:NOROOT(0)
//  480 UINT16 ZDApp_ProcessSecEvent( uint8 task_id, UINT16 events )
ZDApp_ProcessSecEvent:
          CFI Block cfiBlock3 Using cfiCommon0
          CFI Function ZDApp_ProcessSecEvent
        CODE
//  481 {
        FUNCALL ZDApp_ProcessSecEvent, ZDApp_DeviceAuthEvt
        LOCFRAME ISTACK, 0, STACK
        LOCFRAME PSTACK, 0, STACK
        LOCFRAME XSTACK, 9, STACK
        LOCFRAME IOVERLAY, 0, STATIC
        LOCFRAME DOVERLAY, 0, STATIC
        ARGFRAME ISTACK, 0, STACK
        ARGFRAME PSTACK, 0, STACK
        ARGFRAME XSTACK, 9, STACK
        ARGFRAME IOVERLAY, 0, STATIC
        ARGFRAME DOVERLAY, 0, STATIC
        FUNCALL ZDApp_ProcessSecEvent, ZDApp_SaveNwkKey
        LOCFRAME ISTACK, 0, STACK
        LOCFRAME PSTACK, 0, STACK
        LOCFRAME XSTACK, 9, STACK
        LOCFRAME IOVERLAY, 0, STATIC
        LOCFRAME DOVERLAY, 0, STATIC
        ARGFRAME ISTACK, 0, STACK
        ARGFRAME PSTACK, 0, STACK
        ARGFRAME XSTACK, 9, STACK
        ARGFRAME IOVERLAY, 0, STATIC
        ARGFRAME DOVERLAY, 0, STATIC
        FUNCALL ZDApp_ProcessSecEvent, ZDSecMgrSaveTCLinkKey
        LOCFRAME ISTACK, 0, STACK
        LOCFRAME PSTACK, 0, STACK
        LOCFRAME XSTACK, 9, STACK
        LOCFRAME IOVERLAY, 0, STATIC
        LOCFRAME DOVERLAY, 0, STATIC
        ARGFRAME ISTACK, 0, STACK
        ARGFRAME PSTACK, 0, STACK
        ARGFRAME XSTACK, 9, STACK
        ARGFRAME IOVERLAY, 0, STATIC
        ARGFRAME DOVERLAY, 0, STATIC
        MOV     A,#-0x9
        LCALL   ?BANKED_ENTER_XDATA
          CFI DPH0 load(1, XDATA, add(CFA_XSP16, literal(-1)))
          CFI DPL0 load(1, XDATA, add(CFA_XSP16, literal(-2)))
          CFI ?BRET_EXT load(1, XDATA, add(CFA_XSP16, literal(-3)))
          CFI ?RET_HIGH load(1, XDATA, add(CFA_XSP16, literal(-4)))
          CFI ?RET_LOW load(1, XDATA, add(CFA_XSP16, literal(-5)))
          CFI R7 load(1, XDATA, add(CFA_XSP16, literal(-6)))
          CFI V0 load(1, XDATA, add(CFA_XSP16, literal(-7)))
          CFI VB load(1, XDATA, add(CFA_XSP16, literal(-8)))
          CFI R6 load(1, XDATA, add(CFA_XSP16, literal(-9)))
          CFI CFA_SP SP+0
          CFI CFA_XSP16 add(XSP16, 9)
        ; Saved register size: 9
        ; Auto size: 0
        MOV     A,R2
        MOV     R6,A
        MOV     A,R3
        MOV     R7,A
//  482   (void)task_id;  // Intentionally unreferenced parameter
//  483   
//  484   if ( ZSTACK_ROUTER_BUILD )
//  485   {
//  486     if ( events & ZDO_NEW_DEVICE )
//  487     {
//  488       // process the new device event
//  489       if ( ZDSecMgrNewDeviceEvent() == TRUE )
//  490       {
//  491         osal_start_timerEx( ZDAppTaskID, ZDO_NEW_DEVICE, 1000 );
//  492       }
//  493 
//  494       // Return unprocessed events
//  495       return (events ^ ZDO_NEW_DEVICE);
//  496     }
//  497   }
//  498 
//  499   if ( (ZG_CHECK_SECURITY_MODE == ZG_SECURITY_PRO_HIGH) 
//  500       || (ZG_CHECK_SECURITY_MODE == ZG_SECURITY_SE_STANDARD) )
//  501   {
//  502     if ( ZG_BUILD_COORDINATOR_TYPE && ZG_DEVICE_COORDINATOR_TYPE )
//  503     { 
//  504       if ( events & ZDO_SECMGR_EVENT )
//  505       {
//  506         ZDSecMgrEvent();
//  507 
//  508         // Return unprocessed events
//  509         return (events ^ ZDO_SECMGR_EVENT);
//  510       }
//  511     }
//  512   }
//  513   
//  514   if ( events & ZDO_DEVICE_AUTH )
        MOV     A,R6
        ANL     A,#0x80
        JZ      ??ZDApp_ProcessSecEvent_0
//  515   {
//  516     ZDApp_DeviceAuthEvt();
        ; Setup parameters for call to function ZDApp_DeviceAuthEvt
        LCALL   `??ZDApp_DeviceAuthEvt::?relay`; Banked call to: ZDApp_DeviceAuthEvt
//  517 
//  518     // Return unprocessed events
//  519     return (events ^ ZDO_DEVICE_AUTH);
        MOV     A,R6
        XRL     A,#0x80
        MOV     R2,A
        MOV     A,R7
        SJMP    ??ZDApp_ProcessSecEvent_1
//  520   }
//  521 
//  522   if ( events & ZDO_FRAMECOUNTER_CHANGE )
??ZDApp_ProcessSecEvent_0:
        MOV     A,R7
        ANL     A,#0x4
        JZ      ??ZDApp_ProcessSecEvent_2
//  523   {
//  524     if ( nwkFrameCounterChanges++ > MAX_NWK_FRAMECOUNTER_CHANGES )
        MOV     DPTR,#nwkFrameCounterChanges
        LCALL   ??Subroutine41_0 & 0xFFFF
??CrossCallReturnLabel_56:
        MOV     A,R0
        ADD     A,#0x1
        MOV     R2,A
        CLR     A
        ADDC    A,R1
        MOV     R3,A
        MOV     DPTR,#nwkFrameCounterChanges
        LCALL   ??Subroutine42_0 & 0xFFFF
??CrossCallReturnLabel_63:
        CLR     C
        MOV     A,R0
        SUBB    A,#-0x17
        MOV     A,R1
        SUBB    A,#0x3
        JC      ??ZDApp_ProcessSecEvent_3
//  525     {
//  526       ZDApp_SaveNwkKey();
        ; Setup parameters for call to function ZDApp_SaveNwkKey
        LCALL   `??ZDApp_SaveNwkKey::?relay`; Banked call to: ZDApp_SaveNwkKey
//  527     }
//  528 
//  529     // Return unprocessed events
//  530     return (events ^ ZDO_FRAMECOUNTER_CHANGE);
??ZDApp_ProcessSecEvent_3:
        MOV     A,R6
        MOV     R2,A
        MOV     A,R7
        XRL     A,#0x4
        SJMP    ??ZDApp_ProcessSecEvent_1
//  531   }
//  532 
//  533   if ( events & ZDO_APS_FRAMECOUNTER_CHANGE )
??ZDApp_ProcessSecEvent_2:
        MOV     A,R7
        ANL     A,#0x10
        JZ      ??ZDApp_ProcessSecEvent_4
//  534   {
//  535 #if defined (NV_RESTORE)
//  536     ZDSecMgrSaveApsLinkKey();
//  537 #endif // (NV_RESTORE)
//  538     
//  539     // Return unprocessed events
//  540     return (events ^ ZDO_APS_FRAMECOUNTER_CHANGE);
        MOV     A,R7
        XRL     A,#0x10
        SJMP    ??ZDApp_ProcessSecEvent_1
//  541   }
//  542 
//  543   if ( events & ZDO_TCLK_FRAMECOUNTER_CHANGE )
??ZDApp_ProcessSecEvent_4:
        MOV     A,R7
        ANL     A,#0x8
        JZ      ??ZDApp_ProcessSecEvent_5
//  544   {
//  545     ZDSecMgrSaveTCLinkKey();
        ; Setup parameters for call to function ZDSecMgrSaveTCLinkKey
        LCALL   `??ZDSecMgrSaveTCLinkKey::?relay`; Banked call to: ZDSecMgrSaveTCLinkKey
//  546     
//  547     // Return unprocessed events
//  548     return (events ^ ZDO_TCLK_FRAMECOUNTER_CHANGE);
        MOV     A,R6
        MOV     R2,A
        MOV     A,R7
        XRL     A,#0x8
??ZDApp_ProcessSecEvent_1:
        MOV     R3,A
        SJMP    ??ZDApp_ProcessSecEvent_6
//  549   }
//  550   
//  551   // Discard or make more handlers
//  552   return 0;
??ZDApp_ProcessSecEvent_5:
        MOV     R2,#0x0
        MOV     R3,#0x0
??ZDApp_ProcessSecEvent_6:
        LJMP    ??Subroutine38_0 & 0xFFFF
//  553 }
          CFI EndBlock cfiBlock3
//  554 
//  555 /*********************************************************************
//  556  * Application Functions
//  557  */
//  558 
//  559 /*********************************************************************
//  560  * @fn      ZDOInitDevice
//  561  *
//  562  * @brief   Start the device in the network.  This function will read
//  563  *   ZCD_NV_STARTUP_OPTION (NV item) to determine whether or not to
//  564  *   restore the network state of the device.
//  565  *
//  566  * @param   startDelay - timeDelay to start device (in milliseconds).
//  567  *                       There is a jitter added to this delay:
//  568  *                       ((NWK_START_DELAY + startDelay)
//  569  *                       + (osal_rand() & EXTENDED_JOINING_RANDOM_MASK))
//  570  *                       When startDelay is set to ZDO_INIT_HOLD_NWK_START
//  571  *                       this function will hold the network init. Application
//  572  *                       can start the device.
//  573  *
//  574  * NOTE:    If the application would like to force a "new" join, the
//  575  *          application should set the ZCD_STARTOPT_DEFAULT_NETWORK_STATE
//  576  *          bit in the ZCD_NV_STARTUP_OPTION NV item before calling
//  577  *          this function. "new" join means to not restore the network
//  578  *          state of the device. Use zgWriteStartupOptions() to set these
//  579  *          options.
//  580  *
//  581  * @return
//  582  *    ZDO_INITDEV_RESTORED_NETWORK_STATE  - The device's network state was
//  583  *          restored.
//  584  *    ZDO_INITDEV_NEW_NETWORK_STATE - The network state was initialized.
//  585  *          This could mean that ZCD_NV_STARTUP_OPTION said to not restore, or
//  586  *          it could mean that there was no network state to restore.
//  587  *    ZDO_INITDEV_LEAVE_NOT_STARTED - Before the reset, a network leave was issued
//  588  *          with the rejoin option set to TRUE.  So, the device was not
//  589  *          started in the network (one time only).  The next time this
//  590  *          function is called it will start.
//  591  */

        RSEG BANKED_CODE:HUGECODE:NOROOT(0)
//  592 uint8 ZDOInitDevice( uint16 startDelay )
ZDOInitDevice:
          CFI Block cfiBlock4 Using cfiCommon0
          CFI Function ZDOInitDevice
        CODE
//  593 {
        FUNCALL ZDOInitDevice, zgInitItems
        LOCFRAME ISTACK, 0, STACK
        LOCFRAME PSTACK, 0, STACK
        LOCFRAME XSTACK, 12, STACK
        LOCFRAME IOVERLAY, 0, STATIC
        LOCFRAME DOVERLAY, 0, STATIC
        ARGFRAME ISTACK, 0, STACK
        ARGFRAME PSTACK, 0, STACK
        ARGFRAME XSTACK, 12, STACK
        ARGFRAME IOVERLAY, 0, STATIC
        ARGFRAME DOVERLAY, 0, STATIC
        FUNCALL ZDOInitDevice, ZDConfig_InitDescriptors
        LOCFRAME ISTACK, 0, STACK
        LOCFRAME PSTACK, 0, STACK
        LOCFRAME XSTACK, 12, STACK
        LOCFRAME IOVERLAY, 0, STATIC
        LOCFRAME DOVERLAY, 0, STATIC
        ARGFRAME ISTACK, 0, STACK
        ARGFRAME PSTACK, 0, STACK
        ARGFRAME XSTACK, 12, STACK
        ARGFRAME IOVERLAY, 0, STATIC
        ARGFRAME DOVERLAY, 0, STATIC
        FUNCALL ZDOInitDevice, ZDAppDetermineDeviceType
        LOCFRAME ISTACK, 0, STACK
        LOCFRAME PSTACK, 0, STACK
        LOCFRAME XSTACK, 12, STACK
        LOCFRAME IOVERLAY, 0, STATIC
        LOCFRAME DOVERLAY, 0, STATIC
        ARGFRAME ISTACK, 0, STACK
        ARGFRAME PSTACK, 0, STACK
        ARGFRAME XSTACK, 12, STACK
        ARGFRAME IOVERLAY, 0, STATIC
        ARGFRAME DOVERLAY, 0, STATIC
        FUNCALL ZDOInitDevice, osal_rand
        LOCFRAME ISTACK, 0, STACK
        LOCFRAME PSTACK, 0, STACK
        LOCFRAME XSTACK, 12, STACK
        LOCFRAME IOVERLAY, 0, STATIC
        LOCFRAME DOVERLAY, 0, STATIC
        ARGFRAME ISTACK, 0, STACK
        ARGFRAME PSTACK, 0, STACK
        ARGFRAME XSTACK, 12, STACK
        ARGFRAME IOVERLAY, 0, STATIC
        ARGFRAME DOVERLAY, 0, STATIC
        FUNCALL ZDOInitDevice, ZDSecMgrInit
        LOCFRAME ISTACK, 0, STACK
        LOCFRAME PSTACK, 0, STACK
        LOCFRAME XSTACK, 12, STACK
        LOCFRAME IOVERLAY, 0, STATIC
        LOCFRAME DOVERLAY, 0, STATIC
        ARGFRAME ISTACK, 0, STACK
        ARGFRAME PSTACK, 0, STACK
        ARGFRAME XSTACK, 12, STACK
        ARGFRAME IOVERLAY, 0, STATIC
        ARGFRAME DOVERLAY, 0, STATIC
        FUNCALL ZDOInitDevice, ZDApp_LeaveCtrlInit
        LOCFRAME ISTACK, 0, STACK
        LOCFRAME PSTACK, 0, STACK
        LOCFRAME XSTACK, 12, STACK
        LOCFRAME IOVERLAY, 0, STATIC
        LOCFRAME DOVERLAY, 0, STATIC
        ARGFRAME ISTACK, 0, STACK
        ARGFRAME PSTACK, 0, STACK
        ARGFRAME XSTACK, 12, STACK
        ARGFRAME IOVERLAY, 0, STATIC
        ARGFRAME DOVERLAY, 0, STATIC
        FUNCALL ZDOInitDevice, ZDApp_LeaveCtrlStartup
        LOCFRAME ISTACK, 0, STACK
        LOCFRAME PSTACK, 0, STACK
        LOCFRAME XSTACK, 12, STACK
        LOCFRAME IOVERLAY, 0, STATIC
        LOCFRAME DOVERLAY, 0, STATIC
        ARGFRAME ISTACK, 0, STACK
        ARGFRAME PSTACK, 0, STACK
        ARGFRAME XSTACK, 12, STACK
        ARGFRAME IOVERLAY, 0, STATIC
        ARGFRAME DOVERLAY, 0, STATIC
        FUNCALL ZDOInitDevice, zgWriteStartupOptions
        LOCFRAME ISTACK, 0, STACK
        LOCFRAME PSTACK, 0, STACK
        LOCFRAME XSTACK, 12, STACK
        LOCFRAME IOVERLAY, 0, STATIC
        LOCFRAME DOVERLAY, 0, STATIC
        ARGFRAME ISTACK, 0, STACK
        ARGFRAME PSTACK, 0, STACK
        ARGFRAME XSTACK, 12, STACK
        ARGFRAME IOVERLAY, 0, STATIC
        ARGFRAME DOVERLAY, 0, STATIC
        FUNCALL ZDOInitDevice, osal_set_event
        LOCFRAME ISTACK, 0, STACK
        LOCFRAME PSTACK, 0, STACK
        LOCFRAME XSTACK, 12, STACK
        LOCFRAME IOVERLAY, 0, STATIC
        LOCFRAME DOVERLAY, 0, STATIC
        ARGFRAME ISTACK, 0, STACK
        ARGFRAME PSTACK, 0, STACK
        ARGFRAME XSTACK, 12, STACK
        ARGFRAME IOVERLAY, 0, STATIC
        ARGFRAME DOVERLAY, 0, STATIC
        FUNCALL ZDOInitDevice, ZDApp_NetworkInit
        LOCFRAME ISTACK, 0, STACK
        LOCFRAME PSTACK, 0, STACK
        LOCFRAME XSTACK, 12, STACK
        LOCFRAME IOVERLAY, 0, STATIC
        LOCFRAME DOVERLAY, 0, STATIC
        ARGFRAME ISTACK, 0, STACK
        ARGFRAME PSTACK, 0, STACK
        ARGFRAME XSTACK, 12, STACK
        ARGFRAME IOVERLAY, 0, STATIC
        ARGFRAME DOVERLAY, 0, STATIC
        FUNCALL ZDOInitDevice, NLME_SetBroadcastFilter
        LOCFRAME ISTACK, 0, STACK
        LOCFRAME PSTACK, 0, STACK
        LOCFRAME XSTACK, 12, STACK
        LOCFRAME IOVERLAY, 0, STATIC
        LOCFRAME DOVERLAY, 0, STATIC
        ARGFRAME ISTACK, 0, STACK
        ARGFRAME PSTACK, 0, STACK
        ARGFRAME XSTACK, 12, STACK
        ARGFRAME IOVERLAY, 0, STATIC
        ARGFRAME DOVERLAY, 0, STATIC
        REQUIRE ?V0
        REQUIRE ?V1
        MOV     A,#-0xa
        LCALL   ?BANKED_ENTER_XDATA
          CFI DPH0 load(1, XDATA, add(CFA_XSP16, literal(-1)))
          CFI DPL0 load(1, XDATA, add(CFA_XSP16, literal(-2)))
          CFI ?BRET_EXT load(1, XDATA, add(CFA_XSP16, literal(-3)))
          CFI ?RET_HIGH load(1, XDATA, add(CFA_XSP16, literal(-4)))
          CFI ?RET_LOW load(1, XDATA, add(CFA_XSP16, literal(-5)))
          CFI R7 load(1, XDATA, add(CFA_XSP16, literal(-6)))
          CFI V1 load(1, XDATA, add(CFA_XSP16, literal(-7)))
          CFI V0 load(1, XDATA, add(CFA_XSP16, literal(-8)))
          CFI VB load(1, XDATA, add(CFA_XSP16, literal(-9)))
          CFI R6 load(1, XDATA, add(CFA_XSP16, literal(-10)))
          CFI CFA_SP SP+0
          CFI CFA_XSP16 add(XSP16, 10)
        ; Saved register size: 10
        ; Auto size: 2
        MOV     A,#-0x2
        LCALL   ?ALLOC_XSTACK8
          CFI CFA_XSP16 add(XSP16, 12)
        LCALL   ?Subroutine11 & 0xFFFF
//  594   uint8 networkStateNV = ZDO_INITDEV_NEW_NETWORK_STATE;
//  595   uint16 extendedDelay = 0;
//  596 
//  597   if ( devState == DEV_HOLD )
??CrossCallReturnLabel_68:
        MOV     DPTR,#devState
        MOVX    A,@DPTR
        JNZ     ??ZDOInitDevice_0
//  598   {    
//  599     // Initialize the RAM items table, in case an NV item has been updated.
//  600     zgInitItems( FALSE );
        ; Setup parameters for call to function zgInitItems
        MOV     R1,#0x0
        LCALL   `??zgInitItems::?relay`; Banked call to: zgInitItems
//  601   }
//  602 
//  603   ZDConfig_InitDescriptors();
??ZDOInitDevice_0:
        ; Setup parameters for call to function ZDConfig_InitDescriptors
        LCALL   `??ZDConfig_InitDescriptors::?relay`; Banked call to: ZDConfig_InitDescriptors
//  604   //devtag.071807.todo - fix this temporary solution
//  605   _NIB.CapabilityFlags = ZDO_Config_Node_Descriptor.CapabilityFlags;
        MOV     DPTR,#ZDO_Config_Node_Descriptor + 2
        MOVX    A,@DPTR
        MOV     DPTR,#_NIB + 14
        MOVX    @DPTR,A
//  606   
//  607 #if defined ( NV_RESTORE )
//  608   // Get Keypad directly to see if a reset nv is needed.
//  609   // Hold down the SW_BYPASS_NV key (defined in OnBoard.h)
//  610   // while booting to skip past NV Restore.
//  611   if ( HalKeyRead() == SW_BYPASS_NV )
//  612     networkStateNV = ZDO_INITDEV_NEW_NETWORK_STATE;
//  613   else
//  614   {
//  615     // Determine if NV should be restored
//  616     networkStateNV = ZDApp_ReadNetworkRestoreState();
//  617   }
//  618 
//  619   if ( networkStateNV == ZDO_INITDEV_RESTORED_NETWORK_STATE )
//  620   {
//  621     networkStateNV = ZDApp_RestoreNetworkState();
//  622   }
//  623   else
//  624   {
//  625     // Wipe out the network state in NV
//  626     NLME_InitNV();
//  627     NLME_SetDefaultNV();
//  628     // clear NWK key values
//  629     ZDSecMgrClearNVKeyValues();
//  630   }
//  631 #endif
//  632 
//  633   if ( networkStateNV == ZDO_INITDEV_NEW_NETWORK_STATE )
//  634   {
//  635     ZDAppDetermineDeviceType();
        ; Setup parameters for call to function ZDAppDetermineDeviceType
        LCALL   `??ZDAppDetermineDeviceType::?relay`; Banked call to: ZDAppDetermineDeviceType
//  636 
//  637     // Only delay if joining network - not restoring network state
//  638     extendedDelay = (uint16)((NWK_START_DELAY + startDelay)
//  639               + (osal_rand() & EXTENDED_JOINING_RANDOM_MASK));
        ; Setup parameters for call to function osal_rand
        LCALL   `??osal_rand::?relay`; Banked call to: osal_rand
        MOV     DPL,?XSP + 0
        MOV     DPH,?XSP + 1
        MOV     A,R2
        ANL     A,#0x7f
        MOV     R0,A
        MOVX    A,@DPTR
        ADD     A,R0
        MOV     R0,A
        INC     DPTR
        MOVX    A,@DPTR
        ADDC    A,#0x0
        MOV     R1,A
        MOV     A,R0
        ADD     A,#0x64
        MOV     R6,A
        CLR     A
        ADDC    A,R1
        MOV     R7,A
//  640   }
//  641 
//  642   // Initialize the security for type of device
//  643   ZDApp_SecInit( networkStateNV );
        ; Setup parameters for call to function ZDSecMgrInit
        MOV     R1,#0x1
        LCALL   `??ZDSecMgrInit::?relay`; Banked call to: ZDSecMgrInit
//  644   
//  645   if( ZDO_INIT_HOLD_NWK_START != startDelay )
        MOV     DPL,?XSP + 0
        MOV     DPH,?XSP + 1
        MOVX    A,@DPTR
        CPL     A
        JNZ     ??ZDOInitDevice_1
        INC     DPTR
        MOVX    A,@DPTR
        CPL     A
??ZDOInitDevice_1:
        JZ      ??ZDOInitDevice_2
//  646   {
//  647     devState = DEV_INIT;    // Remove the Hold state
        MOV     DPTR,#devState
        MOV     A,#0x1
        MOVX    @DPTR,A
//  648     
//  649     // Initialize leave control logic
//  650     ZDApp_LeaveCtrlInit();
        ; Setup parameters for call to function ZDApp_LeaveCtrlInit
        LCALL   `??ZDApp_LeaveCtrlInit::?relay`; Banked call to: ZDApp_LeaveCtrlInit
//  651     
//  652     // Check leave control reset settings
//  653     ZDApp_LeaveCtrlStartup( &devState, &startDelay );
        ; Setup parameters for call to function ZDApp_LeaveCtrlStartup
        MOV     R4,?XSP + 0
        MOV     R5,?XSP + 1
        MOV     R2,#devState & 0xff
        MOV     R3,#(devState >> 8) & 0xff
        LCALL   `??ZDApp_LeaveCtrlStartup::?relay`; Banked call to: ZDApp_LeaveCtrlStartup
//  654     
//  655     // Leave may make the hold state come back
//  656     if ( devState == DEV_HOLD )
        MOV     DPTR,#devState
        MOVX    A,@DPTR
        JNZ     ??ZDOInitDevice_3
//  657     {
//  658       // Set the NV startup option to force a "new" join.
//  659       zgWriteStartupOptions( ZG_STARTUP_SET, ZCD_STARTOPT_DEFAULT_NETWORK_STATE );
        ; Setup parameters for call to function zgWriteStartupOptions
        MOV     R2,#0x2
        MOV     R1,#-0x1
        LCALL   `??zgWriteStartupOptions::?relay`; Banked call to: zgWriteStartupOptions
//  660       
//  661       // Notify the applications 
//  662       osal_set_event( ZDAppTaskID, ZDO_STATE_CHANGE_EVT );
        ; Setup parameters for call to function osal_set_event
        MOV     R2,#0x10
        MOV     R3,#0x0
        MOV     DPTR,#ZDAppTaskID
        MOVX    A,@DPTR
        MOV     R1,A
        LCALL   `??osal_set_event::?relay`; Banked call to: osal_set_event
//  663       
//  664       return ( ZDO_INITDEV_LEAVE_NOT_STARTED );   // Don't join - (one time).
        MOV     R1,#0x2
        SJMP    ??ZDOInitDevice_4
//  665     }
//  666     
//  667     // Trigger the network start
//  668     ZDApp_NetworkInit( extendedDelay );
??ZDOInitDevice_3:
        ; Setup parameters for call to function ZDApp_NetworkInit
        MOV     A,R6
        MOV     R2,A
        MOV     A,R7
        MOV     R3,A
        LCALL   `??ZDApp_NetworkInit::?relay`; Banked call to: ZDApp_NetworkInit
//  669   }
//  670 
//  671   // set broadcast address mask to support broadcast filtering
//  672   NLME_SetBroadcastFilter( ZDO_Config_Node_Descriptor.CapabilityFlags );
??ZDOInitDevice_2:
        ; Setup parameters for call to function NLME_SetBroadcastFilter
        MOV     DPTR,#ZDO_Config_Node_Descriptor + 2
        MOVX    A,@DPTR
        MOV     R1,A
        LCALL   `??NLME_SetBroadcastFilter::?relay`; Banked call to: NLME_SetBroadcastFilter
//  673   
//  674   return ( networkStateNV );
        MOV     R1,#0x1
??ZDOInitDevice_4:
        LJMP    ?Subroutine2 & 0xFFFF
//  675 }
          CFI EndBlock cfiBlock4
//  676 
//  677 /*********************************************************************
//  678  * @fn      ZDApp_ReadNetworkRestoreState
//  679  *
//  680  * @brief   Read the ZCD_NV_STARTUP_OPTION NV Item to state whether
//  681  *          or not to restore the network state.
//  682  *          If the read value has the ZCD_STARTOPT_DEFAULT_NETWORK_STATE
//  683  *          bit set return the ZDO_INITDEV_NEW_NETWORK_STATE.
//  684  *
//  685  * @param   none
//  686  *
//  687  * @return  ZDO_INITDEV_NEW_NETWORK_STATE
//  688  *          or ZDO_INITDEV_RESTORED_NETWORK_STATE based on whether or
//  689  *          not ZCD_STARTOPT_DEFAULT_NETWORK_STATE bit is set in
//  690  *          ZCD_NV_STARTUP_OPTION
//  691  */

        RSEG BANKED_CODE:HUGECODE:NOROOT(0)
//  692 uint8 ZDApp_ReadNetworkRestoreState( void )
ZDApp_ReadNetworkRestoreState:
          CFI Block cfiBlock5 Using cfiCommon0
          CFI Function ZDApp_ReadNetworkRestoreState
        CODE
//  693 {
        FUNCALL ZDApp_ReadNetworkRestoreState, zgReadStartupOptions
        LOCFRAME ISTACK, 0, STACK
        LOCFRAME PSTACK, 0, STACK
        LOCFRAME XSTACK, 9, STACK
        LOCFRAME IOVERLAY, 0, STATIC
        LOCFRAME DOVERLAY, 0, STATIC
        ARGFRAME ISTACK, 0, STACK
        ARGFRAME PSTACK, 0, STACK
        ARGFRAME XSTACK, 9, STACK
        ARGFRAME IOVERLAY, 0, STATIC
        ARGFRAME DOVERLAY, 0, STATIC
        MOV     A,#-0x9
        LCALL   ?BANKED_ENTER_XDATA
          CFI DPH0 load(1, XDATA, add(CFA_XSP16, literal(-1)))
          CFI DPL0 load(1, XDATA, add(CFA_XSP16, literal(-2)))
          CFI ?BRET_EXT load(1, XDATA, add(CFA_XSP16, literal(-3)))
          CFI ?RET_HIGH load(1, XDATA, add(CFA_XSP16, literal(-4)))
          CFI ?RET_LOW load(1, XDATA, add(CFA_XSP16, literal(-5)))
          CFI R7 load(1, XDATA, add(CFA_XSP16, literal(-6)))
          CFI V0 load(1, XDATA, add(CFA_XSP16, literal(-7)))
          CFI VB load(1, XDATA, add(CFA_XSP16, literal(-8)))
          CFI R6 load(1, XDATA, add(CFA_XSP16, literal(-9)))
          CFI CFA_SP SP+0
          CFI CFA_XSP16 add(XSP16, 9)
        ; Saved register size: 9
        ; Auto size: 0
//  694   uint8 networkStateNV = ZDO_INITDEV_RESTORED_NETWORK_STATE;
        MOV     R6,#0x0
//  695 
//  696   // Look for the New Network State option.
//  697   if ( zgReadStartupOptions() & ZCD_STARTOPT_DEFAULT_NETWORK_STATE )
        ; Setup parameters for call to function zgReadStartupOptions
        LCALL   `??zgReadStartupOptions::?relay`; Banked call to: zgReadStartupOptions
        MOV     A,R1
        MOV     R0,A
        MOV     C,0xE0 /* A   */.1
        JNC     ??ZDApp_ReadNetworkRestoreState_0
//  698   {
//  699     networkStateNV = ZDO_INITDEV_NEW_NETWORK_STATE;
        MOV     R6,#0x1
//  700   }
//  701 
//  702   return ( networkStateNV );
??ZDApp_ReadNetworkRestoreState_0:
        MOV     A,R6
        MOV     R1,A
        LJMP    ??Subroutine38_0 & 0xFFFF
//  703 }
          CFI EndBlock cfiBlock5
//  704 
//  705 /*********************************************************************
//  706  * @fn      ZDAppDetermineDeviceType()
//  707  *
//  708  * @brief   Determines the type of device to start. 
//  709  *
//  710  *          Looks at zgDeviceLogicalType and determines what type of
//  711  *          device to start.  The types are:
//  712  *            ZG_DEVICETYPE_COORDINATOR
//  713  *            ZG_DEVICETYPE_ROUTER
//  714  *            ZG_DEVICETYPE_ENDDEVICE
//  715  *
//  716  * @param   none
//  717  *
//  718  * @return  none
//  719  */

        RSEG BANKED_CODE:HUGECODE:NOROOT(0)
//  720 void ZDAppDetermineDeviceType( void )
ZDAppDetermineDeviceType:
          CFI Block cfiBlock6 Using cfiCommon0
          CFI Function ZDAppDetermineDeviceType
        CODE
//  721 {
        FUNCALL ZDAppDetermineDeviceType, nwk_ExtPANIDValid
        LOCFRAME ISTACK, 2, STACK
        LOCFRAME PSTACK, 0, STACK
        LOCFRAME XSTACK, 0, STACK
        LOCFRAME IOVERLAY, 0, STATIC
        LOCFRAME DOVERLAY, 0, STATIC
        ARGFRAME ISTACK, 2, STACK
        ARGFRAME PSTACK, 0, STACK
        ARGFRAME XSTACK, 0, STACK
        ARGFRAME IOVERLAY, 0, STATIC
        ARGFRAME DOVERLAY, 0, STATIC
        PUSH    DPL
          CFI DPL0 Frame(CFA_SP, 4)
          CFI CFA_SP SP+-4
        PUSH    DPH
          CFI DPH0 Frame(CFA_SP, 5)
          CFI CFA_SP SP+-5
        ; Saved register size: 2
        ; Auto size: 0
//  722   if ( zgDeviceLogicalType == ZG_DEVICETYPE_COORDINATOR )
        MOV     DPTR,#zgDeviceLogicalType
        MOVX    A,@DPTR
        JNZ     ??ZDAppDetermineDeviceType_0
//  723   {
//  724     devStartMode = MODE_HARD;     // Start as a coordinator
        MOV     DPTR,#devStartMode
        MOV     A,#0x2
        MOVX    @DPTR,A
//  725     ZDO_Config_Node_Descriptor.LogicalType = NODETYPE_COORDINATOR;
        MOV     DPTR,#ZDO_Config_Node_Descriptor
        MOVX    A,@DPTR
        ANL     A,#0xf8
        SJMP    ??ZDAppDetermineDeviceType_1
//  726   }
//  727   else
//  728   {
//  729     if ( zgDeviceLogicalType == ZG_DEVICETYPE_ROUTER  )
??ZDAppDetermineDeviceType_0:
        XRL     A,#0x1
        JNZ     ??ZDAppDetermineDeviceType_2
//  730       ZDO_Config_Node_Descriptor.LogicalType = NODETYPE_ROUTER;
        MOV     DPTR,#ZDO_Config_Node_Descriptor
        MOVX    A,@DPTR
        ANL     A,#0xf8
        MOVX    @DPTR,A
        ORL     A,#0x1
        SJMP    ??ZDAppDetermineDeviceType_3
//  731     else if ( zgDeviceLogicalType == ZG_DEVICETYPE_ENDDEVICE )
??ZDAppDetermineDeviceType_2:
        MOVX    A,@DPTR
        XRL     A,#0x2
        JNZ     ??ZDAppDetermineDeviceType_4
//  732       ZDO_Config_Node_Descriptor.LogicalType = NODETYPE_DEVICE;
        MOV     DPTR,#ZDO_Config_Node_Descriptor
        MOVX    A,@DPTR
        ANL     A,#0xf8
        MOVX    @DPTR,A
        ORL     A,#0x2
??ZDAppDetermineDeviceType_3:
        MOVX    @DPTR,A
//  733     
//  734     // If AIB_apsUseExtendedPANID is set to a non-zero value by commissioning
//  735     // The device shall do rejoin the network. Otherwise, do normal join
//  736     if ( nwk_ExtPANIDValid( AIB_apsUseExtendedPANID ) == false )
??ZDAppDetermineDeviceType_4:
        ; Setup parameters for call to function nwk_ExtPANIDValid
        MOV     R2,#AIB_apsUseExtendedPANID & 0xff
        MOV     R3,#(AIB_apsUseExtendedPANID >> 8) & 0xff
        LCALL   `??nwk_ExtPANIDValid::?relay`; Banked call to: nwk_ExtPANIDValid
        MOV     A,R1
        MOV     DPTR,#devStartMode
        JNZ     ??ZDAppDetermineDeviceType_5
//  737     {
//  738       devStartMode = MODE_JOIN;     // Assume joining
        CLR     A
        SJMP    ??ZDAppDetermineDeviceType_1
//  739     }
//  740     else
//  741     {
//  742       devStartMode = MODE_REJOIN;  
??ZDAppDetermineDeviceType_5:
        MOV     A,#0x3
??ZDAppDetermineDeviceType_1:
        MOVX    @DPTR,A
//  743     }
//  744   }
//  745 }
        LJMP    ?Subroutine3 & 0xFFFF
          CFI EndBlock cfiBlock6
//  746 
//  747 /*********************************************************************
//  748  * @fn      ZDApp_NetworkStartEvt()
//  749  *
//  750  * @brief   Process the Network Start Event
//  751  *
//  752  * @param   none
//  753  *
//  754  * @return  none
//  755  */

        RSEG BANKED_CODE:HUGECODE:NOROOT(0)
//  756 void ZDApp_NetworkStartEvt( void )
ZDApp_NetworkStartEvt:
          CFI Block cfiBlock7 Using cfiCommon0
          CFI Function ZDApp_NetworkStartEvt
        CODE
//  757 {
        FUNCALL ZDApp_NetworkStartEvt, osal_pwrmgr_device
        LOCFRAME ISTACK, 2, STACK
        LOCFRAME PSTACK, 0, STACK
        LOCFRAME XSTACK, 0, STACK
        LOCFRAME IOVERLAY, 0, STATIC
        LOCFRAME DOVERLAY, 0, STATIC
        ARGFRAME ISTACK, 2, STACK
        ARGFRAME PSTACK, 0, STACK
        ARGFRAME XSTACK, 0, STACK
        ARGFRAME IOVERLAY, 0, STATIC
        ARGFRAME DOVERLAY, 0, STATIC
        FUNCALL ZDApp_NetworkStartEvt, osal_set_event
        LOCFRAME ISTACK, 2, STACK
        LOCFRAME PSTACK, 0, STACK
        LOCFRAME XSTACK, 0, STACK
        LOCFRAME IOVERLAY, 0, STATIC
        LOCFRAME DOVERLAY, 0, STATIC
        ARGFRAME ISTACK, 2, STACK
        ARGFRAME PSTACK, 0, STACK
        ARGFRAME XSTACK, 0, STACK
        ARGFRAME IOVERLAY, 0, STATIC
        ARGFRAME DOVERLAY, 0, STATIC
        FUNCALL ZDApp_NetworkStartEvt, NLME_GetEnergyThreshold
        LOCFRAME ISTACK, 2, STACK
        LOCFRAME PSTACK, 0, STACK
        LOCFRAME XSTACK, 0, STACK
        LOCFRAME IOVERLAY, 0, STATIC
        LOCFRAME DOVERLAY, 0, STATIC
        ARGFRAME ISTACK, 2, STACK
        ARGFRAME PSTACK, 0, STACK
        ARGFRAME XSTACK, 0, STACK
        ARGFRAME IOVERLAY, 0, STATIC
        ARGFRAME DOVERLAY, 0, STATIC
        FUNCALL ZDApp_NetworkStartEvt, NLME_GetEnergyThreshold
        LOCFRAME ISTACK, 2, STACK
        LOCFRAME PSTACK, 0, STACK
        LOCFRAME XSTACK, 0, STACK
        LOCFRAME IOVERLAY, 0, STATIC
        LOCFRAME DOVERLAY, 0, STATIC
        ARGFRAME ISTACK, 2, STACK
        ARGFRAME PSTACK, 0, STACK
        ARGFRAME XSTACK, 0, STACK
        ARGFRAME IOVERLAY, 0, STATIC
        ARGFRAME DOVERLAY, 0, STATIC
        FUNCALL ZDApp_NetworkStartEvt, NLME_SetEnergyThreshold
        LOCFRAME ISTACK, 2, STACK
        LOCFRAME PSTACK, 0, STACK
        LOCFRAME XSTACK, 0, STACK
        LOCFRAME IOVERLAY, 0, STATIC
        LOCFRAME DOVERLAY, 0, STATIC
        ARGFRAME ISTACK, 2, STACK
        ARGFRAME PSTACK, 0, STACK
        ARGFRAME XSTACK, 0, STACK
        ARGFRAME IOVERLAY, 0, STATIC
        ARGFRAME DOVERLAY, 0, STATIC
        FUNCALL ZDApp_NetworkStartEvt, osal_set_event
        LOCFRAME ISTACK, 2, STACK
        LOCFRAME PSTACK, 0, STACK
        LOCFRAME XSTACK, 0, STACK
        LOCFRAME IOVERLAY, 0, STATIC
        LOCFRAME DOVERLAY, 0, STATIC
        ARGFRAME ISTACK, 2, STACK
        ARGFRAME PSTACK, 0, STACK
        ARGFRAME XSTACK, 0, STACK
        ARGFRAME IOVERLAY, 0, STATIC
        ARGFRAME DOVERLAY, 0, STATIC
        FUNCALL ZDApp_NetworkStartEvt, osal_set_event
        LOCFRAME ISTACK, 2, STACK
        LOCFRAME PSTACK, 0, STACK
        LOCFRAME XSTACK, 0, STACK
        LOCFRAME IOVERLAY, 0, STATIC
        LOCFRAME DOVERLAY, 0, STATIC
        ARGFRAME ISTACK, 2, STACK
        ARGFRAME PSTACK, 0, STACK
        ARGFRAME XSTACK, 0, STACK
        ARGFRAME IOVERLAY, 0, STATIC
        ARGFRAME DOVERLAY, 0, STATIC
        PUSH    DPL
          CFI DPL0 Frame(CFA_SP, 4)
          CFI CFA_SP SP+-4
        PUSH    DPH
          CFI DPH0 Frame(CFA_SP, 5)
          CFI CFA_SP SP+-5
        ; Saved register size: 2
        ; Auto size: 0
//  758   if ( nwkStatus == ZSuccess )
        MOV     DPTR,#nwkStatus
        MOVX    A,@DPTR
        JNZ     ??ZDApp_NetworkStartEvt_0
//  759   {
//  760     // Successfully started a ZigBee network
//  761     if ( devState == DEV_COORD_STARTING )
        MOV     DPTR,#devState
        MOVX    A,@DPTR
        XRL     A,#0x8
        JNZ     ??ZDApp_NetworkStartEvt_1
//  762     {
//  763       devState = DEV_ZB_COORD;
        MOV     A,#0x9
        MOVX    @DPTR,A
//  764     }
//  765 
//  766     osal_pwrmgr_device( PWRMGR_ALWAYS_ON );
??ZDApp_NetworkStartEvt_1:
        ; Setup parameters for call to function osal_pwrmgr_device
        MOV     R1,#0x0
        LCALL   `??osal_pwrmgr_device::?relay`; Banked call to: osal_pwrmgr_device
//  767     osal_set_event( ZDAppTaskID, ZDO_STATE_CHANGE_EVT );
        ; Setup parameters for call to function osal_set_event
        SJMP    ??ZDApp_NetworkStartEvt_2
//  768   }
//  769   else
//  770   {
//  771     // Try again with a higher energy threshold !!
//  772     if ( ( NLME_GetEnergyThreshold() + ENERGY_SCAN_INCREMENT ) < 0xff )
??ZDApp_NetworkStartEvt_0:
        ; Setup parameters for call to function NLME_GetEnergyThreshold
        LCALL   `??NLME_GetEnergyThreshold::?relay`; Banked call to: NLME_GetEnergyThreshold
        MOV     A,R1
        MOV     R1,#0x0
        ADD     A,#0x10
        JNC     ??ZDApp_NetworkStartEvt_3
        INC     R1
??ZDApp_NetworkStartEvt_3:
        CLR     C
        SUBB    A,#-0x1
        MOV     A,R1
        SUBB    A,#0x0
        MOV     C,0xD0 /* PSW */.2
        XRL     A,PSW
        RLC     A
        JNC     ??ZDApp_NetworkStartEvt_4
//  773     {
//  774       NLME_SetEnergyThreshold( (uint8)(NLME_GetEnergyThreshold() + ENERGY_SCAN_INCREMENT) );
        ; Setup parameters for call to function NLME_GetEnergyThreshold
        LCALL   `??NLME_GetEnergyThreshold::?relay`; Banked call to: NLME_GetEnergyThreshold
        MOV     A,R1
        MOV     R0,A
        ; Setup parameters for call to function NLME_SetEnergyThreshold
        MOV     A,#0x10
        ADD     A,R1
        MOV     R1,A
        LCALL   `??NLME_SetEnergyThreshold::?relay`; Banked call to: NLME_SetEnergyThreshold
//  775       osal_set_event( ZDAppTaskID, ZDO_NETWORK_INIT );
        ; Setup parameters for call to function osal_set_event
        MOV     R2,#0x1
        SJMP    ??ZDApp_NetworkStartEvt_5
//  776     }
//  777     else
//  778     {
//  779       // Failed to start network. Enter a dormant state (until user intervenes)
//  780       devState = DEV_INIT;
??ZDApp_NetworkStartEvt_4:
        MOV     DPTR,#devState
        MOV     A,#0x1
        MOVX    @DPTR,A
//  781       osal_set_event( ZDAppTaskID, ZDO_STATE_CHANGE_EVT );
        ; Setup parameters for call to function osal_set_event
??ZDApp_NetworkStartEvt_2:
        MOV     R2,#0x10
??ZDApp_NetworkStartEvt_5:
        MOV     R3,#0x0
        MOV     DPTR,#ZDAppTaskID
        MOVX    A,@DPTR
        MOV     R1,A
        LCALL   `??osal_set_event::?relay`; Banked call to: osal_set_event
//  782     }
//  783   }
//  784 }
        LJMP    ?Subroutine3 & 0xFFFF
          CFI EndBlock cfiBlock7
//  785 
//  786 /*********************************************************************
//  787  * @fn      ZDApp_DeviceAuthEvt()
//  788  *
//  789  * @brief   Process the Device Authentic Event
//  790  *
//  791  * @param   none
//  792  *
//  793  * @return  none
//  794  */

        RSEG BANKED_CODE:HUGECODE:NOROOT(0)
//  795 void ZDApp_DeviceAuthEvt( void )
ZDApp_DeviceAuthEvt:
          CFI Block cfiBlock8 Using cfiCommon0
          CFI Function ZDApp_DeviceAuthEvt
        CODE
//  796 {
        FUNCALL ZDApp_DeviceAuthEvt, ZDApp_ResetTimerCancel
        LOCFRAME ISTACK, 2, STACK
        LOCFRAME PSTACK, 0, STACK
        LOCFRAME XSTACK, 0, STACK
        LOCFRAME IOVERLAY, 0, STATIC
        LOCFRAME DOVERLAY, 0, STATIC
        ARGFRAME ISTACK, 2, STACK
        ARGFRAME PSTACK, 0, STACK
        ARGFRAME XSTACK, 0, STACK
        ARGFRAME IOVERLAY, 0, STATIC
        ARGFRAME DOVERLAY, 0, STATIC
        FUNCALL ZDApp_DeviceAuthEvt, osal_set_event
        LOCFRAME ISTACK, 2, STACK
        LOCFRAME PSTACK, 0, STACK
        LOCFRAME XSTACK, 0, STACK
        LOCFRAME IOVERLAY, 0, STATIC
        LOCFRAME DOVERLAY, 0, STATIC
        ARGFRAME ISTACK, 2, STACK
        ARGFRAME PSTACK, 0, STACK
        ARGFRAME XSTACK, 0, STACK
        ARGFRAME IOVERLAY, 0, STATIC
        ARGFRAME DOVERLAY, 0, STATIC
        FUNCALL ZDApp_DeviceAuthEvt, ZDApp_SaveNwkKey
        LOCFRAME ISTACK, 2, STACK
        LOCFRAME PSTACK, 0, STACK
        LOCFRAME XSTACK, 0, STACK
        LOCFRAME IOVERLAY, 0, STATIC
        LOCFRAME DOVERLAY, 0, STATIC
        ARGFRAME ISTACK, 2, STACK
        ARGFRAME PSTACK, 0, STACK
        ARGFRAME XSTACK, 0, STACK
        ARGFRAME IOVERLAY, 0, STATIC
        ARGFRAME DOVERLAY, 0, STATIC
        FUNCALL ZDApp_DeviceAuthEvt, ZDApp_AnnounceNewAddress
        LOCFRAME ISTACK, 2, STACK
        LOCFRAME PSTACK, 0, STACK
        LOCFRAME XSTACK, 0, STACK
        LOCFRAME IOVERLAY, 0, STATIC
        LOCFRAME DOVERLAY, 0, STATIC
        ARGFRAME ISTACK, 2, STACK
        ARGFRAME PSTACK, 0, STACK
        ARGFRAME XSTACK, 0, STACK
        ARGFRAME IOVERLAY, 0, STATIC
        ARGFRAME DOVERLAY, 0, STATIC
        FUNCALL ZDApp_DeviceAuthEvt, NLME_SetPollRate
        LOCFRAME ISTACK, 2, STACK
        LOCFRAME PSTACK, 0, STACK
        LOCFRAME XSTACK, 0, STACK
        LOCFRAME IOVERLAY, 0, STATIC
        LOCFRAME DOVERLAY, 0, STATIC
        ARGFRAME ISTACK, 2, STACK
        ARGFRAME PSTACK, 0, STACK
        ARGFRAME XSTACK, 0, STACK
        ARGFRAME IOVERLAY, 0, STATIC
        ARGFRAME DOVERLAY, 0, STATIC
        PUSH    DPL
          CFI DPL0 Frame(CFA_SP, 4)
          CFI CFA_SP SP+-4
        PUSH    DPH
          CFI DPH0 Frame(CFA_SP, 5)
          CFI CFA_SP SP+-5
        ; Saved register size: 2
        ; Auto size: 0
//  797   // received authentication from trust center
//  798   if ( devState == DEV_END_DEVICE_UNAUTH )
        MOV     DPTR,#devState
        MOVX    A,@DPTR
        XRL     A,#0x5
        JNZ     ??ZDApp_DeviceAuthEvt_0
//  799   {
//  800     // Stop the reset timer so it doesn't reset
//  801     ZDApp_ResetTimerCancel();
        ; Setup parameters for call to function ZDApp_ResetTimerCancel
        LCALL   `??ZDApp_ResetTimerCancel::?relay`; Banked call to: ZDApp_ResetTimerCancel
//  802 
//  803     devState = DEV_END_DEVICE;
        LCALL   ?Subroutine12 & 0xFFFF
//  804     osal_set_event( ZDAppTaskID, ZDO_STATE_CHANGE_EVT );
??CrossCallReturnLabel_4:
        LCALL   `??osal_set_event::?relay`; Banked call to: osal_set_event
//  805 
//  806     // Set the Power Manager Device
//  807 #if defined ( POWER_SAVING )
//  808     osal_pwrmgr_device( PWRMGR_BATTERY );
//  809 #endif
//  810 
//  811     if ( ZSTACK_ROUTER_BUILD )
//  812     {
//  813       if ( ZDO_Config_Node_Descriptor.LogicalType != NODETYPE_DEVICE )
//  814       {
//  815         // NOTE: first two parameters are not used, see NLMEDE.h for details
//  816         NLME_StartRouterRequest( 0, 0, false );
//  817       }
//  818     }
//  819 
//  820     // Notify to save info into NV
//  821     ZDApp_NVUpdate();
//  822 
//  823     // Save off the security
//  824     ZDApp_SaveNwkKey();
        ; Setup parameters for call to function ZDApp_SaveNwkKey
        LCALL   `??ZDApp_SaveNwkKey::?relay`; Banked call to: ZDApp_SaveNwkKey
//  825 
//  826     ZDApp_AnnounceNewAddress();
        ; Setup parameters for call to function ZDApp_AnnounceNewAddress
        LCALL   `??ZDApp_AnnounceNewAddress::?relay`; Banked call to: ZDApp_AnnounceNewAddress
//  827     
//  828     if ( (ZDO_Config_Node_Descriptor.CapabilityFlags & CAPINFO_RCVR_ON_IDLE) == 0 )
        MOV     DPTR,#ZDO_Config_Node_Descriptor + 2
        MOVX    A,@DPTR
        MOV     C,0xE0 /* A   */.3
        JC      ??ZDApp_DeviceAuthEvt_0
//  829     {
//  830       NLME_SetPollRate( ZDApp_SavedPollRate );
        ; Setup parameters for call to function NLME_SetPollRate
        MOV     DPTR,#ZDApp_SavedPollRate
        MOVX    A,@DPTR
        MOV     R2,A
        INC     DPTR
        MOVX    A,@DPTR
        MOV     R3,A
        LCALL   `??NLME_SetPollRate::?relay`; Banked call to: NLME_SetPollRate
//  831     }
//  832   }
//  833   else
//  834   {
//  835     ZDApp_NVUpdate();
//  836   }
//  837 }
??ZDApp_DeviceAuthEvt_0:
        LJMP    ?Subroutine3 & 0xFFFF
          CFI EndBlock cfiBlock8
//  838 
//  839 /*********************************************************************
//  840  * @fn      ZDApp_SaveNetworkStateEvt()
//  841  *
//  842  * @brief   Process the Save the Network State Event
//  843  *
//  844  * @param   none
//  845  *
//  846  * @return  none
//  847  */

        RSEG BANKED_CODE:HUGECODE:NOROOT(0)
//  848 void ZDApp_SaveNetworkStateEvt( void )
ZDApp_SaveNetworkStateEvt:
          CFI Block cfiBlock9 Using cfiCommon0
          CFI Function ZDApp_SaveNetworkStateEvt
        CODE
//  849 {
        ; Saved register size: 0
        ; Auto size: 0
//  850 #if defined ( NV_RESTORE )
//  851  #if defined ( NV_TURN_OFF_RADIO )
//  852   // Turn off the radio's receiver during an NV update
//  853   uint8 RxOnIdle;
//  854   uint8 x = false;
//  855   ZMacGetReq( ZMacRxOnIdle, &RxOnIdle );
//  856   ZMacSetReq( ZMacRxOnIdle, &x );
//  857  #endif
//  858 
//  859   // Update the Network State in NV
//  860   NLME_UpdateNV( NWK_NV_NIB_ENABLE        |
//  861                  NWK_NV_DEVICELIST_ENABLE |
//  862                  NWK_NV_BINDING_ENABLE    |
//  863                  NWK_NV_ADDRMGR_ENABLE );
//  864 
//  865   // Reset the NV startup option to resume from NV by
//  866   // clearing the "New" join option.
//  867   zgWriteStartupOptions( FALSE, ZCD_STARTOPT_DEFAULT_NETWORK_STATE );
//  868 
//  869  #if defined ( NV_TURN_OFF_RADIO )
//  870   ZMacSetReq( ZMacRxOnIdle, &RxOnIdle );
//  871  #endif
//  872 #endif  // NV_RESTORE
//  873 }
        LJMP    ?BRET
          CFI EndBlock cfiBlock9
//  874 
//  875 /*********************************************************************
//  876  * @fn      ZDApp_RestoreNetworkState()
//  877  *
//  878  * @brief   This function will restore the network state of the
//  879  *          device if the network state is stored in NV.
//  880  *
//  881  * @param   none
//  882  *
//  883  * @return
//  884  *    ZDO_INITDEV_RESTORED_NETWORK_STATE  - The device's network state was
//  885  *          restored.
//  886  *    ZDO_INITDEV_NEW_NETWORK_STATE - The network state was not used.
//  887  *          This could mean that zgStartupOption said to not restore, or
//  888  *          it could mean that there was no network state to restore.
//  889  *
//  890  */

        RSEG BANKED_CODE:HUGECODE:NOROOT(0)
//  891 uint8 ZDApp_RestoreNetworkState( void )
ZDApp_RestoreNetworkState:
          CFI Block cfiBlock10 Using cfiCommon0
          CFI Function ZDApp_RestoreNetworkState
        CODE
//  892 {
        FUNCALL ZDApp_RestoreNetworkState, NLME_InitNV
        LOCFRAME ISTACK, 0, STACK
        LOCFRAME PSTACK, 0, STACK
        LOCFRAME XSTACK, 9, STACK
        LOCFRAME IOVERLAY, 0, STATIC
        LOCFRAME DOVERLAY, 0, STATIC
        ARGFRAME ISTACK, 0, STACK
        ARGFRAME PSTACK, 0, STACK
        ARGFRAME XSTACK, 9, STACK
        ARGFRAME IOVERLAY, 0, STATIC
        ARGFRAME DOVERLAY, 0, STATIC
        FUNCALL ZDApp_RestoreNetworkState, NLME_RestoreFromNV
        LOCFRAME ISTACK, 0, STACK
        LOCFRAME PSTACK, 0, STACK
        LOCFRAME XSTACK, 9, STACK
        LOCFRAME IOVERLAY, 0, STATIC
        LOCFRAME DOVERLAY, 0, STATIC
        ARGFRAME ISTACK, 0, STACK
        ARGFRAME PSTACK, 0, STACK
        ARGFRAME XSTACK, 9, STACK
        ARGFRAME IOVERLAY, 0, STATIC
        ARGFRAME DOVERLAY, 0, STATIC
        FUNCALL ZDApp_RestoreNetworkState, NLME_GetShortAddr
        LOCFRAME ISTACK, 0, STACK
        LOCFRAME PSTACK, 0, STACK
        LOCFRAME XSTACK, 9, STACK
        LOCFRAME IOVERLAY, 0, STATIC
        LOCFRAME DOVERLAY, 0, STATIC
        ARGFRAME ISTACK, 0, STACK
        ARGFRAME PSTACK, 0, STACK
        ARGFRAME XSTACK, 9, STACK
        ARGFRAME IOVERLAY, 0, STATIC
        ARGFRAME DOVERLAY, 0, STATIC
        FUNCALL ZDApp_RestoreNetworkState, sAddrExtCpy
        LOCFRAME ISTACK, 0, STACK
        LOCFRAME PSTACK, 0, STACK
        LOCFRAME XSTACK, 9, STACK
        LOCFRAME IOVERLAY, 0, STATIC
        LOCFRAME DOVERLAY, 0, STATIC
        ARGFRAME ISTACK, 0, STACK
        ARGFRAME PSTACK, 0, STACK
        ARGFRAME XSTACK, 9, STACK
        ARGFRAME IOVERLAY, 0, STATIC
        ARGFRAME DOVERLAY, 0, STATIC
        MOV     A,#-0x9
        LCALL   ?BANKED_ENTER_XDATA
          CFI DPH0 load(1, XDATA, add(CFA_XSP16, literal(-1)))
          CFI DPL0 load(1, XDATA, add(CFA_XSP16, literal(-2)))
          CFI ?BRET_EXT load(1, XDATA, add(CFA_XSP16, literal(-3)))
          CFI ?RET_HIGH load(1, XDATA, add(CFA_XSP16, literal(-4)))
          CFI ?RET_LOW load(1, XDATA, add(CFA_XSP16, literal(-5)))
          CFI R7 load(1, XDATA, add(CFA_XSP16, literal(-6)))
          CFI V0 load(1, XDATA, add(CFA_XSP16, literal(-7)))
          CFI VB load(1, XDATA, add(CFA_XSP16, literal(-8)))
          CFI R6 load(1, XDATA, add(CFA_XSP16, literal(-9)))
          CFI CFA_SP SP+0
          CFI CFA_XSP16 add(XSP16, 9)
        ; Saved register size: 9
        ; Auto size: 0
//  893   uint8 nvStat;
//  894 
//  895   // Initialize NWK NV items
//  896   nvStat = NLME_InitNV();
        ; Setup parameters for call to function NLME_InitNV
        LCALL   `??NLME_InitNV::?relay`; Banked call to: NLME_InitNV
        MOV     A,R1
        MOV     R6,A
//  897 
//  898   if ( nvStat != NV_OPER_FAILED )
        MOV     A,#0xa
        XRL     A,R6
        JZ      ??ZDApp_RestoreNetworkState_0
//  899   {
//  900     if ( NLME_RestoreFromNV() )
        ; Setup parameters for call to function NLME_RestoreFromNV
        LCALL   `??NLME_RestoreFromNV::?relay`; Banked call to: NLME_RestoreFromNV
        MOV     A,R1
        JZ      ??ZDApp_RestoreNetworkState_0
//  901     {
//  902       // Are we a coordinator
//  903       ZDAppNwkAddr.addr.shortAddr = NLME_GetShortAddr();
        ; Setup parameters for call to function NLME_GetShortAddr
        LCALL   `??NLME_GetShortAddr::?relay`; Banked call to: NLME_GetShortAddr
        MOV     DPTR,#ZDAppNwkAddr
        LCALL   ??Subroutine42_0 & 0xFFFF
//  904       if ( ZDAppNwkAddr.addr.shortAddr == 0 )
??CrossCallReturnLabel_64:
        MOV     DPTR,#ZDAppNwkAddr
        LCALL   ?Subroutine15 & 0xFFFF
??CrossCallReturnLabel_10:
        JNZ     ??ZDApp_RestoreNetworkState_1
//  905         ZDO_Config_Node_Descriptor.LogicalType = NODETYPE_COORDINATOR;
        MOV     DPTR,#ZDO_Config_Node_Descriptor
        MOVX    A,@DPTR
        ANL     A,#0xf8
        MOVX    @DPTR,A
//  906       devStartMode = MODE_RESUME;
??ZDApp_RestoreNetworkState_1:
        MOV     DPTR,#devStartMode
        MOV     A,#0x1
        LCALL   ?Subroutine13 & 0xFFFF
//  907       osal_cpyExtAddr( ZDO_UseExtendedPANID, _NIB.extendedPANID );
//  908     }
//  909     else
//  910       nvStat = NV_ITEM_UNINIT;
//  911 
//  912     if ( ZG_SECURE_ENABLED )
//  913     {
//  914       nwkFrameCounterChanges = 0;
//  915 
//  916       if ( ZG_BUILD_COORDINATOR_TYPE && ZG_DEVICE_COORDINATOR_TYPE )
//  917       {
//  918         ZDApp_RestoreNwkKey();
//  919       }
//  920     }
//  921 
//  922     // The default for RxOnWhenIdle is true for Routers and false for end devices
//  923     // [setup in the NLME_RestoreFromNV()].  Change it here if you want something
//  924     // other than default.
//  925   }
??CrossCallReturnLabel_6:
        LCALL   `??sAddrExtCpy::?relay`; Banked call to: sAddrExtCpy
//  926 
//  927   if ( nvStat == ZSUCCESS )
        MOV     A,R6
        JNZ     ??ZDApp_RestoreNetworkState_0
//  928     return ( ZDO_INITDEV_RESTORED_NETWORK_STATE );
        MOV     R1,#0x0
        SJMP    ??ZDApp_RestoreNetworkState_2
//  929   else
//  930     return ( ZDO_INITDEV_NEW_NETWORK_STATE );
??ZDApp_RestoreNetworkState_0:
        MOV     R1,#0x1
??ZDApp_RestoreNetworkState_2:
        LJMP    ??Subroutine38_0 & 0xFFFF
//  931 }
          CFI EndBlock cfiBlock10
//  932 
//  933 /*********************************************************************
//  934  * @fn      ZDApp_InitUserDesc()
//  935  *
//  936  * @brief   Initialize the User Descriptor, the descriptor is read from NV
//  937  *          when needed.  If you want to initialize the User descriptor to
//  938  *          something other than all zero, do it here.
//  939  *
//  940  * @param   none
//  941  *
//  942  * @return  none
//  943  */

        RSEG BANKED_CODE:HUGECODE:NOROOT(0)
//  944 void ZDApp_InitUserDesc( void )
ZDApp_InitUserDesc:
          CFI Block cfiBlock11 Using cfiCommon0
          CFI Function ZDApp_InitUserDesc
        CODE
//  945 {
        FUNCALL ZDApp_InitUserDesc, osal_memset
        LOCFRAME ISTACK, 0, STACK
        LOCFRAME PSTACK, 0, STACK
        LOCFRAME XSTACK, 27, STACK
        LOCFRAME IOVERLAY, 0, STATIC
        LOCFRAME DOVERLAY, 0, STATIC
        ARGFRAME ISTACK, 0, STACK
        ARGFRAME PSTACK, 0, STACK
        ARGFRAME XSTACK, 27, STACK
        ARGFRAME IOVERLAY, 0, STATIC
        ARGFRAME DOVERLAY, 0, STATIC
        FUNCALL ZDApp_InitUserDesc, osal_nv_item_init
        LOCFRAME ISTACK, 0, STACK
        LOCFRAME PSTACK, 0, STACK
        LOCFRAME XSTACK, 29, STACK
        LOCFRAME IOVERLAY, 0, STATIC
        LOCFRAME DOVERLAY, 0, STATIC
        ARGFRAME ISTACK, 0, STACK
        ARGFRAME PSTACK, 0, STACK
        ARGFRAME XSTACK, 29, STACK
        ARGFRAME IOVERLAY, 0, STATIC
        ARGFRAME DOVERLAY, 0, STATIC
        FUNCALL ZDApp_InitUserDesc, osal_nv_read
        LOCFRAME ISTACK, 0, STACK
        LOCFRAME PSTACK, 0, STACK
        LOCFRAME XSTACK, 31, STACK
        LOCFRAME IOVERLAY, 0, STATIC
        LOCFRAME DOVERLAY, 0, STATIC
        ARGFRAME ISTACK, 0, STACK
        ARGFRAME PSTACK, 0, STACK
        ARGFRAME XSTACK, 31, STACK
        ARGFRAME IOVERLAY, 0, STATIC
        ARGFRAME DOVERLAY, 0, STATIC
        REQUIRE ?V0
        REQUIRE ?V1
        MOV     A,#-0xa
        LCALL   ?BANKED_ENTER_XDATA
          CFI DPH0 load(1, XDATA, add(CFA_XSP16, literal(-1)))
          CFI DPL0 load(1, XDATA, add(CFA_XSP16, literal(-2)))
          CFI ?BRET_EXT load(1, XDATA, add(CFA_XSP16, literal(-3)))
          CFI ?RET_HIGH load(1, XDATA, add(CFA_XSP16, literal(-4)))
          CFI ?RET_LOW load(1, XDATA, add(CFA_XSP16, literal(-5)))
          CFI R7 load(1, XDATA, add(CFA_XSP16, literal(-6)))
          CFI V1 load(1, XDATA, add(CFA_XSP16, literal(-7)))
          CFI V0 load(1, XDATA, add(CFA_XSP16, literal(-8)))
          CFI VB load(1, XDATA, add(CFA_XSP16, literal(-9)))
          CFI R6 load(1, XDATA, add(CFA_XSP16, literal(-10)))
          CFI CFA_SP SP+0
          CFI CFA_XSP16 add(XSP16, 10)
        ; Saved register size: 10
        ; Auto size: 17
        MOV     A,#-0x11
        LCALL   ?ALLOC_XSTACK8
          CFI CFA_XSP16 add(XSP16, 27)
//  946   UserDescriptorFormat_t ZDO_DefaultUserDescriptor;
//  947 
//  948   // Initialize the User Descriptor, the descriptor is read from NV
//  949   // when needed.  If you want to initialize the User descriptor to something
//  950   // other than all zero, do it here.
//  951   osal_memset( &ZDO_DefaultUserDescriptor, 0, sizeof( UserDescriptorFormat_t ) );
        ; Setup parameters for call to function osal_memset
        MOV     R4,#0x11
        MOV     R5,#0x0
        MOV     R1,#0x0
        MOV     R2,?XSP + 0
        MOV     R3,?XSP + 1
        LCALL   `??osal_memset::?relay`; Banked call to: osal_memset
//  952   if ( ZSUCCESS == osal_nv_item_init( ZCD_NV_USERDESC,
//  953          sizeof(UserDescriptorFormat_t), (void*)&ZDO_DefaultUserDescriptor ) )
        ; Setup parameters for call to function osal_nv_item_init
        MOV     R0,?XSP + 0
        MOV     R1,?XSP + 1
        MOV     ?V0,R0
        MOV     ?V1,R1
        MOV     R0,#?V0
        LCALL   ?PUSH_XSTACK_I_TWO
          CFI CFA_XSP16 add(XSP16, 29)
        MOV     R4,#0x11
        MOV     R5,#0x0
        MOV     R2,#-0x7f
        MOV     R3,#0x0
        LCALL   `??osal_nv_item_init::?relay`; Banked call to: osal_nv_item_init
        MOV     A,#0x2
        LCALL   ?DEALLOC_XSTACK8
          CFI CFA_XSP16 add(XSP16, 27)
        MOV     A,R1
        JNZ     ??ZDApp_InitUserDesc_0
//  954   {
//  955     if ( ZSUCCESS == osal_nv_read( ZCD_NV_USERDESC, 0,
//  956          sizeof(UserDescriptorFormat_t), (void*)&ZDO_DefaultUserDescriptor ) )
        ; Setup parameters for call to function osal_nv_read
        MOV     R0,#?V0
        LCALL   ?PUSH_XSTACK_I_TWO
          CFI CFA_XSP16 add(XSP16, 29)
        MOV     ?V0,#0x11
        MOV     ?V1,#0x0
        MOV     R0,#?V0
        LCALL   ?PUSH_XSTACK_I_TWO
          CFI CFA_XSP16 add(XSP16, 31)
        MOV     R4,#0x0
        MOV     R5,#0x0
        MOV     R2,#-0x7f
        MOV     R3,#0x0
        LCALL   `??osal_nv_read::?relay`; Banked call to: osal_nv_read
        MOV     A,#0x4
        LCALL   ?DEALLOC_XSTACK8
          CFI CFA_XSP16 add(XSP16, 27)
        MOV     A,R1
        JNZ     ??ZDApp_InitUserDesc_0
//  957     {
//  958       if ( ZDO_DefaultUserDescriptor.len != 0 )
        MOV     DPL,?XSP + 0
        MOV     DPH,?XSP + 1
        MOVX    A,@DPTR
        JZ      ??ZDApp_InitUserDesc_0
//  959       {
//  960         ZDO_Config_Node_Descriptor.UserDescAvail = TRUE;
        MOV     DPTR,#ZDO_Config_Node_Descriptor
        MOVX    A,@DPTR
        SETB    0xE0 /* A   */.4
        MOVX    @DPTR,A
//  961       }
//  962     }
//  963   }
//  964 }
??ZDApp_InitUserDesc_0:
        MOV     A,#0x11
        LJMP    ??Subroutine34_0 & 0xFFFF
          CFI EndBlock cfiBlock11
//  965 
//  966 /*********************************************************************
//  967  * @fn      ZDAppCheckForHoldKey()
//  968  *
//  969  * @brief   Check for key to set the device into Hold Auto Start
//  970  *
//  971  * @param   none
//  972  *
//  973  * @return  none
//  974  */

        RSEG BANKED_CODE:HUGECODE:NOROOT(0)
//  975 void ZDAppCheckForHoldKey( void )
ZDAppCheckForHoldKey:
          CFI Block cfiBlock12 Using cfiCommon0
          CFI Function ZDAppCheckForHoldKey
        CODE
//  976 {
        FUNCALL ZDAppCheckForHoldKey, HalKeyRead
        LOCFRAME ISTACK, 2, STACK
        LOCFRAME PSTACK, 0, STACK
        LOCFRAME XSTACK, 0, STACK
        LOCFRAME IOVERLAY, 0, STATIC
        LOCFRAME DOVERLAY, 0, STATIC
        ARGFRAME ISTACK, 2, STACK
        ARGFRAME PSTACK, 0, STACK
        ARGFRAME XSTACK, 0, STACK
        ARGFRAME IOVERLAY, 0, STATIC
        ARGFRAME DOVERLAY, 0, STATIC
        PUSH    DPL
          CFI DPL0 Frame(CFA_SP, 4)
          CFI CFA_SP SP+-4
        PUSH    DPH
          CFI DPH0 Frame(CFA_SP, 5)
          CFI CFA_SP SP+-5
        ; Saved register size: 2
        ; Auto size: 0
//  977 #if (defined HAL_KEY) && (HAL_KEY == TRUE)
//  978   // Get Keypad directly to see if a HOLD_START is needed.
//  979   // Hold down the SW_BYPASS_START key (see OnBoard.h)
//  980   // while booting to avoid starting up the device.
//  981   if ( HalKeyRead () == SW_BYPASS_START)
        ; Setup parameters for call to function HalKeyRead
        LCALL   `??HalKeyRead::?relay`; Banked call to: HalKeyRead
        MOV     A,R1
        XRL     A,#0x1
        JNZ     ??ZDAppCheckForHoldKey_0
//  982   {
//  983     // Change the device state to HOLD on start up
//  984     devState = DEV_HOLD;
        MOV     DPTR,#devState
        CLR     A
        MOVX    @DPTR,A
//  985   }
//  986 #endif // HAL_KEY
//  987 }
??ZDAppCheckForHoldKey_0:
        LJMP    ?Subroutine3 & 0xFFFF
          CFI EndBlock cfiBlock12
//  988 
//  989 /*********************************************************************
//  990  * @fn      ZDApp_ProcessOSALMsg()
//  991  *
//  992  * @brief   Process the incoming task message.
//  993  *
//  994  * @param   msgPtr - message to process
//  995  *
//  996  * @return  none
//  997  */

        RSEG BANKED_CODE:HUGECODE:NOROOT(0)
//  998 void ZDApp_ProcessOSALMsg( osal_event_hdr_t *msgPtr )
ZDApp_ProcessOSALMsg:
          CFI Block cfiBlock13 Using cfiCommon0
          CFI Function ZDApp_ProcessOSALMsg
        CODE
//  999 {
        FUNCALL ZDApp_ProcessOSALMsg, ZDP_IncomingData
        LOCFRAME ISTACK, 0, STACK
        LOCFRAME PSTACK, 0, STACK
        LOCFRAME XSTACK, 11, STACK
        LOCFRAME IOVERLAY, 0, STATIC
        LOCFRAME DOVERLAY, 0, STATIC
        ARGFRAME ISTACK, 0, STACK
        ARGFRAME PSTACK, 0, STACK
        ARGFRAME XSTACK, 11, STACK
        ARGFRAME IOVERLAY, 0, STATIC
        ARGFRAME DOVERLAY, 0, STATIC
        FUNCALL ZDApp_ProcessOSALMsg, ZDApp_ProcessMsgCBs
        LOCFRAME ISTACK, 0, STACK
        LOCFRAME PSTACK, 0, STACK
        LOCFRAME XSTACK, 11, STACK
        LOCFRAME IOVERLAY, 0, STATIC
        LOCFRAME DOVERLAY, 0, STATIC
        ARGFRAME ISTACK, 0, STACK
        ARGFRAME PSTACK, 0, STACK
        ARGFRAME XSTACK, 11, STACK
        ARGFRAME IOVERLAY, 0, STATIC
        ARGFRAME DOVERLAY, 0, STATIC
        FUNCALL ZDApp_ProcessOSALMsg, ZDApp_NwkDescListProcessing
        LOCFRAME ISTACK, 0, STACK
        LOCFRAME PSTACK, 0, STACK
        LOCFRAME XSTACK, 11, STACK
        LOCFRAME IOVERLAY, 0, STATIC
        LOCFRAME DOVERLAY, 0, STATIC
        ARGFRAME ISTACK, 0, STACK
        ARGFRAME PSTACK, 0, STACK
        ARGFRAME XSTACK, 11, STACK
        ARGFRAME IOVERLAY, 0, STATIC
        ARGFRAME DOVERLAY, 0, STATIC
        FUNCALL ZDApp_ProcessOSALMsg, ZDApp_NodeProfileSync
        LOCFRAME ISTACK, 0, STACK
        LOCFRAME PSTACK, 0, STACK
        LOCFRAME XSTACK, 11, STACK
        LOCFRAME IOVERLAY, 0, STATIC
        LOCFRAME DOVERLAY, 0, STATIC
        ARGFRAME ISTACK, 0, STACK
        ARGFRAME PSTACK, 0, STACK
        ARGFRAME XSTACK, 11, STACK
        ARGFRAME IOVERLAY, 0, STATIC
        ARGFRAME DOVERLAY, 0, STATIC
        FUNCALL ZDApp_ProcessOSALMsg, NLME_JoinRequest
        LOCFRAME ISTACK, 0, STACK
        LOCFRAME PSTACK, 0, STACK
        LOCFRAME XSTACK, 15, STACK
        LOCFRAME IOVERLAY, 0, STATIC
        LOCFRAME DOVERLAY, 0, STATIC
        ARGFRAME ISTACK, 0, STACK
        ARGFRAME PSTACK, 0, STACK
        ARGFRAME XSTACK, 15, STACK
        ARGFRAME IOVERLAY, 0, STATIC
        ARGFRAME DOVERLAY, 0, STATIC
        FUNCALL ZDApp_ProcessOSALMsg, osal_rand
        LOCFRAME ISTACK, 0, STACK
        LOCFRAME PSTACK, 0, STACK
        LOCFRAME XSTACK, 11, STACK
        LOCFRAME IOVERLAY, 0, STATIC
        LOCFRAME DOVERLAY, 0, STATIC
        ARGFRAME ISTACK, 0, STACK
        ARGFRAME PSTACK, 0, STACK
        ARGFRAME XSTACK, 11, STACK
        ARGFRAME IOVERLAY, 0, STATIC
        ARGFRAME DOVERLAY, 0, STATIC
        FUNCALL ZDApp_ProcessOSALMsg, ZDApp_NetworkInit
        LOCFRAME ISTACK, 0, STACK
        LOCFRAME PSTACK, 0, STACK
        LOCFRAME XSTACK, 11, STACK
        LOCFRAME IOVERLAY, 0, STATIC
        LOCFRAME DOVERLAY, 0, STATIC
        ARGFRAME ISTACK, 0, STACK
        ARGFRAME PSTACK, 0, STACK
        ARGFRAME XSTACK, 11, STACK
        ARGFRAME IOVERLAY, 0, STATIC
        ARGFRAME DOVERLAY, 0, STATIC
        FUNCALL ZDApp_ProcessOSALMsg, osal_rand
        LOCFRAME ISTACK, 0, STACK
        LOCFRAME PSTACK, 0, STACK
        LOCFRAME XSTACK, 11, STACK
        LOCFRAME IOVERLAY, 0, STATIC
        LOCFRAME DOVERLAY, 0, STATIC
        ARGFRAME ISTACK, 0, STACK
        ARGFRAME PSTACK, 0, STACK
        ARGFRAME XSTACK, 11, STACK
        ARGFRAME IOVERLAY, 0, STATIC
        ARGFRAME DOVERLAY, 0, STATIC
        FUNCALL ZDApp_ProcessOSALMsg, ZMacSetReq
        LOCFRAME ISTACK, 0, STACK
        LOCFRAME PSTACK, 0, STACK
        LOCFRAME XSTACK, 11, STACK
        LOCFRAME IOVERLAY, 0, STATIC
        LOCFRAME DOVERLAY, 0, STATIC
        ARGFRAME ISTACK, 0, STACK
        ARGFRAME PSTACK, 0, STACK
        ARGFRAME XSTACK, 11, STACK
        ARGFRAME IOVERLAY, 0, STATIC
        ARGFRAME DOVERLAY, 0, STATIC
        FUNCALL ZDApp_ProcessOSALMsg, ZMacSetReq
        LOCFRAME ISTACK, 0, STACK
        LOCFRAME PSTACK, 0, STACK
        LOCFRAME XSTACK, 11, STACK
        LOCFRAME IOVERLAY, 0, STATIC
        LOCFRAME DOVERLAY, 0, STATIC
        ARGFRAME ISTACK, 0, STACK
        ARGFRAME PSTACK, 0, STACK
        ARGFRAME XSTACK, 11, STACK
        ARGFRAME IOVERLAY, 0, STATIC
        ARGFRAME DOVERLAY, 0, STATIC
        FUNCALL ZDApp_ProcessOSALMsg, ZMacSetReq
        LOCFRAME ISTACK, 0, STACK
        LOCFRAME PSTACK, 0, STACK
        LOCFRAME XSTACK, 11, STACK
        LOCFRAME IOVERLAY, 0, STATIC
        LOCFRAME DOVERLAY, 0, STATIC
        ARGFRAME ISTACK, 0, STACK
        ARGFRAME PSTACK, 0, STACK
        ARGFRAME XSTACK, 11, STACK
        ARGFRAME IOVERLAY, 0, STATIC
        ARGFRAME DOVERLAY, 0, STATIC
        FUNCALL ZDApp_ProcessOSALMsg, NLME_ReJoinRequest
        LOCFRAME ISTACK, 0, STACK
        LOCFRAME PSTACK, 0, STACK
        LOCFRAME XSTACK, 11, STACK
        LOCFRAME IOVERLAY, 0, STATIC
        LOCFRAME DOVERLAY, 0, STATIC
        ARGFRAME ISTACK, 0, STACK
        ARGFRAME PSTACK, 0, STACK
        ARGFRAME XSTACK, 11, STACK
        ARGFRAME IOVERLAY, 0, STATIC
        ARGFRAME DOVERLAY, 0, STATIC
        FUNCALL ZDApp_ProcessOSALMsg, osal_rand
        LOCFRAME ISTACK, 0, STACK
        LOCFRAME PSTACK, 0, STACK
        LOCFRAME XSTACK, 11, STACK
        LOCFRAME IOVERLAY, 0, STATIC
        LOCFRAME DOVERLAY, 0, STATIC
        ARGFRAME ISTACK, 0, STACK
        ARGFRAME PSTACK, 0, STACK
        ARGFRAME XSTACK, 11, STACK
        ARGFRAME IOVERLAY, 0, STATIC
        ARGFRAME DOVERLAY, 0, STATIC
        FUNCALL ZDApp_ProcessOSALMsg, ZDApp_NetworkInit
        LOCFRAME ISTACK, 0, STACK
        LOCFRAME PSTACK, 0, STACK
        LOCFRAME XSTACK, 11, STACK
        LOCFRAME IOVERLAY, 0, STATIC
        LOCFRAME DOVERLAY, 0, STATIC
        ARGFRAME ISTACK, 0, STACK
        ARGFRAME PSTACK, 0, STACK
        ARGFRAME XSTACK, 11, STACK
        ARGFRAME IOVERLAY, 0, STATIC
        ARGFRAME DOVERLAY, 0, STATIC
        FUNCALL ZDApp_ProcessOSALMsg, NLME_SetPollRate
        LOCFRAME ISTACK, 0, STACK
        LOCFRAME PSTACK, 0, STACK
        LOCFRAME XSTACK, 11, STACK
        LOCFRAME IOVERLAY, 0, STATIC
        LOCFRAME DOVERLAY, 0, STATIC
        ARGFRAME ISTACK, 0, STACK
        ARGFRAME PSTACK, 0, STACK
        ARGFRAME XSTACK, 11, STACK
        ARGFRAME IOVERLAY, 0, STATIC
        ARGFRAME DOVERLAY, 0, STATIC
        FUNCALL ZDApp_ProcessOSALMsg, NLME_SetQueuedPollRate
        LOCFRAME ISTACK, 0, STACK
        LOCFRAME PSTACK, 0, STACK
        LOCFRAME XSTACK, 11, STACK
        LOCFRAME IOVERLAY, 0, STATIC
        LOCFRAME DOVERLAY, 0, STATIC
        ARGFRAME ISTACK, 0, STACK
        ARGFRAME PSTACK, 0, STACK
        ARGFRAME XSTACK, 11, STACK
        ARGFRAME IOVERLAY, 0, STATIC
        ARGFRAME DOVERLAY, 0, STATIC
        FUNCALL ZDApp_ProcessOSALMsg, NLME_SetResponseRate
        LOCFRAME ISTACK, 0, STACK
        LOCFRAME PSTACK, 0, STACK
        LOCFRAME XSTACK, 11, STACK
        LOCFRAME IOVERLAY, 0, STATIC
        LOCFRAME DOVERLAY, 0, STATIC
        ARGFRAME ISTACK, 0, STACK
        ARGFRAME PSTACK, 0, STACK
        ARGFRAME XSTACK, 11, STACK
        ARGFRAME IOVERLAY, 0, STATIC
        ARGFRAME DOVERLAY, 0, STATIC
        FUNCALL ZDApp_ProcessOSALMsg, osal_rand
        LOCFRAME ISTACK, 0, STACK
        LOCFRAME PSTACK, 0, STACK
        LOCFRAME XSTACK, 11, STACK
        LOCFRAME IOVERLAY, 0, STATIC
        LOCFRAME DOVERLAY, 0, STATIC
        ARGFRAME ISTACK, 0, STACK
        ARGFRAME PSTACK, 0, STACK
        ARGFRAME XSTACK, 11, STACK
        ARGFRAME IOVERLAY, 0, STATIC
        ARGFRAME DOVERLAY, 0, STATIC
        FUNCALL ZDApp_ProcessOSALMsg, ZDApp_NetworkInit
        LOCFRAME ISTACK, 0, STACK
        LOCFRAME PSTACK, 0, STACK
        LOCFRAME XSTACK, 11, STACK
        LOCFRAME IOVERLAY, 0, STATIC
        LOCFRAME DOVERLAY, 0, STATIC
        ARGFRAME ISTACK, 0, STACK
        ARGFRAME PSTACK, 0, STACK
        ARGFRAME XSTACK, 11, STACK
        ARGFRAME IOVERLAY, 0, STATIC
        ARGFRAME DOVERLAY, 0, STATIC
        FUNCALL ZDApp_ProcessOSALMsg, ZDApp_ProcessNetworkJoin
        LOCFRAME ISTACK, 0, STACK
        LOCFRAME PSTACK, 0, STACK
        LOCFRAME XSTACK, 11, STACK
        LOCFRAME IOVERLAY, 0, STATIC
        LOCFRAME DOVERLAY, 0, STATIC
        ARGFRAME ISTACK, 0, STACK
        ARGFRAME PSTACK, 0, STACK
        ARGFRAME XSTACK, 11, STACK
        ARGFRAME IOVERLAY, 0, STATIC
        ARGFRAME DOVERLAY, 0, STATIC
        FUNCALL ZDApp_ProcessOSALMsg, sAddrExtCpy
        LOCFRAME ISTACK, 0, STACK
        LOCFRAME PSTACK, 0, STACK
        LOCFRAME XSTACK, 11, STACK
        LOCFRAME IOVERLAY, 0, STATIC
        LOCFRAME DOVERLAY, 0, STATIC
        ARGFRAME ISTACK, 0, STACK
        ARGFRAME PSTACK, 0, STACK
        ARGFRAME XSTACK, 11, STACK
        ARGFRAME IOVERLAY, 0, STATIC
        ARGFRAME DOVERLAY, 0, STATIC
        FUNCALL ZDApp_ProcessOSALMsg, ZDApp_NetworkInit
        LOCFRAME ISTACK, 0, STACK
        LOCFRAME PSTACK, 0, STACK
        LOCFRAME XSTACK, 11, STACK
        LOCFRAME IOVERLAY, 0, STATIC
        LOCFRAME DOVERLAY, 0, STATIC
        ARGFRAME ISTACK, 0, STACK
        ARGFRAME PSTACK, 0, STACK
        ARGFRAME XSTACK, 11, STACK
        ARGFRAME IOVERLAY, 0, STATIC
        ARGFRAME DOVERLAY, 0, STATIC
        REQUIRE ?V0
        REQUIRE ?V1
        MOV     A,#-0xa
        LCALL   ?BANKED_ENTER_XDATA
          CFI DPH0 load(1, XDATA, add(CFA_XSP16, literal(-1)))
          CFI DPL0 load(1, XDATA, add(CFA_XSP16, literal(-2)))
          CFI ?BRET_EXT load(1, XDATA, add(CFA_XSP16, literal(-3)))
          CFI ?RET_HIGH load(1, XDATA, add(CFA_XSP16, literal(-4)))
          CFI ?RET_LOW load(1, XDATA, add(CFA_XSP16, literal(-5)))
          CFI R7 load(1, XDATA, add(CFA_XSP16, literal(-6)))
          CFI V1 load(1, XDATA, add(CFA_XSP16, literal(-7)))
          CFI V0 load(1, XDATA, add(CFA_XSP16, literal(-8)))
          CFI VB load(1, XDATA, add(CFA_XSP16, literal(-9)))
          CFI R6 load(1, XDATA, add(CFA_XSP16, literal(-10)))
          CFI CFA_SP SP+0
          CFI CFA_XSP16 add(XSP16, 10)
        ; Saved register size: 10
        ; Auto size: 1
        MOV     A,#-0x1
        LCALL   ?ALLOC_XSTACK8
          CFI CFA_XSP16 add(XSP16, 11)
// 1000   // Data Confirmation message fields
// 1001   uint8 sentEP;       // This should always be 0
// 1002   uint8 sentStatus;
// 1003   afDataConfirm_t *afDataConfirm;
// 1004   uint8 tmp;
// 1005 
// 1006   switch ( msgPtr->event )
        MOV     DPL,R2
        MOV     DPH,R3
        MOVX    A,@DPTR
        DEC     A
        JZ      ??ZDApp_ProcessOSALMsg_0
        DEC     A
        JNZ     $+5
        LJMP    ??ZDApp_ProcessOSALMsg_1 & 0xFFFF
        DEC     A
        JNZ     $+5
        LJMP    ??ZDApp_ProcessOSALMsg_2 & 0xFFFF
        ADD     A,#-0x17
        JZ      ??ZDApp_ProcessOSALMsg_3
        ADD     A,#0x47
        JZ      ??ZDApp_ProcessOSALMsg_4
        LJMP    ??ZDApp_ProcessOSALMsg_5 & 0xFFFF
// 1007   {
// 1008     // Incoming ZDO Message
// 1009     case AF_INCOMING_MSG_CMD:
// 1010       ZDP_IncomingData( (afIncomingMSGPacket_t *)msgPtr );
??ZDApp_ProcessOSALMsg_3:
        ; Setup parameters for call to function ZDP_IncomingData
        LCALL   `??ZDP_IncomingData::?relay`; Banked call to: ZDP_IncomingData
// 1011       break;
        LJMP    ??ZDApp_ProcessOSALMsg_5 & 0xFFFF
// 1012       
// 1013     case ZDO_CB_MSG:
// 1014       ZDApp_ProcessMsgCBs( (zdoIncomingMsg_t *)msgPtr );
??ZDApp_ProcessOSALMsg_4:
        ; Setup parameters for call to function ZDApp_ProcessMsgCBs
        LCALL   `??ZDApp_ProcessMsgCBs::?relay`; Banked call to: ZDApp_ProcessMsgCBs
// 1015       break;
        LJMP    ??ZDApp_ProcessOSALMsg_5 & 0xFFFF
// 1016 
// 1017     case AF_DATA_CONFIRM_CMD:
// 1018       // This message is received as a confirmation of a data packet sent.
// 1019       // The status is of ZStatus_t type [defined in NLMEDE.h]
// 1020       // The message fields are defined in AF.h
// 1021       afDataConfirm = (afDataConfirm_t *)msgPtr;
// 1022       sentEP = afDataConfirm->endpoint;
// 1023       sentStatus = afDataConfirm->hdr.status;
// 1024 
// 1025       // Action taken when confirmation is received.
// 1026 #if defined ( ZIGBEE_FREQ_AGILITY )
// 1027       if ( pZDNwkMgr_ProcessDataConfirm )
// 1028         pZDNwkMgr_ProcessDataConfirm( afDataConfirm );
// 1029 #endif
// 1030       (void)sentEP;
// 1031       (void)sentStatus;
// 1032       break;
// 1033 
// 1034     case ZDO_NWK_DISC_CNF:
// 1035       if (devState != DEV_NWK_DISC)
??ZDApp_ProcessOSALMsg_0:
        MOV     DPTR,#devState
        MOVX    A,@DPTR
        XRL     A,#0x2
        JZ      $+5
        LJMP    ??ZDApp_ProcessOSALMsg_5 & 0xFFFF
// 1036         break;
// 1037       
// 1038       if ( ZG_BUILD_JOINING_TYPE && ZG_DEVICE_JOINING_TYPE )
        MOV     DPTR,#zgDeviceLogicalType
        MOVX    A,@DPTR
        XRL     A,#0x1
        JZ      ??ZDApp_ProcessOSALMsg_6
        MOVX    A,@DPTR
        XRL     A,#0x2
        JZ      $+5
        LJMP    ??ZDApp_ProcessOSALMsg_5 & 0xFFFF
// 1039       {
// 1040         // Process the network discovery scan results and choose a parent
// 1041         // device to join/rejoin itself
// 1042         networkDesc_t *pChosenNwk;                       
// 1043         if ( ( (pChosenNwk = ZDApp_NwkDescListProcessing()) != NULL ) && (zdoDiscCounter > NUM_DISC_ATTEMPTS) )
??ZDApp_ProcessOSALMsg_6:
        ; Setup parameters for call to function ZDApp_NwkDescListProcessing
        LCALL   `??ZDApp_NwkDescListProcessing::?relay`; Banked call to: ZDApp_NwkDescListProcessing
        MOV     ?V0,R2
        MOV     ?V1,R3
        MOV     R6,?V0
        MOV     R7,?V1
        MOV     A,R6
        ORL     A,R7
        JNZ     $+5
        LJMP    ??ZDApp_ProcessOSALMsg_7 & 0xFFFF
        MOV     DPTR,#zdoDiscCounter
        MOVX    A,@DPTR
        CLR     C
        SUBB    A,#0x3
        JNC     $+5
        LJMP    ??ZDApp_ProcessOSALMsg_7 & 0xFFFF
// 1044         {
// 1045           if ( devStartMode == MODE_JOIN )
        MOV     DPTR,#devStartMode
        MOVX    A,@DPTR
        JNZ     ??ZDApp_ProcessOSALMsg_8
// 1046           {            
// 1047             devState = DEV_NWK_JOINING;
        MOV     DPTR,#devState
        MOV     A,#0x3
        LCALL   ?Subroutine9 & 0xFFFF
// 1048             
// 1049             ZDApp_NodeProfileSync( pChosenNwk->stackProfile);
??CrossCallReturnLabel_0:
        MOVX    A,@DPTR
        MOV     R1,A
        LCALL   `??ZDApp_NodeProfileSync::?relay`; Banked call to: ZDApp_NodeProfileSync
// 1050             
// 1051             if ( NLME_JoinRequest( pChosenNwk->extendedPANID, pChosenNwk->panId,
// 1052                                   pChosenNwk->logicalChannel, 
// 1053                                   ZDO_Config_Node_Descriptor.CapabilityFlags, 
// 1054                                   pChosenNwk->chosenRouter, pChosenNwk->chosenRouterDepth ) != ZSuccess )
        ; Setup parameters for call to function NLME_JoinRequest
        MOV     DPL,R6
        MOV     DPH,R7
        INC     DPTR
        INC     DPTR
        INC     DPTR
        INC     DPTR
        INC     DPTR
        INC     DPTR
        INC     DPTR
        INC     DPTR
        INC     DPTR
        INC     DPTR
        MOVX    A,@DPTR
        MOV     ?V0,A
        MOV     R0,#?V0
        LCALL   ?PUSH_XSTACK_I_ONE
          CFI CFA_XSP16 add(XSP16, 12)
        MOV     DPL,R6
        MOV     DPH,R7
        INC     DPTR
        INC     DPTR
        INC     DPTR
        INC     DPTR
        INC     DPTR
        INC     DPTR
        INC     DPTR
        LCALL   ?PUSH_XSTACK8_X_TWO
          CFI CFA_XSP16 add(XSP16, 14)
        MOV     DPTR,#ZDO_Config_Node_Descriptor + 2
        MOVX    A,@DPTR
        MOV     ?V0,A
        MOV     R0,#?V0
        LCALL   ?PUSH_XSTACK_I_ONE
          CFI CFA_XSP16 add(XSP16, 15)
        MOV     DPL,R6
        MOV     DPH,R7
        INC     DPTR
        INC     DPTR
        MOVX    A,@DPTR
        MOV     R1,A
        MOV     DPL,R6
        MOV     DPH,R7
        MOVX    A,@DPTR
        MOV     R4,A
        INC     DPTR
        MOVX    A,@DPTR
        LCALL   ?Subroutine25 & 0xFFFF
// 1055             {
// 1056               ZDApp_NetworkInit( (uint16)(NWK_START_DELAY
// 1057                                           + ((uint16)(osal_rand()& EXTENDED_JOINING_RANDOM_MASK))) );
// 1058             }             
// 1059           } // if ( devStartMode == MODE_JOIN )
??CrossCallReturnLabel_45:
        LCALL   `??NLME_JoinRequest::?relay`; Banked call to: NLME_JoinRequest
        MOV     A,#0x4
        LCALL   ?DEALLOC_XSTACK8
          CFI CFA_XSP16 add(XSP16, 11)
        SJMP    ??ZDApp_ProcessOSALMsg_9
// 1060           else if ( devStartMode == MODE_REJOIN )
??ZDApp_ProcessOSALMsg_8:
        XRL     A,#0x3
        JNZ     ??ZDApp_ProcessOSALMsg_10
// 1061           {
// 1062             devState = DEV_NWK_REJOIN;
        MOV     DPTR,#devState
        MOV     A,#0x4
        MOVX    @DPTR,A
// 1063             
// 1064             // Before trying to do rejoin, check if the device has a valid short address
// 1065             // If not, generate a random short address for itself
// 1066             if ( _NIB.nwkDevAddress == INVALID_NODE_ADDR )
        MOV     DPTR,#_NIB + 20
        MOVX    A,@DPTR
        XRL     A,#0xfe
        JNZ     ??ZDApp_ProcessOSALMsg_11
        INC     DPTR
        MOVX    A,@DPTR
        CPL     A
??ZDApp_ProcessOSALMsg_11:
        JNZ     ??ZDApp_ProcessOSALMsg_12
// 1067             {
// 1068               _NIB.nwkDevAddress = osal_rand();
        ; Setup parameters for call to function osal_rand
        LCALL   `??osal_rand::?relay`; Banked call to: osal_rand
        MOV     DPTR,#_NIB + 20
        LCALL   ??Subroutine42_0 & 0xFFFF
// 1069               ZMacSetReq( ZMacShortAddress, (byte*)&_NIB.nwkDevAddress );
??CrossCallReturnLabel_65:
        ; Setup parameters for call to function ZMacSetReq
        MOV     R2,#(_NIB + 20) & 0xff
        MOV     R3,#((_NIB + 20) >> 8) & 0xff
        MOV     R1,#0x53
        LCALL   `??ZMacSetReq::?relay`; Banked call to: ZMacSetReq
// 1070             }
// 1071             
// 1072             if ( ZG_SECURE_ENABLED )
// 1073             {
// 1074               ZDApp_RestoreNwkKey();
// 1075             }
// 1076             
// 1077             // Check if the device has a valid PanID, if not, set it to the discovered Pan
// 1078             if ( _NIB.nwkPanId == INVALID_PAN_ID )
??ZDApp_ProcessOSALMsg_12:
        MOV     DPTR,#_NIB + 33
        MOVX    A,@DPTR
        XRL     A,#0xfe
        JNZ     ??ZDApp_ProcessOSALMsg_13
        INC     DPTR
        MOVX    A,@DPTR
        CPL     A
??ZDApp_ProcessOSALMsg_13:
        JNZ     ??ZDApp_ProcessOSALMsg_14
// 1079             {
// 1080               _NIB.nwkPanId = pChosenNwk->panId;
        LCALL   ?Subroutine16 & 0xFFFF
??CrossCallReturnLabel_60:
        MOV     DPTR,#_NIB + 33
        MOV     A,R0
        MOVX    @DPTR,A
        INC     DPTR
        MOV     A,R1
        MOVX    @DPTR,A
// 1081               ZMacSetReq( ZMacPanId, (byte*)&(_NIB.nwkPanId) );
        ; Setup parameters for call to function ZMacSetReq
        MOV     R2,#(_NIB + 33) & 0xff
        MOV     R3,#((_NIB + 33) >> 8) & 0xff
        MOV     R1,#0x50
        LCALL   `??ZMacSetReq::?relay`; Banked call to: ZMacSetReq
// 1082             }
// 1083             
// 1084             tmp = true;
??ZDApp_ProcessOSALMsg_14:
        MOV     DPL,?XSP + 0
        MOV     DPH,?XSP + 1
        MOV     A,#0x1
        MOVX    @DPTR,A
// 1085             ZMacSetReq( ZMacRxOnIdle, &tmp ); // Set receiver always on during rejoin 
        ; Setup parameters for call to function ZMacSetReq
        MOV     R2,?XSP + 0
        MOV     R3,?XSP + 1
        MOV     R1,#0x52
        LCALL   `??ZMacSetReq::?relay`; Banked call to: ZMacSetReq
// 1086             if ( NLME_ReJoinRequest( ZDO_UseExtendedPANID, pChosenNwk->logicalChannel) != ZSuccess )
        ; Setup parameters for call to function NLME_ReJoinRequest
        MOV     DPL,R6
        MOV     DPH,R7
        INC     DPTR
        INC     DPTR
        MOVX    A,@DPTR
        MOV     R1,A
        MOV     R2,#ZDO_UseExtendedPANID & 0xff
        MOV     R3,#(ZDO_UseExtendedPANID >> 8) & 0xff
        LCALL   `??NLME_ReJoinRequest::?relay`; Banked call to: NLME_ReJoinRequest
??ZDApp_ProcessOSALMsg_9:
        MOV     A,R1
        JZ      ??ZDApp_ProcessOSALMsg_10
// 1087             {
// 1088               ZDApp_NetworkInit( (uint16)(NWK_START_DELAY
// 1089                                           + ((uint16)(osal_rand()& EXTENDED_JOINING_RANDOM_MASK))) );
        ; Setup parameters for call to function osal_rand
        LCALL   `??osal_rand::?relay`; Banked call to: osal_rand
        ; Setup parameters for call to function ZDApp_NetworkInit
        MOV     A,R2
        ANL     A,#0x7f
        ADD     A,#0x64
        MOV     R2,A
        MOV     R3,#0x0
        LCALL   `??ZDApp_NetworkInit::?relay`; Banked call to: ZDApp_NetworkInit
// 1090             }
// 1091           } // else if ( devStartMode == MODE_REJOIN )
// 1092           
// 1093           if ( ZDO_Config_Node_Descriptor.CapabilityFlags & CAPINFO_RCVR_ON_IDLE )
??ZDApp_ProcessOSALMsg_10:
        MOV     DPTR,#ZDO_Config_Node_Descriptor + 2
        MOVX    A,@DPTR
        MOV     C,0xE0 /* A   */.3
        JNC     ??ZDApp_ProcessOSALMsg_5
// 1094           {
// 1095             // The receiver is on, turn network layer polling off.
// 1096             NLME_SetPollRate( 0 );
        ; Setup parameters for call to function NLME_SetPollRate
        MOV     R2,#0x0
        MOV     R3,#0x0
        LCALL   `??NLME_SetPollRate::?relay`; Banked call to: NLME_SetPollRate
// 1097             NLME_SetQueuedPollRate( 0 );
        ; Setup parameters for call to function NLME_SetQueuedPollRate
        MOV     R2,#0x0
        MOV     R3,#0x0
        LCALL   `??NLME_SetQueuedPollRate::?relay`; Banked call to: NLME_SetQueuedPollRate
// 1098             NLME_SetResponseRate( 0 );
        ; Setup parameters for call to function NLME_SetResponseRate
        MOV     R2,#0x0
        MOV     R3,#0x0
        LCALL   `??NLME_SetResponseRate::?relay`; Banked call to: NLME_SetResponseRate
        SJMP    ??ZDApp_ProcessOSALMsg_5
// 1099           }
// 1100           else
// 1101           {
// 1102             if ( (ZG_SECURE_ENABLED) && (devStartMode == MODE_JOIN) )
// 1103             {
// 1104               ZDApp_SavedPollRate = zgPollRate;
// 1105               NLME_SetPollRate( zgRejoinPollRate );
// 1106             }
// 1107           }
// 1108         }
// 1109         else
// 1110         {
// 1111           if ( continueJoining )
??ZDApp_ProcessOSALMsg_7:
        MOV     DPTR,#continueJoining
        MOVX    A,@DPTR
        JZ      ??ZDApp_ProcessOSALMsg_5
// 1112           {
// 1113     #if defined ( MANAGED_SCAN )
// 1114             ZDApp_NetworkInit( MANAGEDSCAN_DELAY_BETWEEN_SCANS );
// 1115     #else
// 1116             zdoDiscCounter++;
        MOV     DPTR,#zdoDiscCounter
        MOVX    A,@DPTR
        INC     A
        MOVX    @DPTR,A
// 1117             ZDApp_NetworkInit( (uint16)(BEACON_REQUEST_DELAY
// 1118                   + ((uint16)(osal_rand()& BEACON_REQ_DELAY_MASK))) );
        ; Setup parameters for call to function osal_rand
        LCALL   `??osal_rand::?relay`; Banked call to: osal_rand
        ; Setup parameters for call to function ZDApp_NetworkInit
        MOV     A,R2
        ADD     A,#0x64
        MOV     R2,A
        CLR     A
        ADDC    A,#0x0
        MOV     R3,A
        SJMP    ??ZDApp_ProcessOSALMsg_15
// 1119     #endif
// 1120           }
// 1121         }
// 1122       }
// 1123       break;
// 1124 
// 1125     case ZDO_NWK_JOIN_IND:
// 1126       if ( ZG_BUILD_JOINING_TYPE && ZG_DEVICE_JOINING_TYPE )
??ZDApp_ProcessOSALMsg_1:
        MOV     DPTR,#zgDeviceLogicalType
        MOVX    A,@DPTR
        XRL     A,#0x1
        JZ      ??ZDApp_ProcessOSALMsg_16
        MOVX    A,@DPTR
        XRL     A,#0x2
        JNZ     ??ZDApp_ProcessOSALMsg_5
// 1127       {
// 1128         ZDApp_ProcessNetworkJoin();
??ZDApp_ProcessOSALMsg_16:
        ; Setup parameters for call to function ZDApp_ProcessNetworkJoin
        LCALL   `??ZDApp_ProcessNetworkJoin::?relay`; Banked call to: ZDApp_ProcessNetworkJoin
        SJMP    ??ZDApp_ProcessOSALMsg_5
// 1129       }
// 1130       break;
// 1131 
// 1132     case ZDO_NWK_JOIN_REQ:
// 1133       if ( ZG_BUILD_JOINING_TYPE && ZG_DEVICE_JOINING_TYPE )
??ZDApp_ProcessOSALMsg_2:
        MOV     DPTR,#zgDeviceLogicalType
        MOVX    A,@DPTR
        XRL     A,#0x1
        JZ      ??ZDApp_ProcessOSALMsg_17
        MOVX    A,@DPTR
        XRL     A,#0x2
        JNZ     ??ZDApp_ProcessOSALMsg_5
// 1134       {
// 1135         retryCnt = 0;
??ZDApp_ProcessOSALMsg_17:
        MOV     DPTR,#retryCnt
        CLR     A
        MOVX    @DPTR,A
// 1136         devStartMode = MODE_RESUME;
        MOV     DPTR,#devStartMode
        INC     A
        MOVX    @DPTR,A
// 1137         _tmpRejoinState = true;
        MOV     DPTR,#_tmpRejoinState
        LCALL   ?Subroutine13 & 0xFFFF
// 1138         osal_cpyExtAddr( ZDO_UseExtendedPANID, _NIB.extendedPANID );
??CrossCallReturnLabel_7:
        LCALL   `??sAddrExtCpy::?relay`; Banked call to: sAddrExtCpy
// 1139         zgDefaultStartingScanDuration = BEACON_ORDER_60_MSEC;
        MOV     DPTR,#zgDefaultStartingScanDuration
        MOV     A,#0x2
        MOVX    @DPTR,A
// 1140         ZDApp_NetworkInit( 0 );
        ; Setup parameters for call to function ZDApp_NetworkInit
        MOV     R2,#0x0
        MOV     R3,#0x0
??ZDApp_ProcessOSALMsg_15:
        LCALL   `??ZDApp_NetworkInit::?relay`; Banked call to: ZDApp_NetworkInit
// 1141       }
// 1142       break;
// 1143 
// 1144     default:
// 1145       if ( ZG_SECURE_ENABLED )
// 1146         ZDApp_ProcessSecMsg( msgPtr );
// 1147       break;
// 1148   }
// 1149 
// 1150 }
??ZDApp_ProcessOSALMsg_5:
          CFI EndBlock cfiBlock13
        REQUIRE ?Subroutine7
        ; // Fall through to label ?Subroutine7

        RSEG BANKED_CODE:HUGECODE:NOROOT(0)
?Subroutine7:
          CFI Block cfiBlock14 Using cfiCommon0
          CFI NoFunction
          CFI CFA_SP SP+0
          CFI CFA_XSP16 add(XSP16, 11)
          CFI VB load(1, XDATA, add(CFA_XSP16, literal(-9)))
          CFI DPL0 load(1, XDATA, add(CFA_XSP16, literal(-2)))
          CFI DPH0 load(1, XDATA, add(CFA_XSP16, literal(-1)))
          CFI R6 load(1, XDATA, add(CFA_XSP16, literal(-10)))
          CFI R7 load(1, XDATA, add(CFA_XSP16, literal(-6)))
          CFI V0 load(1, XDATA, add(CFA_XSP16, literal(-8)))
          CFI V1 load(1, XDATA, add(CFA_XSP16, literal(-7)))
          CFI ?BRET_EXT load(1, XDATA, add(CFA_XSP16, literal(-3)))
          CFI ?RET_HIGH load(1, XDATA, add(CFA_XSP16, literal(-4)))
          CFI ?RET_LOW load(1, XDATA, add(CFA_XSP16, literal(-5)))
        MOV     A,#0x1
        LJMP    ??Subroutine34_0 & 0xFFFF
          CFI EndBlock cfiBlock14

        RSEG BANKED_CODE:HUGECODE:NOROOT(0)
?Subroutine25:
          CFI Block cfiCond15 Using cfiCommon0
          CFI Function ZDApp_ProcessOSALMsg
          CFI Conditional ??CrossCallReturnLabel_45
          CFI R6 load(1, XDATA, add(CFA_XSP16, literal(-10)))
          CFI VB load(1, XDATA, add(CFA_XSP16, literal(-9)))
          CFI V0 load(1, XDATA, add(CFA_XSP16, literal(-8)))
          CFI V1 load(1, XDATA, add(CFA_XSP16, literal(-7)))
          CFI R7 load(1, XDATA, add(CFA_XSP16, literal(-6)))
          CFI ?RET_LOW load(1, XDATA, add(CFA_XSP16, literal(-5)))
          CFI ?RET_HIGH load(1, XDATA, add(CFA_XSP16, literal(-4)))
          CFI ?BRET_EXT load(1, XDATA, add(CFA_XSP16, literal(-3)))
          CFI DPL0 load(1, XDATA, add(CFA_XSP16, literal(-2)))
          CFI DPH0 load(1, XDATA, add(CFA_XSP16, literal(-1)))
          CFI CFA_SP SP+-2
          CFI CFA_XSP16 add(XSP16, 15)
          CFI Block cfiCond16 Using cfiCommon0
          CFI (cfiCond16) Function ZDO_beaconNotifyIndCB
          CFI (cfiCond16) Conditional ??CrossCallReturnLabel_46
          CFI (cfiCond16) R6 load(1, XDATA, add(CFA_XSP16, literal(-14)))
          CFI (cfiCond16) VB load(1, XDATA, add(CFA_XSP16, literal(-13)))
          CFI (cfiCond16) V0 load(1, XDATA, add(CFA_XSP16, literal(-12)))
          CFI (cfiCond16) V1 load(1, XDATA, add(CFA_XSP16, literal(-11)))
          CFI (cfiCond16) V2 load(1, XDATA, add(CFA_XSP16, literal(-10)))
          CFI (cfiCond16) V3 load(1, XDATA, add(CFA_XSP16, literal(-9)))
          CFI (cfiCond16) V4 load(1, XDATA, add(CFA_XSP16, literal(-8)))
          CFI (cfiCond16) V5 load(1, XDATA, add(CFA_XSP16, literal(-7)))
          CFI (cfiCond16) R7 load(1, XDATA, add(CFA_XSP16, literal(-6)))
          CFI (cfiCond16) ?RET_LOW load(1, XDATA, add(CFA_XSP16, literal(-5)))
          CFI (cfiCond16) ?RET_HIGH load(1, XDATA, add(CFA_XSP16, literal(-4)))
          CFI (cfiCond16) ?BRET_EXT load(1, XDATA, add(CFA_XSP16, literal(-3)))
          CFI (cfiCond16) DPL0 load(1, XDATA, add(CFA_XSP16, literal(-2)))
          CFI (cfiCond16) DPH0 load(1, XDATA, add(CFA_XSP16, literal(-1)))
          CFI (cfiCond16) CFA_SP SP+-2
          CFI (cfiCond16) CFA_XSP16 add(XSP16, 14)
          CFI Block cfiPicker17 Using cfiCommon1
          CFI (cfiPicker17) NoFunction
          CFI (cfiPicker17) Picker
        MOV     R5,A
          CFI EndBlock cfiCond15
          CFI EndBlock cfiCond16
          CFI EndBlock cfiPicker17
        REQUIRE ??Subroutine33_0
        ; // Fall through to label ??Subroutine33_0

        RSEG BANKED_CODE:HUGECODE:NOROOT(0)
??Subroutine33_0:
          CFI Block cfiCond18 Using cfiCommon0
          CFI Function ZDO_beaconNotifyIndCB
          CFI Conditional ??CrossCallReturnLabel_44
          CFI R6 load(1, XDATA, add(CFA_XSP16, literal(-14)))
          CFI VB load(1, XDATA, add(CFA_XSP16, literal(-13)))
          CFI V0 load(1, XDATA, add(CFA_XSP16, literal(-12)))
          CFI V1 load(1, XDATA, add(CFA_XSP16, literal(-11)))
          CFI V2 load(1, XDATA, add(CFA_XSP16, literal(-10)))
          CFI V3 load(1, XDATA, add(CFA_XSP16, literal(-9)))
          CFI V4 load(1, XDATA, add(CFA_XSP16, literal(-8)))
          CFI V5 load(1, XDATA, add(CFA_XSP16, literal(-7)))
          CFI R7 load(1, XDATA, add(CFA_XSP16, literal(-6)))
          CFI ?RET_LOW load(1, XDATA, add(CFA_XSP16, literal(-5)))
          CFI ?RET_HIGH load(1, XDATA, add(CFA_XSP16, literal(-4)))
          CFI ?BRET_EXT load(1, XDATA, add(CFA_XSP16, literal(-3)))
          CFI DPL0 load(1, XDATA, add(CFA_XSP16, literal(-2)))
          CFI DPH0 load(1, XDATA, add(CFA_XSP16, literal(-1)))
          CFI CFA_SP SP+-2
          CFI CFA_XSP16 add(XSP16, 14)
          CFI Block cfiCond19 Using cfiCommon0
          CFI (cfiCond19) Function ZDApp_ProcessOSALMsg
          CFI (cfiCond19) Conditional ??CrossCallReturnLabel_45
          CFI (cfiCond19) R6 load(1, XDATA, add(CFA_XSP16, literal(-10)))
          CFI (cfiCond19) VB load(1, XDATA, add(CFA_XSP16, literal(-9)))
          CFI (cfiCond19) V0 load(1, XDATA, add(CFA_XSP16, literal(-8)))
          CFI (cfiCond19) V1 load(1, XDATA, add(CFA_XSP16, literal(-7)))
          CFI (cfiCond19) R7 load(1, XDATA, add(CFA_XSP16, literal(-6)))
          CFI (cfiCond19) ?RET_LOW load(1, XDATA, add(CFA_XSP16, literal(-5)))
          CFI (cfiCond19) ?RET_HIGH load(1, XDATA, add(CFA_XSP16, literal(-4)))
          CFI (cfiCond19) ?BRET_EXT load(1, XDATA, add(CFA_XSP16, literal(-3)))
          CFI (cfiCond19) DPL0 load(1, XDATA, add(CFA_XSP16, literal(-2)))
          CFI (cfiCond19) DPH0 load(1, XDATA, add(CFA_XSP16, literal(-1)))
          CFI (cfiCond19) CFA_SP SP+-2
          CFI (cfiCond19) CFA_XSP16 add(XSP16, 15)
          CFI Block cfiCond20 Using cfiCommon0
          CFI (cfiCond20) Function ZDO_beaconNotifyIndCB
          CFI (cfiCond20) Conditional ??CrossCallReturnLabel_46
          CFI (cfiCond20) R6 load(1, XDATA, add(CFA_XSP16, literal(-14)))
          CFI (cfiCond20) VB load(1, XDATA, add(CFA_XSP16, literal(-13)))
          CFI (cfiCond20) V0 load(1, XDATA, add(CFA_XSP16, literal(-12)))
          CFI (cfiCond20) V1 load(1, XDATA, add(CFA_XSP16, literal(-11)))
          CFI (cfiCond20) V2 load(1, XDATA, add(CFA_XSP16, literal(-10)))
          CFI (cfiCond20) V3 load(1, XDATA, add(CFA_XSP16, literal(-9)))
          CFI (cfiCond20) V4 load(1, XDATA, add(CFA_XSP16, literal(-8)))
          CFI (cfiCond20) V5 load(1, XDATA, add(CFA_XSP16, literal(-7)))
          CFI (cfiCond20) R7 load(1, XDATA, add(CFA_XSP16, literal(-6)))
          CFI (cfiCond20) ?RET_LOW load(1, XDATA, add(CFA_XSP16, literal(-5)))
          CFI (cfiCond20) ?RET_HIGH load(1, XDATA, add(CFA_XSP16, literal(-4)))
          CFI (cfiCond20) ?BRET_EXT load(1, XDATA, add(CFA_XSP16, literal(-3)))
          CFI (cfiCond20) DPL0 load(1, XDATA, add(CFA_XSP16, literal(-2)))
          CFI (cfiCond20) DPH0 load(1, XDATA, add(CFA_XSP16, literal(-1)))
          CFI (cfiCond20) CFA_SP SP+-2
          CFI (cfiCond20) CFA_XSP16 add(XSP16, 14)
          CFI Block cfiPicker21 Using cfiCommon1
          CFI (cfiPicker21) NoFunction
          CFI (cfiPicker21) Picker
        MOV     A,R6
        ADD     A,#0xb
        MOV     R2,A
        CLR     A
        ADDC    A,R7
        MOV     R3,A
        RET
          CFI EndBlock cfiCond18
          CFI EndBlock cfiCond19
          CFI EndBlock cfiCond20
          CFI EndBlock cfiPicker21

        RSEG BANKED_CODE:HUGECODE:NOROOT(0)
?Subroutine13:
          CFI Block cfiCond22 Using cfiCommon0
          CFI Function ZDApp_RestoreNetworkState
          CFI Conditional ??CrossCallReturnLabel_6
          CFI R6 load(1, XDATA, add(CFA_XSP16, literal(-9)))
          CFI VB load(1, XDATA, add(CFA_XSP16, literal(-8)))
          CFI V0 load(1, XDATA, add(CFA_XSP16, literal(-7)))
          CFI R7 load(1, XDATA, add(CFA_XSP16, literal(-6)))
          CFI ?RET_LOW load(1, XDATA, add(CFA_XSP16, literal(-5)))
          CFI ?RET_HIGH load(1, XDATA, add(CFA_XSP16, literal(-4)))
          CFI ?BRET_EXT load(1, XDATA, add(CFA_XSP16, literal(-3)))
          CFI DPL0 load(1, XDATA, add(CFA_XSP16, literal(-2)))
          CFI DPH0 load(1, XDATA, add(CFA_XSP16, literal(-1)))
          CFI CFA_SP SP+-2
          CFI CFA_XSP16 add(XSP16, 9)
          CFI Block cfiCond23 Using cfiCommon0
          CFI (cfiCond23) Function ZDApp_ProcessOSALMsg
          CFI (cfiCond23) Conditional ??CrossCallReturnLabel_7
          CFI (cfiCond23) R6 load(1, XDATA, add(CFA_XSP16, literal(-10)))
          CFI (cfiCond23) VB load(1, XDATA, add(CFA_XSP16, literal(-9)))
          CFI (cfiCond23) V0 load(1, XDATA, add(CFA_XSP16, literal(-8)))
          CFI (cfiCond23) V1 load(1, XDATA, add(CFA_XSP16, literal(-7)))
          CFI (cfiCond23) R7 load(1, XDATA, add(CFA_XSP16, literal(-6)))
          CFI (cfiCond23) ?RET_LOW load(1, XDATA, add(CFA_XSP16, literal(-5)))
          CFI (cfiCond23) ?RET_HIGH load(1, XDATA, add(CFA_XSP16, literal(-4)))
          CFI (cfiCond23) ?BRET_EXT load(1, XDATA, add(CFA_XSP16, literal(-3)))
          CFI (cfiCond23) DPL0 load(1, XDATA, add(CFA_XSP16, literal(-2)))
          CFI (cfiCond23) DPH0 load(1, XDATA, add(CFA_XSP16, literal(-1)))
          CFI (cfiCond23) CFA_SP SP+-2
          CFI (cfiCond23) CFA_XSP16 add(XSP16, 11)
          CFI Block cfiPicker24 Using cfiCommon1
          CFI (cfiPicker24) NoFunction
          CFI (cfiPicker24) Picker
        MOVX    @DPTR,A
        ; Setup parameters for call to function sAddrExtCpy
        ; Setup parameters for call to function sAddrExtCpy
        MOV     R4,#(_NIB + 53) & 0xff
        MOV     R5,#((_NIB + 53) >> 8) & 0xff
        MOV     R2,#ZDO_UseExtendedPANID & 0xff
        MOV     R3,#(ZDO_UseExtendedPANID >> 8) & 0xff
        RET
          CFI EndBlock cfiCond22
          CFI EndBlock cfiCond23
          CFI EndBlock cfiPicker24
// 1151 
// 1152 /*********************************************************************
// 1153  * @fn      ZDApp_ProcessMsgCBs()
// 1154  *
// 1155  * @brief   Process response messages
// 1156  *
// 1157  * @param   none
// 1158  *
// 1159  * @return  none
// 1160  */

        RSEG BANKED_CODE:HUGECODE:NOROOT(0)
// 1161 void ZDApp_ProcessMsgCBs( zdoIncomingMsg_t *inMsg )
ZDApp_ProcessMsgCBs:
          CFI Block cfiBlock25 Using cfiCommon0
          CFI Function ZDApp_ProcessMsgCBs
        CODE
// 1162 {
        FUNCALL ZDApp_ProcessMsgCBs, ZDO_ParseAddrRsp
        LOCFRAME ISTACK, 0, STACK
        LOCFRAME PSTACK, 0, STACK
        LOCFRAME XSTACK, 31, STACK
        LOCFRAME IOVERLAY, 0, STATIC
        LOCFRAME DOVERLAY, 0, STATIC
        ARGFRAME ISTACK, 0, STACK
        ARGFRAME PSTACK, 0, STACK
        ARGFRAME XSTACK, 31, STACK
        ARGFRAME IOVERLAY, 0, STATIC
        ARGFRAME DOVERLAY, 0, STATIC
        FUNCALL ZDApp_ProcessMsgCBs, ZDO_UpdateAddrManager
        LOCFRAME ISTACK, 0, STACK
        LOCFRAME PSTACK, 0, STACK
        LOCFRAME XSTACK, 31, STACK
        LOCFRAME IOVERLAY, 0, STATIC
        LOCFRAME DOVERLAY, 0, STATIC
        ARGFRAME ISTACK, 0, STACK
        ARGFRAME PSTACK, 0, STACK
        ARGFRAME XSTACK, 31, STACK
        ARGFRAME IOVERLAY, 0, STATIC
        ARGFRAME DOVERLAY, 0, STATIC
        FUNCALL ZDApp_ProcessMsgCBs, osal_mem_free
        LOCFRAME ISTACK, 0, STACK
        LOCFRAME PSTACK, 0, STACK
        LOCFRAME XSTACK, 31, STACK
        LOCFRAME IOVERLAY, 0, STATIC
        LOCFRAME DOVERLAY, 0, STATIC
        ARGFRAME ISTACK, 0, STACK
        ARGFRAME PSTACK, 0, STACK
        ARGFRAME XSTACK, 31, STACK
        ARGFRAME IOVERLAY, 0, STATIC
        ARGFRAME DOVERLAY, 0, STATIC
        FUNCALL ZDApp_ProcessMsgCBs, ZDO_ParseBindUnbindReq
        LOCFRAME ISTACK, 0, STACK
        LOCFRAME PSTACK, 0, STACK
        LOCFRAME XSTACK, 31, STACK
        LOCFRAME IOVERLAY, 0, STATIC
        LOCFRAME DOVERLAY, 0, STATIC
        ARGFRAME ISTACK, 0, STACK
        ARGFRAME PSTACK, 0, STACK
        ARGFRAME XSTACK, 31, STACK
        ARGFRAME IOVERLAY, 0, STATIC
        ARGFRAME DOVERLAY, 0, STATIC
        FUNCALL ZDApp_ProcessMsgCBs, ZDO_ProcessBindUnbindReq
        LOCFRAME ISTACK, 0, STACK
        LOCFRAME PSTACK, 0, STACK
        LOCFRAME XSTACK, 31, STACK
        LOCFRAME IOVERLAY, 0, STATIC
        LOCFRAME DOVERLAY, 0, STATIC
        ARGFRAME ISTACK, 0, STACK
        ARGFRAME PSTACK, 0, STACK
        ARGFRAME XSTACK, 31, STACK
        ARGFRAME IOVERLAY, 0, STATIC
        ARGFRAME DOVERLAY, 0, STATIC
        REQUIRE ?V0
        REQUIRE ?V1
        MOV     A,#-0xa
        LCALL   ?BANKED_ENTER_XDATA
          CFI DPH0 load(1, XDATA, add(CFA_XSP16, literal(-1)))
          CFI DPL0 load(1, XDATA, add(CFA_XSP16, literal(-2)))
          CFI ?BRET_EXT load(1, XDATA, add(CFA_XSP16, literal(-3)))
          CFI ?RET_HIGH load(1, XDATA, add(CFA_XSP16, literal(-4)))
          CFI ?RET_LOW load(1, XDATA, add(CFA_XSP16, literal(-5)))
          CFI R7 load(1, XDATA, add(CFA_XSP16, literal(-6)))
          CFI V1 load(1, XDATA, add(CFA_XSP16, literal(-7)))
          CFI V0 load(1, XDATA, add(CFA_XSP16, literal(-8)))
          CFI VB load(1, XDATA, add(CFA_XSP16, literal(-9)))
          CFI R6 load(1, XDATA, add(CFA_XSP16, literal(-10)))
          CFI CFA_SP SP+0
          CFI CFA_XSP16 add(XSP16, 10)
        ; Saved register size: 10
        ; Auto size: 21
        MOV     A,#-0x15
        LCALL   ?ALLOC_XSTACK8
          CFI CFA_XSP16 add(XSP16, 31)
        MOV     A,R2
        MOV     R6,A
        MOV     A,R3
        MOV     R7,A
// 1163   switch ( inMsg->clusterID )
        LCALL   ?Subroutine23 & 0xFFFF
??CrossCallReturnLabel_26:
        MOV     ?V1,A
        MOV     R0,#?V0
        LCALL   ?US_SWITCH_SPARSE
`?<Jumptable for ZDApp_ProcessMsgCBs>_0`:
        DATA
        DATA16
        DATA
        DATA16
        DATA
        DATA16
        DW        2
        DATA
        DATA16
        DATA
        DATA16
        DATA
        DATA16
        DW        33
        DATA
        DATA16
        DATA
        DATA16
        DW        34
        DATA
        DATA16
        DATA
        DATA16
        DATA
        DATA16
        DW        ??ZDApp_ProcessMsgCBs_0
        DATA
        DATA16
        DATA
        DATA16
        DATA
        DATA16
        DW        32768
        DATA
        DATA16
        DATA
        DATA16
        DW        32769
        DATA
        DATA16
        DATA
        DATA16
        DATA
        DATA16
        DW        ??ZDApp_ProcessMsgCBs_1
        DATA
        DATA16
        DATA
        DATA16
        DATA
        DATA16
        DW        0
        DATA
        DATA16
        DATA
        DATA16
        DW        ??ZDApp_ProcessMsgCBs_2
        CODE
// 1164   {
// 1165 #if defined ( ZDO_NWKADDR_REQUEST ) || defined ( ZDO_IEEEADDR_REQUEST ) || defined ( REFLECTOR )
// 1166     case NWK_addr_rsp:
// 1167     case IEEE_addr_rsp:
// 1168       {
// 1169         ZDO_NwkIEEEAddrResp_t *pAddrRsp;
// 1170         pAddrRsp = ZDO_ParseAddrRsp( inMsg );
??ZDApp_ProcessMsgCBs_1:
        ; Setup parameters for call to function ZDO_ParseAddrRsp
        LCALL   `??ZDO_ParseAddrRsp::?relay`; Banked call to: ZDO_ParseAddrRsp
        MOV     ?V0,R2
        MOV     ?V1,R3
        MOV     R6,?V0
        MOV     R7,?V1
// 1171         if ( pAddrRsp )
        MOV     A,R6
        ORL     A,R7
        JZ      ??ZDApp_ProcessMsgCBs_2
// 1172         {
// 1173           if ( pAddrRsp->status == ZSuccess )
        MOV     DPL,R6
        MOV     DPH,R7
        MOVX    A,@DPTR
        JNZ     ??ZDApp_ProcessMsgCBs_3
// 1174           {
// 1175             ZDO_UpdateAddrManager( pAddrRsp->nwkAddr, pAddrRsp->extAddr );
        ; Setup parameters for call to function ZDO_UpdateAddrManager
        MOV     A,R6
        ADD     A,#0x3
        MOV     R4,A
        CLR     A
        ADDC    A,R7
        MOV     R5,A
        INC     DPTR
        MOVX    A,@DPTR
        MOV     R2,A
        INC     DPTR
        MOVX    A,@DPTR
        MOV     R3,A
        LCALL   `??ZDO_UpdateAddrManager::?relay`; Banked call to: ZDO_UpdateAddrManager
// 1176           }
// 1177           osal_mem_free( pAddrRsp );
??ZDApp_ProcessMsgCBs_3:
        ; Setup parameters for call to function osal_mem_free
        MOV     A,R6
        MOV     R2,A
        MOV     A,R7
        MOV     R3,A
        LCALL   `??osal_mem_free::?relay`; Banked call to: osal_mem_free
        SJMP    ??ZDApp_ProcessMsgCBs_2
// 1178         }
// 1179       }
// 1180       break;
// 1181 #endif
// 1182       
// 1183 #if defined ( REFLECTOR )
// 1184     case Bind_req:
// 1185     case Unbind_req:
// 1186       {
// 1187         ZDO_BindUnbindReq_t bindReq;
// 1188         ZDO_ParseBindUnbindReq( inMsg, &bindReq );
??ZDApp_ProcessMsgCBs_0:
        ; Setup parameters for call to function ZDO_ParseBindUnbindReq
        MOV     R4,?XSP + 0
        MOV     R5,?XSP + 1
        LCALL   `??ZDO_ParseBindUnbindReq::?relay`; Banked call to: ZDO_ParseBindUnbindReq
// 1189         ZDO_ProcessBindUnbindReq( inMsg, &bindReq );
        ; Setup parameters for call to function ZDO_ProcessBindUnbindReq
        MOV     R4,?XSP + 0
        MOV     R5,?XSP + 1
        MOV     A,R6
        MOV     R2,A
        MOV     A,R7
        MOV     R3,A
        LCALL   `??ZDO_ProcessBindUnbindReq::?relay`; Banked call to: ZDO_ProcessBindUnbindReq
// 1190       }
// 1191       break;
// 1192 #endif      
// 1193 
// 1194 #if ( ZG_BUILD_COORDINATOR_TYPE )
// 1195     case Bind_rsp:
// 1196     case Unbind_rsp:
// 1197       if (ZG_DEVICE_COORDINATOR_TYPE && matchED)
// 1198       {
// 1199         ZDMatchSendState(
// 1200              (uint8)((inMsg->clusterID == Bind_rsp) ? ZDMATCH_REASON_BIND_RSP : ZDMATCH_REASON_UNBIND_RSP),
// 1201              ZDO_ParseBindRsp(inMsg), inMsg->TransSeq );
// 1202       }
// 1203       break;
// 1204       
// 1205     case End_Device_Bind_req:
// 1206       if (ZG_DEVICE_COORDINATOR_TYPE)
// 1207       {
// 1208         ZDEndDeviceBind_t bindReq;
// 1209         ZDO_ParseEndDeviceBindReq( inMsg, &bindReq );
// 1210         ZDO_MatchEndDeviceBind( &bindReq );
// 1211         
// 1212         // Freeing the cluster lists - if allocated.
// 1213         if ( bindReq.numInClusters )
// 1214           osal_mem_free( bindReq.inClusters );
// 1215         if ( bindReq.numOutClusters )
// 1216           osal_mem_free( bindReq.outClusters );
// 1217       }
// 1218       break;
// 1219 #endif
// 1220   }
// 1221 }
??ZDApp_ProcessMsgCBs_2:
          CFI EndBlock cfiBlock25
        REQUIRE ?Subroutine8
        ; // Fall through to label ?Subroutine8

        RSEG BANKED_CODE:HUGECODE:NOROOT(0)
?Subroutine8:
          CFI Block cfiBlock26 Using cfiCommon0
          CFI NoFunction
          CFI CFA_SP SP+0
          CFI CFA_XSP16 add(XSP16, 31)
          CFI VB load(1, XDATA, add(CFA_XSP16, literal(-9)))
          CFI DPL0 load(1, XDATA, add(CFA_XSP16, literal(-2)))
          CFI DPH0 load(1, XDATA, add(CFA_XSP16, literal(-1)))
          CFI R6 load(1, XDATA, add(CFA_XSP16, literal(-10)))
          CFI R7 load(1, XDATA, add(CFA_XSP16, literal(-6)))
          CFI V0 load(1, XDATA, add(CFA_XSP16, literal(-8)))
          CFI V1 load(1, XDATA, add(CFA_XSP16, literal(-7)))
          CFI ?BRET_EXT load(1, XDATA, add(CFA_XSP16, literal(-3)))
          CFI ?RET_HIGH load(1, XDATA, add(CFA_XSP16, literal(-4)))
          CFI ?RET_LOW load(1, XDATA, add(CFA_XSP16, literal(-5)))
        MOV     A,#0x15
        LJMP    ??Subroutine34_0 & 0xFFFF
          CFI EndBlock cfiBlock26
// 1222 
// 1223 /*********************************************************************
// 1224  * @fn      ZDApp_RegisterCBs()
// 1225  *
// 1226  * @brief   Process response messages
// 1227  *
// 1228  * @param   none
// 1229  *
// 1230  * @return  none
// 1231  */

        RSEG BANKED_CODE:HUGECODE:NOROOT(0)
// 1232 void ZDApp_RegisterCBs( void )
ZDApp_RegisterCBs:
          CFI Block cfiBlock27 Using cfiCommon0
          CFI Function ZDApp_RegisterCBs
        CODE
// 1233 {
        FUNCALL ZDApp_RegisterCBs, ZDO_RegisterForZDOMsg
        LOCFRAME ISTACK, 2, STACK
        LOCFRAME PSTACK, 0, STACK
        LOCFRAME XSTACK, 0, STACK
        LOCFRAME IOVERLAY, 0, STATIC
        LOCFRAME DOVERLAY, 0, STATIC
        ARGFRAME ISTACK, 2, STACK
        ARGFRAME PSTACK, 0, STACK
        ARGFRAME XSTACK, 0, STACK
        ARGFRAME IOVERLAY, 0, STATIC
        ARGFRAME DOVERLAY, 0, STATIC
        FUNCALL ZDApp_RegisterCBs, ZDO_RegisterForZDOMsg
        LOCFRAME ISTACK, 2, STACK
        LOCFRAME PSTACK, 0, STACK
        LOCFRAME XSTACK, 0, STACK
        LOCFRAME IOVERLAY, 0, STATIC
        LOCFRAME DOVERLAY, 0, STATIC
        ARGFRAME ISTACK, 2, STACK
        ARGFRAME PSTACK, 0, STACK
        ARGFRAME XSTACK, 0, STACK
        ARGFRAME IOVERLAY, 0, STATIC
        ARGFRAME DOVERLAY, 0, STATIC
        FUNCALL ZDApp_RegisterCBs, ZDO_RegisterForZDOMsg
        LOCFRAME ISTACK, 2, STACK
        LOCFRAME PSTACK, 0, STACK
        LOCFRAME XSTACK, 0, STACK
        LOCFRAME IOVERLAY, 0, STATIC
        LOCFRAME DOVERLAY, 0, STATIC
        ARGFRAME ISTACK, 2, STACK
        ARGFRAME PSTACK, 0, STACK
        ARGFRAME XSTACK, 0, STACK
        ARGFRAME IOVERLAY, 0, STATIC
        ARGFRAME DOVERLAY, 0, STATIC
        FUNCALL ZDApp_RegisterCBs, ZDO_RegisterForZDOMsg
        LOCFRAME ISTACK, 2, STACK
        LOCFRAME PSTACK, 0, STACK
        LOCFRAME XSTACK, 0, STACK
        LOCFRAME IOVERLAY, 0, STATIC
        LOCFRAME DOVERLAY, 0, STATIC
        ARGFRAME ISTACK, 2, STACK
        ARGFRAME PSTACK, 0, STACK
        ARGFRAME XSTACK, 0, STACK
        ARGFRAME IOVERLAY, 0, STATIC
        ARGFRAME DOVERLAY, 0, STATIC
        PUSH    DPL
          CFI DPL0 Frame(CFA_SP, 4)
          CFI CFA_SP SP+-4
        PUSH    DPH
          CFI DPH0 Frame(CFA_SP, 5)
          CFI CFA_SP SP+-5
        ; Saved register size: 2
        ; Auto size: 0
// 1234 #if defined ( ZDO_IEEEADDR_REQUEST ) || defined ( REFLECTOR )
// 1235   ZDO_RegisterForZDOMsg( ZDAppTaskID, IEEE_addr_rsp );
        ; Setup parameters for call to function ZDO_RegisterForZDOMsg
        MOV     R2,#0x1
        MOV     R3,#-0x80
        MOV     DPTR,#ZDAppTaskID
        MOVX    A,@DPTR
        MOV     R1,A
        LCALL   `??ZDO_RegisterForZDOMsg::?relay`; Banked call to: ZDO_RegisterForZDOMsg
// 1236 #endif
// 1237 #if defined ( ZDO_NWKADDR_REQUEST ) || defined ( REFLECTOR )
// 1238   ZDO_RegisterForZDOMsg( ZDAppTaskID, NWK_addr_rsp );
        ; Setup parameters for call to function ZDO_RegisterForZDOMsg
        MOV     R2,#0x0
        MOV     R3,#-0x80
        MOV     DPTR,#ZDAppTaskID
        MOVX    A,@DPTR
        MOV     R1,A
        LCALL   `??ZDO_RegisterForZDOMsg::?relay`; Banked call to: ZDO_RegisterForZDOMsg
// 1239 #endif  
// 1240 #if ZG_BUILD_COORDINATOR_TYPE
// 1241   ZDO_RegisterForZDOMsg( ZDAppTaskID, Bind_rsp );
// 1242   ZDO_RegisterForZDOMsg( ZDAppTaskID, Unbind_rsp );
// 1243   ZDO_RegisterForZDOMsg( ZDAppTaskID, End_Device_Bind_req );
// 1244 #endif
// 1245 #if defined ( REFLECTOR )
// 1246   ZDO_RegisterForZDOMsg( ZDAppTaskID, Bind_req );
        ; Setup parameters for call to function ZDO_RegisterForZDOMsg
        MOV     R2,#0x21
        MOV     R3,#0x0
        MOV     DPTR,#ZDAppTaskID
        MOVX    A,@DPTR
        MOV     R1,A
        LCALL   `??ZDO_RegisterForZDOMsg::?relay`; Banked call to: ZDO_RegisterForZDOMsg
// 1247   ZDO_RegisterForZDOMsg( ZDAppTaskID, Unbind_req );
        ; Setup parameters for call to function ZDO_RegisterForZDOMsg
        MOV     R2,#0x22
        MOV     R3,#0x0
        MOV     DPTR,#ZDAppTaskID
        MOVX    A,@DPTR
        MOV     R1,A
        LCALL   `??ZDO_RegisterForZDOMsg::?relay`; Banked call to: ZDO_RegisterForZDOMsg
// 1248 #endif  
// 1249 }
        LJMP    ?Subroutine3 & 0xFFFF
          CFI EndBlock cfiBlock27
// 1250 
// 1251 /*********************************************************************
// 1252  * @fn      ZDApp_ProcessSecMsg()
// 1253  *
// 1254  * @brief   Process the incoming security message.
// 1255  *
// 1256  * @param   msgPtr - message to process
// 1257  *
// 1258  * @return  none
// 1259  */

        RSEG BANKED_CODE:HUGECODE:NOROOT(0)
// 1260 void ZDApp_ProcessSecMsg( osal_event_hdr_t *msgPtr )
ZDApp_ProcessSecMsg:
          CFI Block cfiBlock28 Using cfiCommon0
          CFI Function ZDApp_ProcessSecMsg
        CODE
// 1261 {
        FUNCALL ZDApp_ProcessSecMsg, ZDSecMgrTransportKeyInd
        LOCFRAME ISTACK, 2, STACK
        LOCFRAME PSTACK, 0, STACK
        LOCFRAME XSTACK, 0, STACK
        LOCFRAME IOVERLAY, 0, STATIC
        LOCFRAME DOVERLAY, 0, STATIC
        ARGFRAME ISTACK, 2, STACK
        ARGFRAME PSTACK, 0, STACK
        ARGFRAME XSTACK, 0, STACK
        ARGFRAME IOVERLAY, 0, STATIC
        ARGFRAME DOVERLAY, 0, STATIC
        FUNCALL ZDApp_ProcessSecMsg, ZDSecMgrSwitchKeyInd
        LOCFRAME ISTACK, 2, STACK
        LOCFRAME PSTACK, 0, STACK
        LOCFRAME XSTACK, 0, STACK
        LOCFRAME IOVERLAY, 0, STATIC
        LOCFRAME DOVERLAY, 0, STATIC
        ARGFRAME ISTACK, 2, STACK
        ARGFRAME PSTACK, 0, STACK
        ARGFRAME XSTACK, 0, STACK
        ARGFRAME IOVERLAY, 0, STATIC
        ARGFRAME DOVERLAY, 0, STATIC
        PUSH    DPL
          CFI DPL0 Frame(CFA_SP, 4)
          CFI CFA_SP SP+-4
        PUSH    DPH
          CFI DPH0 Frame(CFA_SP, 5)
          CFI CFA_SP SP+-5
        ; Saved register size: 2
        ; Auto size: 0
// 1262   switch ( msgPtr->event )
        MOV     DPL,R2
        MOV     DPH,R3
        MOVX    A,@DPTR
        ADD     A,#-0x6
        JZ      ??ZDApp_ProcessSecMsg_0
        ADD     A,#-0x4
        JZ      ??ZDApp_ProcessSecMsg_1
        SJMP    ??ZDApp_ProcessSecMsg_2
// 1263   {
// 1264     case ZDO_ESTABLISH_KEY_CFM:
// 1265       if ( ZG_CHECK_SECURITY_MODE == ZG_SECURITY_PRO_HIGH )
// 1266       {
// 1267         ZDSecMgrEstablishKeyCfm( (ZDO_EstablishKeyCfm_t*)msgPtr );
// 1268       }
// 1269       break;
// 1270 
// 1271     case ZDO_ESTABLISH_KEY_IND:
// 1272       if ( ZG_CHECK_SECURITY_MODE == ZG_SECURITY_PRO_HIGH )
// 1273       {
// 1274         if ( ZG_BUILD_JOINING_TYPE && ZG_DEVICE_JOINING_TYPE )
// 1275         {
// 1276           ZDSecMgrEstablishKeyInd( (ZDO_EstablishKeyInd_t*)msgPtr );
// 1277         }
// 1278       }
// 1279       break;
// 1280 
// 1281     case ZDO_TRANSPORT_KEY_IND:
// 1282       if ( ZG_BUILD_JOINING_TYPE && ZG_DEVICE_JOINING_TYPE )
??ZDApp_ProcessSecMsg_0:
        MOV     DPTR,#zgDeviceLogicalType
        MOVX    A,@DPTR
        XRL     A,#0x1
        JZ      ??ZDApp_ProcessSecMsg_3
        MOVX    A,@DPTR
        XRL     A,#0x2
        JNZ     ??ZDApp_ProcessSecMsg_2
// 1283       {
// 1284         ZDSecMgrTransportKeyInd( (ZDO_TransportKeyInd_t*)msgPtr );
??ZDApp_ProcessSecMsg_3:
        ; Setup parameters for call to function ZDSecMgrTransportKeyInd
        LCALL   `??ZDSecMgrTransportKeyInd::?relay`; Banked call to: ZDSecMgrTransportKeyInd
        SJMP    ??ZDApp_ProcessSecMsg_2
// 1285       }
// 1286       break;
// 1287 
// 1288     case ZDO_UPDATE_DEVICE_IND:
// 1289       if ( ZG_BUILD_COORDINATOR_TYPE && ZG_DEVICE_COORDINATOR_TYPE )
// 1290       {
// 1291         ZDSecMgrUpdateDeviceInd( (ZDO_UpdateDeviceInd_t*)msgPtr );
// 1292       }
// 1293       break;
// 1294 
// 1295     case ZDO_REMOVE_DEVICE_IND:
// 1296       if ( ZG_BUILD_RTRONLY_TYPE && ( zgDeviceLogicalType == ZG_DEVICETYPE_ROUTER ) )
// 1297       {
// 1298         ZDSecMgrRemoveDeviceInd( (ZDO_RemoveDeviceInd_t*)msgPtr );
// 1299       }
// 1300       break;
// 1301 
// 1302     case ZDO_REQUEST_KEY_IND:
// 1303       if ( ZG_CHECK_SECURITY_MODE == ZG_SECURITY_PRO_HIGH )
// 1304       {
// 1305         if ( ZG_BUILD_COORDINATOR_TYPE && ZG_DEVICE_COORDINATOR_TYPE )
// 1306         {
// 1307           ZDSecMgrRequestKeyInd( (ZDO_RequestKeyInd_t*)msgPtr );
// 1308         }
// 1309       }
// 1310       break;
// 1311 
// 1312     case ZDO_SWITCH_KEY_IND:
// 1313       if ( ZG_BUILD_JOINING_TYPE && ZG_DEVICE_JOINING_TYPE )
??ZDApp_ProcessSecMsg_1:
        MOV     DPTR,#zgDeviceLogicalType
        MOVX    A,@DPTR
        XRL     A,#0x1
        JZ      ??ZDApp_ProcessSecMsg_4
        MOVX    A,@DPTR
        XRL     A,#0x2
        JNZ     ??ZDApp_ProcessSecMsg_2
// 1314       {
// 1315         ZDSecMgrSwitchKeyInd( (ZDO_SwitchKeyInd_t*)msgPtr );
??ZDApp_ProcessSecMsg_4:
        ; Setup parameters for call to function ZDSecMgrSwitchKeyInd
        LCALL   `??ZDSecMgrSwitchKeyInd::?relay`; Banked call to: ZDSecMgrSwitchKeyInd
// 1316       }
// 1317       break;
// 1318     
// 1319     case ZDO_AUTHENTICATE_IND:
// 1320       if ( ZG_CHECK_SECURITY_MODE == ZG_SECURITY_PRO_HIGH )
// 1321       {
// 1322         ZDSecMgrAuthenticateInd( (ZDO_AuthenticateInd_t*)msgPtr );
// 1323       }
// 1324       break;
// 1325 
// 1326     case ZDO_AUTHENTICATE_CFM:
// 1327       if ( ZG_CHECK_SECURITY_MODE == ZG_SECURITY_PRO_HIGH )
// 1328       {
// 1329         ZDSecMgrAuthenticateCfm( (ZDO_AuthenticateCfm_t*)msgPtr );
// 1330       }
// 1331       break;
// 1332 
// 1333     default:
// 1334       // Unsupported messages
// 1335       break;
// 1336   }
// 1337 }
??ZDApp_ProcessSecMsg_2:
        LJMP    ?Subroutine3 & 0xFFFF
          CFI EndBlock cfiBlock28
// 1338 
// 1339 /*********************************************************************
// 1340  * @fn      ZDApp_ProcessNetworkJoin()
// 1341  *
// 1342  * @brief
// 1343  *
// 1344  *   Save off the Network key information.
// 1345  *
// 1346  * @param   none
// 1347  *
// 1348  * @return  none
// 1349  */

        RSEG BANKED_CODE:HUGECODE:NOROOT(0)
// 1350 void ZDApp_ProcessNetworkJoin( void )
ZDApp_ProcessNetworkJoin:
          CFI Block cfiBlock29 Using cfiCommon0
          CFI Function ZDApp_ProcessNetworkJoin
        CODE
// 1351 {
        FUNCALL ZDApp_ProcessNetworkJoin, osal_set_event
        LOCFRAME ISTACK, 0, STACK
        LOCFRAME PSTACK, 0, STACK
        LOCFRAME XSTACK, 12, STACK
        LOCFRAME IOVERLAY, 0, STATIC
        LOCFRAME DOVERLAY, 0, STATIC
        ARGFRAME ISTACK, 0, STACK
        ARGFRAME PSTACK, 0, STACK
        ARGFRAME XSTACK, 12, STACK
        ARGFRAME IOVERLAY, 0, STATIC
        ARGFRAME DOVERLAY, 0, STATIC
        FUNCALL ZDApp_ProcessNetworkJoin, ZDApp_AnnounceNewAddress
        LOCFRAME ISTACK, 0, STACK
        LOCFRAME PSTACK, 0, STACK
        LOCFRAME XSTACK, 12, STACK
        LOCFRAME IOVERLAY, 0, STATIC
        LOCFRAME DOVERLAY, 0, STATIC
        ARGFRAME ISTACK, 0, STACK
        ARGFRAME PSTACK, 0, STACK
        ARGFRAME XSTACK, 12, STACK
        ARGFRAME IOVERLAY, 0, STATIC
        ARGFRAME DOVERLAY, 0, STATIC
        FUNCALL ZDApp_ProcessNetworkJoin, NLME_GetShortAddr
        LOCFRAME ISTACK, 0, STACK
        LOCFRAME PSTACK, 0, STACK
        LOCFRAME XSTACK, 12, STACK
        LOCFRAME IOVERLAY, 0, STATIC
        LOCFRAME DOVERLAY, 0, STATIC
        ARGFRAME ISTACK, 0, STACK
        ARGFRAME PSTACK, 0, STACK
        ARGFRAME XSTACK, 12, STACK
        ARGFRAME IOVERLAY, 0, STATIC
        ARGFRAME DOVERLAY, 0, STATIC
        FUNCALL ZDApp_ProcessNetworkJoin, ZMacSetReq
        LOCFRAME ISTACK, 0, STACK
        LOCFRAME PSTACK, 0, STACK
        LOCFRAME XSTACK, 12, STACK
        LOCFRAME IOVERLAY, 0, STATIC
        LOCFRAME DOVERLAY, 0, STATIC
        ARGFRAME ISTACK, 0, STACK
        ARGFRAME PSTACK, 0, STACK
        ARGFRAME XSTACK, 12, STACK
        ARGFRAME IOVERLAY, 0, STATIC
        ARGFRAME DOVERLAY, 0, STATIC
        FUNCALL ZDApp_ProcessNetworkJoin, nwkNeighborInitTable
        LOCFRAME ISTACK, 0, STACK
        LOCFRAME PSTACK, 0, STACK
        LOCFRAME XSTACK, 12, STACK
        LOCFRAME IOVERLAY, 0, STATIC
        LOCFRAME DOVERLAY, 0, STATIC
        ARGFRAME ISTACK, 0, STACK
        ARGFRAME PSTACK, 0, STACK
        ARGFRAME XSTACK, 12, STACK
        ARGFRAME IOVERLAY, 0, STATIC
        ARGFRAME DOVERLAY, 0, STATIC
        FUNCALL ZDApp_ProcessNetworkJoin, NLME_NwkDiscTerm
        LOCFRAME ISTACK, 0, STACK
        LOCFRAME PSTACK, 0, STACK
        LOCFRAME XSTACK, 12, STACK
        LOCFRAME IOVERLAY, 0, STATIC
        LOCFRAME DOVERLAY, 0, STATIC
        ARGFRAME ISTACK, 0, STACK
        ARGFRAME PSTACK, 0, STACK
        ARGFRAME XSTACK, 12, STACK
        ARGFRAME IOVERLAY, 0, STATIC
        ARGFRAME DOVERLAY, 0, STATIC
        FUNCALL ZDApp_ProcessNetworkJoin, osal_rand
        LOCFRAME ISTACK, 0, STACK
        LOCFRAME PSTACK, 0, STACK
        LOCFRAME XSTACK, 12, STACK
        LOCFRAME IOVERLAY, 0, STATIC
        LOCFRAME DOVERLAY, 0, STATIC
        ARGFRAME ISTACK, 0, STACK
        ARGFRAME PSTACK, 0, STACK
        ARGFRAME XSTACK, 12, STACK
        ARGFRAME IOVERLAY, 0, STATIC
        ARGFRAME DOVERLAY, 0, STATIC
        FUNCALL ZDApp_ProcessNetworkJoin, ZDApp_NetworkInit
        LOCFRAME ISTACK, 0, STACK
        LOCFRAME PSTACK, 0, STACK
        LOCFRAME XSTACK, 12, STACK
        LOCFRAME IOVERLAY, 0, STATIC
        LOCFRAME DOVERLAY, 0, STATIC
        ARGFRAME ISTACK, 0, STACK
        ARGFRAME PSTACK, 0, STACK
        ARGFRAME XSTACK, 12, STACK
        ARGFRAME IOVERLAY, 0, STATIC
        ARGFRAME DOVERLAY, 0, STATIC
        FUNCALL ZDApp_ProcessNetworkJoin, osal_set_event
        LOCFRAME ISTACK, 0, STACK
        LOCFRAME PSTACK, 0, STACK
        LOCFRAME XSTACK, 12, STACK
        LOCFRAME IOVERLAY, 0, STATIC
        LOCFRAME DOVERLAY, 0, STATIC
        ARGFRAME ISTACK, 0, STACK
        ARGFRAME PSTACK, 0, STACK
        ARGFRAME XSTACK, 12, STACK
        ARGFRAME IOVERLAY, 0, STATIC
        ARGFRAME DOVERLAY, 0, STATIC
        FUNCALL ZDApp_ProcessNetworkJoin, NLME_SetPollRate
        LOCFRAME ISTACK, 0, STACK
        LOCFRAME PSTACK, 0, STACK
        LOCFRAME XSTACK, 12, STACK
        LOCFRAME IOVERLAY, 0, STATIC
        LOCFRAME DOVERLAY, 0, STATIC
        ARGFRAME ISTACK, 0, STACK
        ARGFRAME PSTACK, 0, STACK
        ARGFRAME XSTACK, 12, STACK
        ARGFRAME IOVERLAY, 0, STATIC
        ARGFRAME DOVERLAY, 0, STATIC
        FUNCALL ZDApp_ProcessNetworkJoin, NLME_SetQueuedPollRate
        LOCFRAME ISTACK, 0, STACK
        LOCFRAME PSTACK, 0, STACK
        LOCFRAME XSTACK, 12, STACK
        LOCFRAME IOVERLAY, 0, STATIC
        LOCFRAME DOVERLAY, 0, STATIC
        ARGFRAME ISTACK, 0, STACK
        ARGFRAME PSTACK, 0, STACK
        ARGFRAME XSTACK, 12, STACK
        ARGFRAME IOVERLAY, 0, STATIC
        ARGFRAME DOVERLAY, 0, STATIC
        FUNCALL ZDApp_ProcessNetworkJoin, NLME_SetResponseRate
        LOCFRAME ISTACK, 0, STACK
        LOCFRAME PSTACK, 0, STACK
        LOCFRAME XSTACK, 12, STACK
        LOCFRAME IOVERLAY, 0, STATIC
        LOCFRAME DOVERLAY, 0, STATIC
        ARGFRAME ISTACK, 0, STACK
        ARGFRAME PSTACK, 0, STACK
        ARGFRAME XSTACK, 12, STACK
        ARGFRAME IOVERLAY, 0, STATIC
        ARGFRAME DOVERLAY, 0, STATIC
        FUNCALL ZDApp_ProcessNetworkJoin, ZDApp_AnnounceNewAddress
        LOCFRAME ISTACK, 0, STACK
        LOCFRAME PSTACK, 0, STACK
        LOCFRAME XSTACK, 12, STACK
        LOCFRAME IOVERLAY, 0, STATIC
        LOCFRAME DOVERLAY, 0, STATIC
        ARGFRAME ISTACK, 0, STACK
        ARGFRAME PSTACK, 0, STACK
        ARGFRAME XSTACK, 12, STACK
        ARGFRAME IOVERLAY, 0, STATIC
        ARGFRAME DOVERLAY, 0, STATIC
        FUNCALL ZDApp_ProcessNetworkJoin, nwkNeighborInitTable
        LOCFRAME ISTACK, 0, STACK
        LOCFRAME PSTACK, 0, STACK
        LOCFRAME XSTACK, 12, STACK
        LOCFRAME IOVERLAY, 0, STATIC
        LOCFRAME DOVERLAY, 0, STATIC
        ARGFRAME ISTACK, 0, STACK
        ARGFRAME PSTACK, 0, STACK
        ARGFRAME XSTACK, 12, STACK
        ARGFRAME IOVERLAY, 0, STATIC
        ARGFRAME DOVERLAY, 0, STATIC
        FUNCALL ZDApp_ProcessNetworkJoin, NLME_NwkDiscTerm
        LOCFRAME ISTACK, 0, STACK
        LOCFRAME PSTACK, 0, STACK
        LOCFRAME XSTACK, 12, STACK
        LOCFRAME IOVERLAY, 0, STATIC
        LOCFRAME DOVERLAY, 0, STATIC
        ARGFRAME ISTACK, 0, STACK
        ARGFRAME PSTACK, 0, STACK
        ARGFRAME XSTACK, 12, STACK
        ARGFRAME IOVERLAY, 0, STATIC
        ARGFRAME DOVERLAY, 0, STATIC
        FUNCALL ZDApp_ProcessNetworkJoin, osal_rand
        LOCFRAME ISTACK, 0, STACK
        LOCFRAME PSTACK, 0, STACK
        LOCFRAME XSTACK, 12, STACK
        LOCFRAME IOVERLAY, 0, STATIC
        LOCFRAME DOVERLAY, 0, STATIC
        ARGFRAME ISTACK, 0, STACK
        ARGFRAME PSTACK, 0, STACK
        ARGFRAME XSTACK, 12, STACK
        ARGFRAME IOVERLAY, 0, STATIC
        ARGFRAME DOVERLAY, 0, STATIC
        FUNCALL ZDApp_ProcessNetworkJoin, ZDApp_NetworkInit
        LOCFRAME ISTACK, 0, STACK
        LOCFRAME PSTACK, 0, STACK
        LOCFRAME XSTACK, 12, STACK
        LOCFRAME IOVERLAY, 0, STATIC
        LOCFRAME DOVERLAY, 0, STATIC
        ARGFRAME ISTACK, 0, STACK
        ARGFRAME PSTACK, 0, STACK
        ARGFRAME XSTACK, 12, STACK
        ARGFRAME IOVERLAY, 0, STATIC
        ARGFRAME DOVERLAY, 0, STATIC
        REQUIRE ?V0
        REQUIRE ?V1
        MOV     A,#-0xa
        LCALL   ?BANKED_ENTER_XDATA
          CFI DPH0 load(1, XDATA, add(CFA_XSP16, literal(-1)))
          CFI DPL0 load(1, XDATA, add(CFA_XSP16, literal(-2)))
          CFI ?BRET_EXT load(1, XDATA, add(CFA_XSP16, literal(-3)))
          CFI ?RET_HIGH load(1, XDATA, add(CFA_XSP16, literal(-4)))
          CFI ?RET_LOW load(1, XDATA, add(CFA_XSP16, literal(-5)))
          CFI R7 load(1, XDATA, add(CFA_XSP16, literal(-6)))
          CFI V1 load(1, XDATA, add(CFA_XSP16, literal(-7)))
          CFI V0 load(1, XDATA, add(CFA_XSP16, literal(-8)))
          CFI VB load(1, XDATA, add(CFA_XSP16, literal(-9)))
          CFI R6 load(1, XDATA, add(CFA_XSP16, literal(-10)))
          CFI CFA_SP SP+0
          CFI CFA_XSP16 add(XSP16, 10)
        ; Saved register size: 10
        ; Auto size: 2
        MOV     A,#-0x2
        LCALL   ?ALLOC_XSTACK8
          CFI CFA_XSP16 add(XSP16, 12)
// 1352   if ( (devState == DEV_NWK_JOINING) ||
// 1353       ((devState == DEV_NWK_ORPHAN)  &&
// 1354        (ZDO_Config_Node_Descriptor.LogicalType == NODETYPE_ROUTER)) )
        MOV     DPTR,#devState
        MOVX    A,@DPTR
        XRL     A,#0x3
        JZ      ??ZDApp_ProcessNetworkJoin_0
        MOVX    A,@DPTR
        XRL     A,#0xa
        JZ      $+5
        LJMP    ??ZDApp_ProcessNetworkJoin_1 & 0xFFFF
        MOV     DPTR,#ZDO_Config_Node_Descriptor
        MOVX    A,@DPTR
        ANL     A,#0x7
        XRL     A,#0x1
        JZ      $+5
        LJMP    ??ZDApp_ProcessNetworkJoin_2 & 0xFFFF
// 1355   {
// 1356     // Result of a Join attempt by this device.
// 1357     if ( nwkStatus == ZSuccess )
??ZDApp_ProcessNetworkJoin_0:
        MOV     DPTR,#nwkStatus
        MOVX    A,@DPTR
        JNZ     ??ZDApp_ProcessNetworkJoin_3
// 1358     {
// 1359       osal_set_event( ZDAppTaskID, ZDO_STATE_CHANGE_EVT );
        ; Setup parameters for call to function osal_set_event
        MOV     R2,#0x10
        MOV     R3,#0x0
        MOV     DPTR,#ZDAppTaskID
        MOVX    A,@DPTR
        MOV     R1,A
        LCALL   `??osal_set_event::?relay`; Banked call to: osal_set_event
// 1360 
// 1361 #if defined ( POWER_SAVING )
// 1362       osal_pwrmgr_device( PWRMGR_BATTERY );
// 1363 #endif
// 1364 
// 1365       if ( ZG_SECURE_ENABLED && ( ZDApp_RestoreNwkKey() == false ) )
// 1366       {
// 1367         // wait for auth from trust center!!
// 1368         devState = DEV_END_DEVICE_UNAUTH;
// 1369 
// 1370         // Start the reset timer for MAX UNAUTH time
// 1371         ZDApp_ResetTimerStart( 10000 );//MAX_DEVICE_UNAUTH_TIMEOUT );
// 1372       }
// 1373       else
// 1374       {
// 1375         if ( ZSTACK_ROUTER_BUILD )
// 1376         {
// 1377           if ( devState == DEV_NWK_ORPHAN 
// 1378             && ZDO_Config_Node_Descriptor.LogicalType != NODETYPE_DEVICE )
// 1379           {
// 1380             // Change NIB state to router for restore
// 1381             _NIB.nwkState = NWK_ROUTER;
// 1382           }
// 1383         }
// 1384                 
// 1385         if ( devState == DEV_NWK_JOINING )
        MOV     DPTR,#devState
        MOVX    A,@DPTR
        XRL     A,#0x3
        JNZ     ??ZDApp_ProcessNetworkJoin_4
// 1386         {
// 1387           ZDApp_AnnounceNewAddress();
        ; Setup parameters for call to function ZDApp_AnnounceNewAddress
        LCALL   `??ZDApp_AnnounceNewAddress::?relay`; Banked call to: ZDApp_AnnounceNewAddress
// 1388         }
// 1389         
// 1390         devState = DEV_END_DEVICE;
??ZDApp_ProcessNetworkJoin_4:
        MOV     DPTR,#devState
        MOV     A,#0x6
        MOVX    @DPTR,A
// 1391         if ( ZSTACK_ROUTER_BUILD )
        LJMP    ??ZDApp_ProcessNetworkJoin_5 & 0xFFFF
// 1392         {
// 1393           // NOTE: first two parameters are not used, see NLMEDE.h for details
// 1394           if ( ZDO_Config_Node_Descriptor.LogicalType != NODETYPE_DEVICE )
// 1395           {
// 1396             NLME_StartRouterRequest( 0, 0, false );
// 1397           }
// 1398         }
// 1399       }
// 1400     }
// 1401     else
// 1402     {
// 1403       if ( (devStartMode == MODE_RESUME) && (++retryCnt >= MAX_RESUME_RETRY) )
??ZDApp_ProcessNetworkJoin_3:
        MOV     DPTR,#devStartMode
        MOVX    A,@DPTR
        XRL     A,#0x1
        JNZ     ??ZDApp_ProcessNetworkJoin_6
        MOV     DPTR,#retryCnt
        MOVX    A,@DPTR
        INC     A
        MOVX    @DPTR,A
        CLR     C
        SUBB    A,#0x3
        JC      ??ZDApp_ProcessNetworkJoin_6
// 1404       {
// 1405         if ( _NIB.nwkPanId == 0xFFFF || _NIB.nwkPanId == INVALID_PAN_ID )
        MOV     DPTR,#_NIB + 33
        MOVX    A,@DPTR
        CPL     A
        JNZ     ??ZDApp_ProcessNetworkJoin_7
        INC     DPTR
        MOVX    A,@DPTR
        CPL     A
??ZDApp_ProcessNetworkJoin_7:
        JZ      ??ZDApp_ProcessNetworkJoin_8
        MOV     DPTR,#_NIB + 33
        MOVX    A,@DPTR
        XRL     A,#0xfe
        JNZ     ??ZDApp_ProcessNetworkJoin_9
        INC     DPTR
        MOVX    A,@DPTR
        CPL     A
??ZDApp_ProcessNetworkJoin_9:
        JNZ     ??ZDApp_ProcessNetworkJoin_10
// 1406           devStartMode = MODE_JOIN;
??ZDApp_ProcessNetworkJoin_8:
        MOV     DPTR,#devStartMode
        CLR     A
        SJMP    ??ZDApp_ProcessNetworkJoin_11
// 1407         else
// 1408         {
// 1409           devStartMode = MODE_REJOIN;
??ZDApp_ProcessNetworkJoin_10:
        MOV     DPTR,#devStartMode
        MOV     A,#0x3
        MOVX    @DPTR,A
// 1410           _tmpRejoinState = true;
        MOV     DPTR,#_tmpRejoinState
        MOV     A,#0x1
??ZDApp_ProcessNetworkJoin_11:
        MOVX    @DPTR,A
// 1411         }
// 1412       }
// 1413 
// 1414       if ( (NLME_GetShortAddr() != INVALID_NODE_ADDR) ||
// 1415            (_NIB.nwkDevAddress != INVALID_NODE_ADDR) )
??ZDApp_ProcessNetworkJoin_6:
        ; Setup parameters for call to function NLME_GetShortAddr
        LCALL   `??NLME_GetShortAddr::?relay`; Banked call to: NLME_GetShortAddr
        MOV     ?V0,R2
        MOV     ?V1,R3
        MOV     A,#-0x2
        XRL     A,?V0
        JNZ     ??ZDApp_ProcessNetworkJoin_12
        MOV     A,#-0x1
        XRL     A,?V1
??ZDApp_ProcessNetworkJoin_12:
        JNZ     ??ZDApp_ProcessNetworkJoin_13
        MOV     DPTR,#_NIB + 20
        MOVX    A,@DPTR
        XRL     A,#0xfe
        JNZ     ??ZDApp_ProcessNetworkJoin_14
        INC     DPTR
        MOVX    A,@DPTR
        CPL     A
??ZDApp_ProcessNetworkJoin_14:
        JZ      ??ZDApp_ProcessNetworkJoin_15
// 1416       {
// 1417         uint16 addr = INVALID_NODE_ADDR;
??ZDApp_ProcessNetworkJoin_13:
        MOV     DPL,?XSP + 0
        MOV     DPH,?XSP + 1
        MOV     A,#-0x2
        MOVX    @DPTR,A
        INC     DPTR
        INC     A
        MOVX    @DPTR,A
// 1418         // Invalidate nwk addr so end device does not use in its data reqs.
// 1419         _NIB.nwkDevAddress = INVALID_NODE_ADDR;
        MOV     DPTR,#_NIB + 20
        DEC     A
        MOVX    @DPTR,A
        INC     DPTR
        INC     A
        MOVX    @DPTR,A
// 1420         ZMacSetReq( ZMacShortAddress, (uint8 *)&addr );
        ; Setup parameters for call to function ZMacSetReq
        MOV     R2,?XSP + 0
        MOV     R3,?XSP + 1
        MOV     R1,#0x53
        LCALL   `??ZMacSetReq::?relay`; Banked call to: ZMacSetReq
// 1421       }
// 1422 
// 1423       // Clear the neighbor Table and network discovery tables.
// 1424       nwkNeighborInitTable();
??ZDApp_ProcessNetworkJoin_15:
        ; Setup parameters for call to function nwkNeighborInitTable
        LCALL   `??nwkNeighborInitTable::?relay`; Banked call to: nwkNeighborInitTable
// 1425       NLME_NwkDiscTerm();
        ; Setup parameters for call to function NLME_NwkDiscTerm
        LCALL   `??NLME_NwkDiscTerm::?relay`; Banked call to: NLME_NwkDiscTerm
// 1426 
// 1427       zdoDiscCounter = 1;
        MOV     DPTR,#zdoDiscCounter
        MOV     A,#0x1
        MOVX    @DPTR,A
// 1428 
// 1429 //      ZDApp_NetworkInit( (uint16)
// 1430 //                         ((NWK_START_DELAY * (osal_rand() & 0x0F)) +
// 1431 //                          (NWK_START_DELAY * 5)) );
// 1432       ZDApp_NetworkInit( (uint16)(NWK_START_DELAY
// 1433            + ((uint16)(osal_rand()& EXTENDED_JOINING_RANDOM_MASK))) );
        ; Setup parameters for call to function osal_rand
        LJMP    ??ZDApp_ProcessNetworkJoin_16 & 0xFFFF
// 1434     }
// 1435   }
// 1436   else if ( devState == DEV_NWK_ORPHAN || devState == DEV_NWK_REJOIN )
??ZDApp_ProcessNetworkJoin_1:
        MOVX    A,@DPTR
        XRL     A,#0x4
        JZ      $+5
        LJMP    ??ZDApp_ProcessNetworkJoin_5 & 0xFFFF
// 1437   {
// 1438     // results of an orphaning attempt by this device
// 1439     if (nwkStatus == ZSuccess)
??ZDApp_ProcessNetworkJoin_2:
        MOV     DPTR,#nwkStatus
        MOVX    A,@DPTR
        JNZ     ??ZDApp_ProcessNetworkJoin_17
// 1440     {
// 1441       if ( ZG_SECURE_ENABLED )
// 1442       {
// 1443         ZDApp_RestoreNwkKey();
// 1444       }
// 1445       
// 1446       devState = DEV_END_DEVICE;
        LCALL   ?Subroutine12 & 0xFFFF
// 1447       osal_set_event( ZDAppTaskID, ZDO_STATE_CHANGE_EVT );
??CrossCallReturnLabel_5:
        LCALL   `??osal_set_event::?relay`; Banked call to: osal_set_event
// 1448       // setup Power Manager Device
// 1449 #if defined ( POWER_SAVING )
// 1450       osal_pwrmgr_device( PWRMGR_BATTERY );
// 1451 #endif
// 1452 
// 1453       if ( ZDO_Config_Node_Descriptor.CapabilityFlags & CAPINFO_RCVR_ON_IDLE )
        MOV     DPTR,#ZDO_Config_Node_Descriptor + 2
        MOVX    A,@DPTR
        MOV     C,0xE0 /* A   */.3
        JNC     ??ZDApp_ProcessNetworkJoin_18
// 1454       {
// 1455         // The receiver is on, turn network layer polling off.
// 1456         NLME_SetPollRate( 0 );
        ; Setup parameters for call to function NLME_SetPollRate
        MOV     R2,#0x0
        MOV     R3,#0x0
        LCALL   `??NLME_SetPollRate::?relay`; Banked call to: NLME_SetPollRate
// 1457         NLME_SetQueuedPollRate( 0 );
        ; Setup parameters for call to function NLME_SetQueuedPollRate
        MOV     R2,#0x0
        MOV     R3,#0x0
        LCALL   `??NLME_SetQueuedPollRate::?relay`; Banked call to: NLME_SetQueuedPollRate
// 1458         NLME_SetResponseRate( 0 );
        ; Setup parameters for call to function NLME_SetResponseRate
        MOV     R2,#0x0
        MOV     R3,#0x0
        LCALL   `??NLME_SetResponseRate::?relay`; Banked call to: NLME_SetResponseRate
// 1459       }
// 1460 
// 1461       if ( ZSTACK_ROUTER_BUILD )
// 1462       {
// 1463         // NOTE: first two parameters are not used, see NLMEDE.h for details
// 1464         if ( ZDO_Config_Node_Descriptor.LogicalType != NODETYPE_DEVICE )
// 1465         {
// 1466           NLME_StartRouterRequest( 0, 0, false );
// 1467         }
// 1468       }
// 1469       
// 1470       ZDApp_AnnounceNewAddress();
??ZDApp_ProcessNetworkJoin_18:
        ; Setup parameters for call to function ZDApp_AnnounceNewAddress
        LCALL   `??ZDApp_AnnounceNewAddress::?relay`; Banked call to: ZDApp_AnnounceNewAddress
        SJMP    ??ZDApp_ProcessNetworkJoin_5
// 1471     }
// 1472     else
// 1473     {
// 1474       if ( devStartMode == MODE_RESUME )
??ZDApp_ProcessNetworkJoin_17:
        MOV     DPTR,#devStartMode
        MOVX    A,@DPTR
        XRL     A,#0x1
        JNZ     ??ZDApp_ProcessNetworkJoin_19
// 1475       {
// 1476         if ( ++retryCnt <= MAX_RESUME_RETRY )
        MOV     DPTR,#retryCnt
        MOVX    A,@DPTR
        INC     A
        MOVX    @DPTR,A
        CLR     C
        SUBB    A,#0x4
        JNC     ??ZDApp_ProcessNetworkJoin_20
// 1477         {
// 1478           if ( _NIB.nwkPanId == 0xFFFF || _NIB.nwkPanId == INVALID_PAN_ID )
        MOV     DPTR,#_NIB + 33
        MOVX    A,@DPTR
        CPL     A
        JNZ     ??ZDApp_ProcessNetworkJoin_21
        INC     DPTR
        MOVX    A,@DPTR
        CPL     A
??ZDApp_ProcessNetworkJoin_21:
        JZ      ??ZDApp_ProcessNetworkJoin_22
        MOV     DPTR,#_NIB + 33
        MOVX    A,@DPTR
        XRL     A,#0xfe
        JNZ     ??ZDApp_ProcessNetworkJoin_23
        INC     DPTR
        MOVX    A,@DPTR
        CPL     A
??ZDApp_ProcessNetworkJoin_23:
        JZ      ??ZDApp_ProcessNetworkJoin_22
// 1479             devStartMode = MODE_JOIN;
// 1480           else
// 1481           {
// 1482             devStartMode = MODE_REJOIN;
        MOV     DPTR,#devStartMode
        MOV     A,#0x3
        MOVX    @DPTR,A
// 1483             _tmpRejoinState = true;
        MOV     DPTR,#_tmpRejoinState
        MOV     A,#0x1
        SJMP    ??ZDApp_ProcessNetworkJoin_24
// 1484           }
// 1485         }
// 1486         // Do a normal join to the network after certain times of rejoin retries
// 1487         else if( AIB_apsUseInsecureJoin == true )
??ZDApp_ProcessNetworkJoin_20:
        MOV     DPTR,#AIB_apsUseInsecureJoin
        MOVX    A,@DPTR
        XRL     A,#0x1
        JNZ     ??ZDApp_ProcessNetworkJoin_19
// 1488         {
// 1489           devStartMode = MODE_JOIN;
??ZDApp_ProcessNetworkJoin_22:
        MOV     DPTR,#devStartMode
        CLR     A
??ZDApp_ProcessNetworkJoin_24:
        MOVX    @DPTR,A
// 1490         }
// 1491       }
// 1492 
// 1493       // Clear the neighbor Table and network discovery tables.
// 1494       nwkNeighborInitTable();
??ZDApp_ProcessNetworkJoin_19:
        ; Setup parameters for call to function nwkNeighborInitTable
        LCALL   `??nwkNeighborInitTable::?relay`; Banked call to: nwkNeighborInitTable
// 1495       NLME_NwkDiscTerm();
        ; Setup parameters for call to function NLME_NwkDiscTerm
        LCALL   `??NLME_NwkDiscTerm::?relay`; Banked call to: NLME_NwkDiscTerm
// 1496 
// 1497       // setup a retry for later...
// 1498       ZDApp_NetworkInit( (uint16)(NWK_START_DELAY
// 1499            + (osal_rand()& EXTENDED_JOINING_RANDOM_MASK)) );
        ; Setup parameters for call to function osal_rand
??ZDApp_ProcessNetworkJoin_16:
        LCALL   `??osal_rand::?relay`; Banked call to: osal_rand
        ; Setup parameters for call to function ZDApp_NetworkInit
        MOV     A,R2
        ANL     A,#0x7f
        ADD     A,#0x64
        MOV     R2,A
        MOV     R3,#0x0
        LCALL   `??ZDApp_NetworkInit::?relay`; Banked call to: ZDApp_NetworkInit
// 1500     }
// 1501   }
// 1502 #if defined ( ZIGBEE_STOCHASTIC_ADDRESSING )
// 1503   else
// 1504   {
// 1505     // Assume from address conflict
// 1506     if ( _NIB.nwkAddrAlloc == NWK_ADDRESSING_STOCHASTIC )
// 1507     {
// 1508       // Notify the network
// 1509       ZDApp_AnnounceNewAddress();
// 1510       
// 1511       // Notify apps
// 1512       osal_set_event( ZDAppTaskID, ZDO_STATE_CHANGE_EVT );
// 1513     }
// 1514   }
// 1515 #endif
// 1516 }
??ZDApp_ProcessNetworkJoin_5:
        LJMP    ?Subroutine2 & 0xFFFF
          CFI EndBlock cfiBlock29

        RSEG BANKED_CODE:HUGECODE:NOROOT(0)
?Subroutine12:
          CFI Block cfiCond30 Using cfiCommon0
          CFI Function ZDApp_DeviceAuthEvt
          CFI Conditional ??CrossCallReturnLabel_4
          CFI DPL0 Frame(CFA_SP, 4)
          CFI DPH0 Frame(CFA_SP, 5)
          CFI CFA_SP SP+-7
          CFI Block cfiCond31 Using cfiCommon0
          CFI (cfiCond31) Function ZDApp_ProcessNetworkJoin
          CFI (cfiCond31) Conditional ??CrossCallReturnLabel_5
          CFI (cfiCond31) R6 load(1, XDATA, add(CFA_XSP16, literal(-10)))
          CFI (cfiCond31) VB load(1, XDATA, add(CFA_XSP16, literal(-9)))
          CFI (cfiCond31) V0 load(1, XDATA, add(CFA_XSP16, literal(-8)))
          CFI (cfiCond31) V1 load(1, XDATA, add(CFA_XSP16, literal(-7)))
          CFI (cfiCond31) R7 load(1, XDATA, add(CFA_XSP16, literal(-6)))
          CFI (cfiCond31) ?RET_LOW load(1, XDATA, add(CFA_XSP16, literal(-5)))
          CFI (cfiCond31) ?RET_HIGH load(1, XDATA, add(CFA_XSP16, literal(-4)))
          CFI (cfiCond31) ?BRET_EXT load(1, XDATA, add(CFA_XSP16, literal(-3)))
          CFI (cfiCond31) DPL0 load(1, XDATA, add(CFA_XSP16, literal(-2)))
          CFI (cfiCond31) DPH0 load(1, XDATA, add(CFA_XSP16, literal(-1)))
          CFI (cfiCond31) CFA_SP SP+-2
          CFI (cfiCond31) CFA_XSP16 add(XSP16, 12)
          CFI Block cfiPicker32 Using cfiCommon1
          CFI (cfiPicker32) NoFunction
          CFI (cfiPicker32) Picker
        MOV     DPTR,#devState
        MOV     A,#0x6
        MOVX    @DPTR,A
        ; Setup parameters for call to function osal_set_event
        ; Setup parameters for call to function osal_set_event
        MOV     R2,#0x10
        MOV     R3,#0x0
        MOV     DPTR,#ZDAppTaskID
        MOVX    A,@DPTR
        MOV     R1,A
        RET
          CFI EndBlock cfiCond30
          CFI EndBlock cfiCond31
          CFI EndBlock cfiPicker32
// 1517 
// 1518 /*********************************************************************
// 1519  * @fn      ZDApp_SaveNwkKey()
// 1520  *
// 1521  * @brief   Save off the Network key information.
// 1522  *
// 1523  * @param   none
// 1524  *
// 1525  * @return  none
// 1526  */

        RSEG BANKED_CODE:HUGECODE:NOROOT(0)
// 1527 void ZDApp_SaveNwkKey( void )
ZDApp_SaveNwkKey:
          CFI Block cfiBlock33 Using cfiCommon0
          CFI Function ZDApp_SaveNwkKey
        CODE
// 1528 {
        FUNCALL ZDApp_SaveNwkKey, SSP_ReadNwkActiveKey
        LOCFRAME ISTACK, 0, STACK
        LOCFRAME PSTACK, 0, STACK
        LOCFRAME XSTACK, 33, STACK
        LOCFRAME IOVERLAY, 0, STATIC
        LOCFRAME DOVERLAY, 0, STATIC
        ARGFRAME ISTACK, 0, STACK
        ARGFRAME PSTACK, 0, STACK
        ARGFRAME XSTACK, 33, STACK
        ARGFRAME IOVERLAY, 0, STATIC
        ARGFRAME DOVERLAY, 0, STATIC
        FUNCALL ZDApp_SaveNwkKey, osal_nv_write
        LOCFRAME ISTACK, 0, STACK
        LOCFRAME PSTACK, 0, STACK
        LOCFRAME XSTACK, 37, STACK
        LOCFRAME IOVERLAY, 0, STATIC
        LOCFRAME DOVERLAY, 0, STATIC
        ARGFRAME ISTACK, 0, STACK
        ARGFRAME PSTACK, 0, STACK
        ARGFRAME XSTACK, 37, STACK
        ARGFRAME IOVERLAY, 0, STATIC
        ARGFRAME DOVERLAY, 0, STATIC
        FUNCALL ZDApp_SaveNwkKey, osal_memset
        LOCFRAME ISTACK, 0, STACK
        LOCFRAME PSTACK, 0, STACK
        LOCFRAME XSTACK, 33, STACK
        LOCFRAME IOVERLAY, 0, STATIC
        LOCFRAME DOVERLAY, 0, STATIC
        ARGFRAME ISTACK, 0, STACK
        ARGFRAME PSTACK, 0, STACK
        ARGFRAME XSTACK, 33, STACK
        ARGFRAME IOVERLAY, 0, STATIC
        ARGFRAME DOVERLAY, 0, STATIC
        REQUIRE ?V0
        REQUIRE ?V1
        REQUIRE ?V2
        REQUIRE ?V3
        MOV     A,#-0xc
        LCALL   ?BANKED_ENTER_XDATA
          CFI DPH0 load(1, XDATA, add(CFA_XSP16, literal(-1)))
          CFI DPL0 load(1, XDATA, add(CFA_XSP16, literal(-2)))
          CFI ?BRET_EXT load(1, XDATA, add(CFA_XSP16, literal(-3)))
          CFI ?RET_HIGH load(1, XDATA, add(CFA_XSP16, literal(-4)))
          CFI ?RET_LOW load(1, XDATA, add(CFA_XSP16, literal(-5)))
          CFI R7 load(1, XDATA, add(CFA_XSP16, literal(-6)))
          CFI V3 load(1, XDATA, add(CFA_XSP16, literal(-7)))
          CFI V2 load(1, XDATA, add(CFA_XSP16, literal(-8)))
          CFI V1 load(1, XDATA, add(CFA_XSP16, literal(-9)))
          CFI V0 load(1, XDATA, add(CFA_XSP16, literal(-10)))
          CFI VB load(1, XDATA, add(CFA_XSP16, literal(-11)))
          CFI R6 load(1, XDATA, add(CFA_XSP16, literal(-12)))
          CFI CFA_SP SP+0
          CFI CFA_XSP16 add(XSP16, 12)
        ; Saved register size: 12
        ; Auto size: 21
        MOV     A,#-0x15
        LCALL   ?ALLOC_XSTACK8
          CFI CFA_XSP16 add(XSP16, 33)
// 1529   nwkActiveKeyItems keyItems;
// 1530 
// 1531   SSP_ReadNwkActiveKey( &keyItems );
        ; Setup parameters for call to function SSP_ReadNwkActiveKey
        MOV     R2,?XSP + 0
        MOV     R3,?XSP + 1
        LCALL   `??SSP_ReadNwkActiveKey::?relay`; Banked call to: SSP_ReadNwkActiveKey
// 1532   keyItems.frameCounter++;
        MOV     DPTR,#__Constant_1
        MOV     R0,#?V0
        LCALL   ?L_MOV_X
        MOV     A,#0x11
        LCALL   ?XSTACK_DISP0_8
        MOV     R0,#?V0
        LCALL   ?L_ADD_TO_X
// 1533 
// 1534   osal_nv_write( ZCD_NV_NWKKEY, 0, sizeof( nwkActiveKeyItems ),
// 1535                 (void *)&keyItems );
        ; Setup parameters for call to function osal_nv_write
        MOV     R0,?XSP + 0
        MOV     R1,?XSP + 1
        MOV     ?V0,R0
        MOV     ?V1,R1
        MOV     R0,#?V0
        LCALL   ?PUSH_XSTACK_I_TWO
          CFI CFA_XSP16 add(XSP16, 35)
        MOV     ?V0,#0x15
        MOV     ?V1,#0x0
        MOV     R0,#?V0
        LCALL   ?PUSH_XSTACK_I_TWO
          CFI CFA_XSP16 add(XSP16, 37)
        MOV     R4,#0x0
        MOV     R5,#0x0
        MOV     R2,#-0x7e
        MOV     R3,#0x0
        LCALL   `??osal_nv_write::?relay`; Banked call to: osal_nv_write
        MOV     A,#0x4
        LCALL   ?DEALLOC_XSTACK8
          CFI CFA_XSP16 add(XSP16, 33)
// 1536 
// 1537   nwkFrameCounterChanges = 0;
        MOV     DPTR,#nwkFrameCounterChanges
        CLR     A
        MOVX    @DPTR,A
        INC     DPTR
        MOVX    @DPTR,A
// 1538   
// 1539   // Clear copy in RAM before return. 
// 1540   osal_memset( &keyItems, 0x00, sizeof(keyItems) );
        ; Setup parameters for call to function osal_memset
        MOV     R4,#0x15
        MOV     R5,A
        MOV     R1,A
        MOV     R2,?XSP + 0
        MOV     R3,?XSP + 1
        LCALL   `??osal_memset::?relay`; Banked call to: osal_memset
// 1541 
// 1542 }
        LJMP    ?Subroutine1 & 0xFFFF
          CFI EndBlock cfiBlock33
// 1543 
// 1544 /*********************************************************************
// 1545  * @fn      ZDApp_ResetNwkKey()
// 1546  *
// 1547  * @brief   Reset the Network key information in NV.
// 1548  *
// 1549  * @param   none
// 1550  *
// 1551  * @return  none
// 1552  */

        RSEG BANKED_CODE:HUGECODE:NOROOT(0)
// 1553 void ZDApp_ResetNwkKey( void )
ZDApp_ResetNwkKey:
          CFI Block cfiBlock34 Using cfiCommon0
          CFI Function ZDApp_ResetNwkKey
        CODE
// 1554 {
        FUNCALL ZDApp_ResetNwkKey, osal_memset
        LOCFRAME ISTACK, 0, STACK
        LOCFRAME PSTACK, 0, STACK
        LOCFRAME XSTACK, 31, STACK
        LOCFRAME IOVERLAY, 0, STATIC
        LOCFRAME DOVERLAY, 0, STATIC
        ARGFRAME ISTACK, 0, STACK
        ARGFRAME PSTACK, 0, STACK
        ARGFRAME XSTACK, 31, STACK
        ARGFRAME IOVERLAY, 0, STATIC
        ARGFRAME DOVERLAY, 0, STATIC
        FUNCALL ZDApp_ResetNwkKey, osal_nv_write
        LOCFRAME ISTACK, 0, STACK
        LOCFRAME PSTACK, 0, STACK
        LOCFRAME XSTACK, 35, STACK
        LOCFRAME IOVERLAY, 0, STATIC
        LOCFRAME DOVERLAY, 0, STATIC
        ARGFRAME ISTACK, 0, STACK
        ARGFRAME PSTACK, 0, STACK
        ARGFRAME XSTACK, 35, STACK
        ARGFRAME IOVERLAY, 0, STATIC
        ARGFRAME DOVERLAY, 0, STATIC
        REQUIRE ?V0
        REQUIRE ?V1
        MOV     A,#-0xa
        LCALL   ?BANKED_ENTER_XDATA
          CFI DPH0 load(1, XDATA, add(CFA_XSP16, literal(-1)))
          CFI DPL0 load(1, XDATA, add(CFA_XSP16, literal(-2)))
          CFI ?BRET_EXT load(1, XDATA, add(CFA_XSP16, literal(-3)))
          CFI ?RET_HIGH load(1, XDATA, add(CFA_XSP16, literal(-4)))
          CFI ?RET_LOW load(1, XDATA, add(CFA_XSP16, literal(-5)))
          CFI R7 load(1, XDATA, add(CFA_XSP16, literal(-6)))
          CFI V1 load(1, XDATA, add(CFA_XSP16, literal(-7)))
          CFI V0 load(1, XDATA, add(CFA_XSP16, literal(-8)))
          CFI VB load(1, XDATA, add(CFA_XSP16, literal(-9)))
          CFI R6 load(1, XDATA, add(CFA_XSP16, literal(-10)))
          CFI CFA_SP SP+0
          CFI CFA_XSP16 add(XSP16, 10)
        ; Saved register size: 10
        ; Auto size: 21
        MOV     A,#-0x15
        LCALL   ?ALLOC_XSTACK8
          CFI CFA_XSP16 add(XSP16, 31)
// 1555   nwkActiveKeyItems keyItems;
// 1556 
// 1557   osal_memset( &keyItems, 0, sizeof( nwkActiveKeyItems ) );
        ; Setup parameters for call to function osal_memset
        MOV     R4,#0x15
        MOV     R5,#0x0
        MOV     R1,#0x0
        MOV     R2,?XSP + 0
        MOV     R3,?XSP + 1
        LCALL   `??osal_memset::?relay`; Banked call to: osal_memset
// 1558   osal_nv_write( ZCD_NV_NWKKEY, 0, sizeof( nwkActiveKeyItems ),
// 1559                 (void *)&keyItems );
        ; Setup parameters for call to function osal_nv_write
        MOV     R0,?XSP + 0
        MOV     R1,?XSP + 1
        MOV     ?V0,R0
        MOV     ?V1,R1
        MOV     R0,#?V0
        LCALL   ?PUSH_XSTACK_I_TWO
          CFI CFA_XSP16 add(XSP16, 33)
        MOV     ?V0,#0x15
        MOV     ?V1,#0x0
        MOV     R0,#?V0
        LCALL   ?PUSH_XSTACK_I_TWO
          CFI CFA_XSP16 add(XSP16, 35)
        MOV     R4,#0x0
        MOV     R5,#0x0
        MOV     R2,#-0x7e
        MOV     R3,#0x0
        LCALL   `??osal_nv_write::?relay`; Banked call to: osal_nv_write
        MOV     A,#0x4
        LCALL   ?DEALLOC_XSTACK8
          CFI CFA_XSP16 add(XSP16, 31)
// 1560 }
        LJMP    ?Subroutine8 & 0xFFFF
          CFI EndBlock cfiBlock34
// 1561 
// 1562 /*********************************************************************
// 1563  * @fn      ZDApp_RestoreNwkKey()
// 1564  *
// 1565  * @brief
// 1566  *
// 1567  *   Save off the Network key information.
// 1568  *
// 1569  * @param   none
// 1570  *
// 1571  * @return  true if restored from NV, false if not
// 1572  */

        RSEG BANKED_CODE:HUGECODE:NOROOT(0)
// 1573 uint8 ZDApp_RestoreNwkKey( void )
ZDApp_RestoreNwkKey:
          CFI Block cfiBlock35 Using cfiCommon0
          CFI Function ZDApp_RestoreNwkKey
        CODE
// 1574 {
        FUNCALL ZDApp_RestoreNwkKey, osal_nv_read
        LOCFRAME ISTACK, 0, STACK
        LOCFRAME PSTACK, 0, STACK
        LOCFRAME XSTACK, 37, STACK
        LOCFRAME IOVERLAY, 0, STATIC
        LOCFRAME DOVERLAY, 0, STATIC
        ARGFRAME ISTACK, 0, STACK
        ARGFRAME PSTACK, 0, STACK
        ARGFRAME XSTACK, 37, STACK
        ARGFRAME IOVERLAY, 0, STATIC
        ARGFRAME DOVERLAY, 0, STATIC
        FUNCALL ZDApp_RestoreNwkKey, osal_memset
        LOCFRAME ISTACK, 0, STACK
        LOCFRAME PSTACK, 0, STACK
        LOCFRAME XSTACK, 33, STACK
        LOCFRAME IOVERLAY, 0, STATIC
        LOCFRAME DOVERLAY, 0, STATIC
        ARGFRAME ISTACK, 0, STACK
        ARGFRAME PSTACK, 0, STACK
        ARGFRAME XSTACK, 33, STACK
        ARGFRAME IOVERLAY, 0, STATIC
        ARGFRAME DOVERLAY, 0, STATIC
        REQUIRE ?V0
        REQUIRE ?V1
        REQUIRE ?V2
        REQUIRE ?V3
        MOV     A,#-0xc
        LCALL   ?BANKED_ENTER_XDATA
          CFI DPH0 load(1, XDATA, add(CFA_XSP16, literal(-1)))
          CFI DPL0 load(1, XDATA, add(CFA_XSP16, literal(-2)))
          CFI ?BRET_EXT load(1, XDATA, add(CFA_XSP16, literal(-3)))
          CFI ?RET_HIGH load(1, XDATA, add(CFA_XSP16, literal(-4)))
          CFI ?RET_LOW load(1, XDATA, add(CFA_XSP16, literal(-5)))
          CFI R7 load(1, XDATA, add(CFA_XSP16, literal(-6)))
          CFI V3 load(1, XDATA, add(CFA_XSP16, literal(-7)))
          CFI V2 load(1, XDATA, add(CFA_XSP16, literal(-8)))
          CFI V1 load(1, XDATA, add(CFA_XSP16, literal(-9)))
          CFI V0 load(1, XDATA, add(CFA_XSP16, literal(-10)))
          CFI VB load(1, XDATA, add(CFA_XSP16, literal(-11)))
          CFI R6 load(1, XDATA, add(CFA_XSP16, literal(-12)))
          CFI CFA_SP SP+0
          CFI CFA_XSP16 add(XSP16, 12)
        ; Saved register size: 12
        ; Auto size: 21
        MOV     A,#-0x15
        LCALL   ?ALLOC_XSTACK8
          CFI CFA_XSP16 add(XSP16, 33)
// 1575   nwkActiveKeyItems keyItems;
// 1576   uint8 ret = false;
        MOV     R6,#0x0
// 1577 
// 1578   if ( osal_nv_read( ZCD_NV_NWKKEY, 0, sizeof(nwkActiveKeyItems), (void*)&keyItems )
// 1579       == ZSUCCESS )
        ; Setup parameters for call to function osal_nv_read
        MOV     R0,?XSP + 0
        MOV     R1,?XSP + 1
        MOV     ?V0,R0
        MOV     ?V1,R1
        MOV     R0,#?V0
        LCALL   ?PUSH_XSTACK_I_TWO
          CFI CFA_XSP16 add(XSP16, 35)
        MOV     ?V0,#0x15
        MOV     ?V1,R6
        MOV     R0,#?V0
        LCALL   ?PUSH_XSTACK_I_TWO
          CFI CFA_XSP16 add(XSP16, 37)
        MOV     R4,#0x0
        MOV     R5,#0x0
        MOV     R2,#-0x7e
        MOV     R3,#0x0
        LCALL   `??osal_nv_read::?relay`; Banked call to: osal_nv_read
        MOV     A,#0x4
        LCALL   ?DEALLOC_XSTACK8
          CFI CFA_XSP16 add(XSP16, 33)
        MOV     A,R1
        JNZ     ??ZDApp_RestoreNwkKey_0
// 1580   {
// 1581     if ( keyItems.frameCounter > 0 )
        MOV     A,#0x11
        LCALL   ?XSTACK_DISP0_8
        LCALL   ?XLOAD_R0123
        MOV     A,R0
        ORL     A,R1
        ORL     A,R2
        ORL     A,R3
        JZ      ??ZDApp_RestoreNwkKey_1
// 1582     {
// 1583       // Restore the key information
// 1584       keyItems.frameCounter += MAX_NWK_FRAMECOUNTER_CHANGES;
        MOV     DPTR,#__Constant_3e8
        MOV     R0,#?V0
        LCALL   ?L_MOV_X
        MOV     A,#0x11
        LCALL   ?XSTACK_DISP0_8
        MOV     R0,#?V0
        LCALL   ?L_ADD_TO_X
// 1585       nwkFrameCounter = keyItems.frameCounter;
        MOV     A,#0x11
        LCALL   ?XSTACK_DISP0_8
        LCALL   ?XLOAD_R0123
        MOV     DPTR,#nwkFrameCounter
        LCALL   ?XSTORE_R0123
// 1586       ret = true;
        MOV     R6,#0x1
// 1587     }
// 1588 
// 1589     // Force a save for the first frame counter increment
// 1590     nwkFrameCounterChanges = MAX_NWK_FRAMECOUNTER_CHANGES + 1;
??ZDApp_RestoreNwkKey_1:
        MOV     DPTR,#nwkFrameCounterChanges
        MOV     A,#-0x17
        MOVX    @DPTR,A
        INC     DPTR
        MOV     A,#0x3
        MOVX    @DPTR,A
// 1591   }
// 1592   // Clear copy in RAM before return. 
// 1593   osal_memset( &keyItems, 0x00, sizeof(keyItems) );
??ZDApp_RestoreNwkKey_0:
        ; Setup parameters for call to function osal_memset
        MOV     R4,#0x15
        MOV     R5,#0x0
        MOV     R1,#0x0
        MOV     R2,?XSP + 0
        MOV     R3,?XSP + 1
        LCALL   `??osal_memset::?relay`; Banked call to: osal_memset
// 1594   
// 1595   return ( ret );
        MOV     A,R6
        MOV     R1,A
        LJMP    ?Subroutine1 & 0xFFFF
// 1596 }
          CFI EndBlock cfiBlock35
// 1597 
// 1598 /*********************************************************************
// 1599  * @fn      ZDApp_ResetTimerStart
// 1600  *
// 1601  * @brief   Start the reset timer.
// 1602  *
// 1603  * @param   delay - delay time(ms) before reset
// 1604  *
// 1605  * @return  none
// 1606  */

        RSEG BANKED_CODE:HUGECODE:NOROOT(0)
// 1607 void ZDApp_ResetTimerStart( uint16 delay )
ZDApp_ResetTimerStart:
          CFI Block cfiBlock36 Using cfiCommon0
          CFI Function ZDApp_ResetTimerStart
        CODE
// 1608 {
        FUNCALL ZDApp_ResetTimerStart, osal_start_timerEx
        LOCFRAME ISTACK, 2, STACK
        LOCFRAME PSTACK, 0, STACK
        LOCFRAME XSTACK, 0, STACK
        LOCFRAME IOVERLAY, 0, STATIC
        LOCFRAME DOVERLAY, 0, STATIC
        ARGFRAME ISTACK, 2, STACK
        ARGFRAME PSTACK, 0, STACK
        ARGFRAME XSTACK, 0, STACK
        ARGFRAME IOVERLAY, 0, STATIC
        ARGFRAME DOVERLAY, 0, STATIC
        PUSH    DPL
          CFI DPL0 Frame(CFA_SP, 4)
          CFI CFA_SP SP+-4
        PUSH    DPH
          CFI DPH0 Frame(CFA_SP, 5)
          CFI CFA_SP SP+-5
        ; Saved register size: 2
        ; Auto size: 0
// 1609   // Start the rest timer
// 1610   osal_start_timerEx( ZDAppTaskID, ZDO_DEVICE_RESET, delay );
        ; Setup parameters for call to function osal_start_timerEx
        MOV     A,R2
        MOV     R4,A
        MOV     A,R3
        MOV     R5,A
        MOV     R2,#0x4
        MOV     R3,#0x0
        MOV     DPTR,#ZDAppTaskID
        MOVX    A,@DPTR
        MOV     R1,A
        LCALL   `??osal_start_timerEx::?relay`; Banked call to: osal_start_timerEx
// 1611 }
        LJMP    ?Subroutine3 & 0xFFFF
          CFI EndBlock cfiBlock36
// 1612 
// 1613 /*********************************************************************
// 1614  * @fn      ZDApp_ResetTimerCancel
// 1615  *
// 1616  * @brief   Cancel the reset timer.
// 1617  *
// 1618  * @param   none
// 1619  *
// 1620  * @return  none
// 1621  */

        RSEG BANKED_CODE:HUGECODE:NOROOT(0)
// 1622 void ZDApp_ResetTimerCancel( void )
ZDApp_ResetTimerCancel:
          CFI Block cfiBlock37 Using cfiCommon0
          CFI Function ZDApp_ResetTimerCancel
        CODE
// 1623 {
        FUNCALL ZDApp_ResetTimerCancel, osal_stop_timerEx
        LOCFRAME ISTACK, 2, STACK
        LOCFRAME PSTACK, 0, STACK
        LOCFRAME XSTACK, 0, STACK
        LOCFRAME IOVERLAY, 0, STATIC
        LOCFRAME DOVERLAY, 0, STATIC
        ARGFRAME ISTACK, 2, STACK
        ARGFRAME PSTACK, 0, STACK
        ARGFRAME XSTACK, 0, STACK
        ARGFRAME IOVERLAY, 0, STATIC
        ARGFRAME DOVERLAY, 0, STATIC
        PUSH    DPL
          CFI DPL0 Frame(CFA_SP, 4)
          CFI CFA_SP SP+-4
        PUSH    DPH
          CFI DPH0 Frame(CFA_SP, 5)
          CFI CFA_SP SP+-5
        ; Saved register size: 2
        ; Auto size: 0
// 1624   // Cancel the reset timer
// 1625   osal_stop_timerEx( ZDAppTaskID, ZDO_DEVICE_RESET );
        ; Setup parameters for call to function osal_stop_timerEx
        MOV     R2,#0x4
        MOV     R3,#0x0
        MOV     DPTR,#ZDAppTaskID
        MOVX    A,@DPTR
        MOV     R1,A
        LCALL   `??osal_stop_timerEx::?relay`; Banked call to: osal_stop_timerEx
// 1626 }
        LJMP    ?Subroutine3 & 0xFFFF
          CFI EndBlock cfiBlock37
// 1627 
// 1628 /*********************************************************************
// 1629  * @fn      ZDApp_LeaveCtrlInit
// 1630  *
// 1631  * @brief   Initialize the leave control logic.
// 1632  *
// 1633  * @param   none
// 1634  *
// 1635  * @return  none
// 1636  */

        RSEG BANKED_CODE:HUGECODE:NOROOT(0)
// 1637 void ZDApp_LeaveCtrlInit( void )
ZDApp_LeaveCtrlInit:
          CFI Block cfiBlock38 Using cfiCommon0
          CFI Function ZDApp_LeaveCtrlInit
        CODE
// 1638 {
        FUNCALL ZDApp_LeaveCtrlInit, osal_nv_item_init
        LOCFRAME ISTACK, 0, STACK
        LOCFRAME PSTACK, 0, STACK
        LOCFRAME XSTACK, 12, STACK
        LOCFRAME IOVERLAY, 0, STATIC
        LOCFRAME DOVERLAY, 0, STATIC
        ARGFRAME ISTACK, 0, STACK
        ARGFRAME PSTACK, 0, STACK
        ARGFRAME XSTACK, 12, STACK
        ARGFRAME IOVERLAY, 0, STATIC
        ARGFRAME DOVERLAY, 0, STATIC
        FUNCALL ZDApp_LeaveCtrlInit, osal_nv_read
        LOCFRAME ISTACK, 0, STACK
        LOCFRAME PSTACK, 0, STACK
        LOCFRAME XSTACK, 14, STACK
        LOCFRAME IOVERLAY, 0, STATIC
        LOCFRAME DOVERLAY, 0, STATIC
        ARGFRAME ISTACK, 0, STACK
        ARGFRAME PSTACK, 0, STACK
        ARGFRAME XSTACK, 14, STACK
        ARGFRAME IOVERLAY, 0, STATIC
        ARGFRAME DOVERLAY, 0, STATIC
        REQUIRE ?V0
        REQUIRE ?V1
        MOV     A,#-0xa
        LCALL   ?BANKED_ENTER_XDATA
          CFI DPH0 load(1, XDATA, add(CFA_XSP16, literal(-1)))
          CFI DPL0 load(1, XDATA, add(CFA_XSP16, literal(-2)))
          CFI ?BRET_EXT load(1, XDATA, add(CFA_XSP16, literal(-3)))
          CFI ?RET_HIGH load(1, XDATA, add(CFA_XSP16, literal(-4)))
          CFI ?RET_LOW load(1, XDATA, add(CFA_XSP16, literal(-5)))
          CFI R7 load(1, XDATA, add(CFA_XSP16, literal(-6)))
          CFI V1 load(1, XDATA, add(CFA_XSP16, literal(-7)))
          CFI V0 load(1, XDATA, add(CFA_XSP16, literal(-8)))
          CFI VB load(1, XDATA, add(CFA_XSP16, literal(-9)))
          CFI R6 load(1, XDATA, add(CFA_XSP16, literal(-10)))
          CFI CFA_SP SP+0
          CFI CFA_XSP16 add(XSP16, 10)
        ; Saved register size: 10
        ; Auto size: 0
// 1639   uint8 status;
// 1640 
// 1641 
// 1642   // Initialize control state
// 1643   ZDApp_LeaveCtrl = ZDAPP_LEAVE_CTRL_INIT;
        LCALL   ?Subroutine14 & 0xFFFF
// 1644 
// 1645   status = osal_nv_item_init( ZCD_NV_LEAVE_CTRL,
// 1646                               sizeof(ZDApp_LeaveCtrl),
// 1647                               &ZDApp_LeaveCtrl );
// 1648 
// 1649   if ( status == ZSUCCESS )
??CrossCallReturnLabel_8:
        LCALL   ?PUSH_XSTACK_I_TWO
          CFI CFA_XSP16 add(XSP16, 12)
        MOV     R4,#0x1
        MOV     R5,#0x0
        MOV     R2,#-0x7b
        MOV     R3,#0x0
        LCALL   `??osal_nv_item_init::?relay`; Banked call to: osal_nv_item_init
        MOV     A,#0x2
        LCALL   ?DEALLOC_XSTACK8
          CFI CFA_XSP16 add(XSP16, 10)
        MOV     A,R1
        JNZ     ??ZDApp_LeaveCtrlInit_0
// 1650   {
// 1651     // Read saved control
// 1652     osal_nv_read( ZCD_NV_LEAVE_CTRL,
// 1653                   0,
// 1654                   sizeof( uint8 ),
// 1655                   &ZDApp_LeaveCtrl);
        ; Setup parameters for call to function osal_nv_read
        MOV     R0,#?V0
        LCALL   ?PUSH_XSTACK_I_TWO
          CFI CFA_XSP16 add(XSP16, 12)
        MOV     ?V0,#0x1
        MOV     ?V1,#0x0
        MOV     R0,#?V0
        LCALL   ?PUSH_XSTACK_I_TWO
          CFI CFA_XSP16 add(XSP16, 14)
        MOV     R4,#0x0
        MOV     R5,#0x0
        MOV     R2,#-0x7b
        MOV     R3,#0x0
        LCALL   `??osal_nv_read::?relay`; Banked call to: osal_nv_read
        MOV     A,#0x4
        LCALL   ?DEALLOC_XSTACK8
          CFI CFA_XSP16 add(XSP16, 10)
// 1656   }
// 1657 }
??ZDApp_LeaveCtrlInit_0:
        SJMP    ??Subroutine35_0
          CFI EndBlock cfiBlock38
// 1658 
// 1659 /*********************************************************************
// 1660  * @fn      ZDApp_LeaveCtrlSet
// 1661  *
// 1662  * @brief   Set the leave control logic.
// 1663  *
// 1664  * @param   ra - reassociate flag
// 1665  *
// 1666  * @return  none
// 1667  */

        RSEG BANKED_CODE:HUGECODE:NOROOT(0)
// 1668 void ZDApp_LeaveCtrlSet( uint8 ra )
ZDApp_LeaveCtrlSet:
          CFI Block cfiBlock39 Using cfiCommon0
          CFI Function ZDApp_LeaveCtrlSet
        CODE
// 1669 {
        FUNCALL ZDApp_LeaveCtrlSet, osal_nv_write
        LOCFRAME ISTACK, 0, STACK
        LOCFRAME PSTACK, 0, STACK
        LOCFRAME XSTACK, 14, STACK
        LOCFRAME IOVERLAY, 0, STATIC
        LOCFRAME DOVERLAY, 0, STATIC
        ARGFRAME ISTACK, 0, STACK
        ARGFRAME PSTACK, 0, STACK
        ARGFRAME XSTACK, 14, STACK
        ARGFRAME IOVERLAY, 0, STATIC
        ARGFRAME DOVERLAY, 0, STATIC
        REQUIRE ?V0
        REQUIRE ?V1
        MOV     A,#-0xa
        LCALL   ?BANKED_ENTER_XDATA
          CFI DPH0 load(1, XDATA, add(CFA_XSP16, literal(-1)))
          CFI DPL0 load(1, XDATA, add(CFA_XSP16, literal(-2)))
          CFI ?BRET_EXT load(1, XDATA, add(CFA_XSP16, literal(-3)))
          CFI ?RET_HIGH load(1, XDATA, add(CFA_XSP16, literal(-4)))
          CFI ?RET_LOW load(1, XDATA, add(CFA_XSP16, literal(-5)))
          CFI R7 load(1, XDATA, add(CFA_XSP16, literal(-6)))
          CFI V1 load(1, XDATA, add(CFA_XSP16, literal(-7)))
          CFI V0 load(1, XDATA, add(CFA_XSP16, literal(-8)))
          CFI VB load(1, XDATA, add(CFA_XSP16, literal(-9)))
          CFI R6 load(1, XDATA, add(CFA_XSP16, literal(-10)))
          CFI CFA_SP SP+0
          CFI CFA_XSP16 add(XSP16, 10)
        ; Saved register size: 10
        ; Auto size: 0
        MOV     A,R1
        MOV     R6,A
// 1670   ZDApp_LeaveCtrl = ZDAPP_LEAVE_CTRL_SET;
        MOV     DPTR,#ZDApp_LeaveCtrl
        MOV     A,#0x1
        MOVX    @DPTR,A
// 1671 
// 1672   if ( ra == TRUE )
        XRL     A,R6
        JNZ     ??ZDApp_LeaveCtrlSet_0
// 1673   {
// 1674     ZDApp_LeaveCtrl |= ZDAPP_LEAVE_CTRL_RA;
        MOV     A,#0x3
        MOVX    @DPTR,A
// 1675   }
// 1676 
// 1677   // Write the leave control
// 1678   osal_nv_write( ZCD_NV_LEAVE_CTRL,
// 1679                  0,
// 1680                  sizeof( uint8 ),
// 1681                  &ZDApp_LeaveCtrl);
??ZDApp_LeaveCtrlSet_0:
        ; Setup parameters for call to function osal_nv_write
        MOV     ?V0,#ZDApp_LeaveCtrl & 0xff
        MOV     ?V1,#(ZDApp_LeaveCtrl >> 8) & 0xff
        MOV     R0,#?V0
        LCALL   ?PUSH_XSTACK_I_TWO
          CFI CFA_XSP16 add(XSP16, 12)
        MOV     ?V0,#0x1
        MOV     ?V1,#0x0
        MOV     R0,#?V0
        LCALL   ?PUSH_XSTACK_I_TWO
          CFI CFA_XSP16 add(XSP16, 14)
        MOV     R4,#0x0
        MOV     R5,#0x0
        MOV     R2,#-0x7b
        MOV     R3,#0x0
        LCALL   `??osal_nv_write::?relay`; Banked call to: osal_nv_write
        MOV     A,#0x4
        SJMP    ??Subroutine34_0
// 1682 }
          CFI EndBlock cfiBlock39

        RSEG BANKED_CODE:HUGECODE:NOROOT(0)
?Subroutine2:
          CFI Block cfiBlock40 Using cfiCommon0
          CFI NoFunction
          CFI CFA_SP SP+0
          CFI CFA_XSP16 add(XSP16, 12)
          CFI VB load(1, XDATA, add(CFA_XSP16, literal(-9)))
          CFI DPL0 load(1, XDATA, add(CFA_XSP16, literal(-2)))
          CFI DPH0 load(1, XDATA, add(CFA_XSP16, literal(-1)))
          CFI R6 load(1, XDATA, add(CFA_XSP16, literal(-10)))
          CFI R7 load(1, XDATA, add(CFA_XSP16, literal(-6)))
          CFI V0 load(1, XDATA, add(CFA_XSP16, literal(-8)))
          CFI V1 load(1, XDATA, add(CFA_XSP16, literal(-7)))
          CFI ?BRET_EXT load(1, XDATA, add(CFA_XSP16, literal(-3)))
          CFI ?RET_HIGH load(1, XDATA, add(CFA_XSP16, literal(-4)))
          CFI ?RET_LOW load(1, XDATA, add(CFA_XSP16, literal(-5)))
        MOV     A,#0x2
          CFI EndBlock cfiBlock40
        REQUIRE ??Subroutine34_0
        ; // Fall through to label ??Subroutine34_0

        RSEG BANKED_CODE:HUGECODE:NOROOT(0)
??Subroutine34_0:
          CFI Block cfiBlock41 Using cfiCommon0
          CFI NoFunction
          CFI CFA_SP SP+0
          CFI CFA_XSP16 add(XSP16, 27)
          CFI VB load(1, XDATA, add(CFA_XSP16, literal(-9)))
          CFI DPL0 load(1, XDATA, add(CFA_XSP16, literal(-2)))
          CFI DPH0 load(1, XDATA, add(CFA_XSP16, literal(-1)))
          CFI R6 load(1, XDATA, add(CFA_XSP16, literal(-10)))
          CFI R7 load(1, XDATA, add(CFA_XSP16, literal(-6)))
          CFI V0 load(1, XDATA, add(CFA_XSP16, literal(-8)))
          CFI V1 load(1, XDATA, add(CFA_XSP16, literal(-7)))
          CFI ?BRET_EXT load(1, XDATA, add(CFA_XSP16, literal(-3)))
          CFI ?RET_HIGH load(1, XDATA, add(CFA_XSP16, literal(-4)))
          CFI ?RET_LOW load(1, XDATA, add(CFA_XSP16, literal(-5)))
          CFI Invalid
        LCALL   ?DEALLOC_XSTACK8
          CFI EndBlock cfiBlock41
        REQUIRE ??Subroutine35_0
        ; // Fall through to label ??Subroutine35_0

        RSEG BANKED_CODE:HUGECODE:NOROOT(0)
??Subroutine35_0:
          CFI Block cfiBlock42 Using cfiCommon0
          CFI NoFunction
          CFI CFA_SP SP+0
          CFI CFA_XSP16 add(XSP16, 10)
          CFI VB load(1, XDATA, add(CFA_XSP16, literal(-9)))
          CFI DPL0 load(1, XDATA, add(CFA_XSP16, literal(-2)))
          CFI DPH0 load(1, XDATA, add(CFA_XSP16, literal(-1)))
          CFI R6 load(1, XDATA, add(CFA_XSP16, literal(-10)))
          CFI R7 load(1, XDATA, add(CFA_XSP16, literal(-6)))
          CFI V0 load(1, XDATA, add(CFA_XSP16, literal(-8)))
          CFI V1 load(1, XDATA, add(CFA_XSP16, literal(-7)))
          CFI ?BRET_EXT load(1, XDATA, add(CFA_XSP16, literal(-3)))
          CFI ?RET_HIGH load(1, XDATA, add(CFA_XSP16, literal(-4)))
          CFI ?RET_LOW load(1, XDATA, add(CFA_XSP16, literal(-5)))
        MOV     R7,#0x2
        LJMP    ?BANKED_LEAVE_XDATA
          CFI EndBlock cfiBlock42
// 1683 
// 1684 /*********************************************************************
// 1685  * @fn      ZDApp_LeaveCtrlBypass
// 1686  *
// 1687  * @brief   Check if NV restore should be skipped during a leave reset.
// 1688  *
// 1689  * @param   none
// 1690  *
// 1691  * @return  uint8 - (TRUE bypass:FALSE do not bypass)
// 1692  */

        RSEG BANKED_CODE:HUGECODE:NOROOT(0)
// 1693 uint8 ZDApp_LeaveCtrlBypass( void )
ZDApp_LeaveCtrlBypass:
          CFI Block cfiBlock43 Using cfiCommon0
          CFI Function ZDApp_LeaveCtrlBypass
        CODE
// 1694 {
        PUSH    DPL
          CFI DPL0 Frame(CFA_SP, 4)
          CFI CFA_SP SP+-4
        PUSH    DPH
          CFI DPH0 Frame(CFA_SP, 5)
          CFI CFA_SP SP+-5
        ; Saved register size: 2
        ; Auto size: 0
// 1695   uint8 bypass;
// 1696 
// 1697   if ( ZDApp_LeaveCtrl & ZDAPP_LEAVE_CTRL_SET )
// 1698   {
// 1699     bypass = TRUE;
// 1700   }
// 1701   else
// 1702   {
// 1703     bypass = FALSE;
// 1704   }
// 1705 
// 1706   return bypass;
        MOV     DPTR,#ZDApp_LeaveCtrl
        MOVX    A,@DPTR
        MOV     C,0xE0 /* A   */.0
        CLR     A
        RLC     A
        MOV     R1,A
        LJMP    ?Subroutine3 & 0xFFFF
// 1707 }
          CFI EndBlock cfiBlock43
// 1708 
// 1709 /*********************************************************************
// 1710  * @fn      ZDApp_LeaveCtrlStartup
// 1711  *
// 1712  * @brief   Check for startup conditions during a leave reset.
// 1713  *
// 1714  * @param   state      - devState_t determined by leave control logic
// 1715  * @param   startDelay - startup delay
// 1716  *
// 1717  * @return  none
// 1718  */

        RSEG BANKED_CODE:HUGECODE:NOROOT(0)
// 1719 void ZDApp_LeaveCtrlStartup( devStates_t* state, uint16* startDelay )
ZDApp_LeaveCtrlStartup:
          CFI Block cfiBlock44 Using cfiCommon0
          CFI Function ZDApp_LeaveCtrlStartup
        CODE
// 1720 {
        FUNCALL ZDApp_LeaveCtrlStartup, osal_nv_write
        LOCFRAME ISTACK, 0, STACK
        LOCFRAME PSTACK, 0, STACK
        LOCFRAME XSTACK, 14, STACK
        LOCFRAME IOVERLAY, 0, STATIC
        LOCFRAME DOVERLAY, 0, STATIC
        ARGFRAME ISTACK, 0, STACK
        ARGFRAME PSTACK, 0, STACK
        ARGFRAME XSTACK, 14, STACK
        ARGFRAME IOVERLAY, 0, STATIC
        ARGFRAME DOVERLAY, 0, STATIC
        REQUIRE ?V0
        REQUIRE ?V1
        MOV     A,#-0xa
        LCALL   ?BANKED_ENTER_XDATA
          CFI DPH0 load(1, XDATA, add(CFA_XSP16, literal(-1)))
          CFI DPL0 load(1, XDATA, add(CFA_XSP16, literal(-2)))
          CFI ?BRET_EXT load(1, XDATA, add(CFA_XSP16, literal(-3)))
          CFI ?RET_HIGH load(1, XDATA, add(CFA_XSP16, literal(-4)))
          CFI ?RET_LOW load(1, XDATA, add(CFA_XSP16, literal(-5)))
          CFI R7 load(1, XDATA, add(CFA_XSP16, literal(-6)))
          CFI V1 load(1, XDATA, add(CFA_XSP16, literal(-7)))
          CFI V0 load(1, XDATA, add(CFA_XSP16, literal(-8)))
          CFI VB load(1, XDATA, add(CFA_XSP16, literal(-9)))
          CFI R6 load(1, XDATA, add(CFA_XSP16, literal(-10)))
          CFI CFA_SP SP+0
          CFI CFA_XSP16 add(XSP16, 10)
        ; Saved register size: 10
        ; Auto size: 0
// 1721   *startDelay = 0;
        MOV     DPL,R4
        MOV     DPH,R5
        CLR     A
        MOVX    @DPTR,A
        INC     DPTR
        MOVX    @DPTR,A
// 1722 
// 1723   if ( ZDApp_LeaveCtrl & ZDAPP_LEAVE_CTRL_SET )
        MOV     DPTR,#ZDApp_LeaveCtrl
        MOVX    A,@DPTR
        MOV     C,0xE0 /* A   */.0
        JNC     ??ZDApp_LeaveCtrlStartup_0
// 1724   {
// 1725     if ( ZDApp_LeaveCtrl & ZDAPP_LEAVE_CTRL_RA )
        MOV     C,0xE0 /* A   */.1
        JNC     ??ZDApp_LeaveCtrlStartup_1
// 1726     {
// 1727       *startDelay = 5000;
        MOV     DPL,R4
        MOV     DPH,R5
        MOV     A,#-0x78
        MOVX    @DPTR,A
        INC     DPTR
        MOV     A,#0x13
        SJMP    ??ZDApp_LeaveCtrlStartup_2
// 1728     }
// 1729     else
// 1730     {
// 1731       *state = DEV_HOLD;
??ZDApp_LeaveCtrlStartup_1:
        MOV     DPL,R2
        MOV     DPH,R3
        CLR     A
??ZDApp_LeaveCtrlStartup_2:
        MOVX    @DPTR,A
// 1732     }
// 1733 
// 1734     // Set leave control to initialized state
// 1735     ZDApp_LeaveCtrl = ZDAPP_LEAVE_CTRL_INIT;
        LCALL   ?Subroutine14 & 0xFFFF
// 1736 
// 1737     // Write initialized control
// 1738     osal_nv_write( ZCD_NV_LEAVE_CTRL,
// 1739                   0,
// 1740                   sizeof( uint8 ),
// 1741                   &ZDApp_LeaveCtrl);
// 1742   }
??CrossCallReturnLabel_9:
        LCALL   ?PUSH_XSTACK_I_TWO
          CFI CFA_XSP16 add(XSP16, 12)
        MOV     ?V0,#0x1
        MOV     ?V1,#0x0
        MOV     R0,#?V0
        LCALL   ?PUSH_XSTACK_I_TWO
          CFI CFA_XSP16 add(XSP16, 14)
        MOV     R4,#0x0
        MOV     R5,#0x0
        MOV     R2,#-0x7b
        MOV     R3,#0x0
        LCALL   `??osal_nv_write::?relay`; Banked call to: osal_nv_write
        MOV     A,#0x4
        LCALL   ?DEALLOC_XSTACK8
          CFI CFA_XSP16 add(XSP16, 10)
// 1743 }
??ZDApp_LeaveCtrlStartup_0:
        SJMP    ??Subroutine35_0
          CFI EndBlock cfiBlock44

        RSEG BANKED_CODE:HUGECODE:NOROOT(0)
?Subroutine14:
          CFI Block cfiCond45 Using cfiCommon0
          CFI Function ZDApp_LeaveCtrlInit
          CFI Conditional ??CrossCallReturnLabel_8
          CFI R6 load(1, XDATA, add(CFA_XSP16, literal(-10)))
          CFI VB load(1, XDATA, add(CFA_XSP16, literal(-9)))
          CFI V0 load(1, XDATA, add(CFA_XSP16, literal(-8)))
          CFI V1 load(1, XDATA, add(CFA_XSP16, literal(-7)))
          CFI R7 load(1, XDATA, add(CFA_XSP16, literal(-6)))
          CFI ?RET_LOW load(1, XDATA, add(CFA_XSP16, literal(-5)))
          CFI ?RET_HIGH load(1, XDATA, add(CFA_XSP16, literal(-4)))
          CFI ?BRET_EXT load(1, XDATA, add(CFA_XSP16, literal(-3)))
          CFI DPL0 load(1, XDATA, add(CFA_XSP16, literal(-2)))
          CFI DPH0 load(1, XDATA, add(CFA_XSP16, literal(-1)))
          CFI CFA_SP SP+-2
          CFI CFA_XSP16 add(XSP16, 10)
          CFI Block cfiCond46 Using cfiCommon0
          CFI (cfiCond46) Function ZDApp_LeaveCtrlStartup
          CFI (cfiCond46) Conditional ??CrossCallReturnLabel_9
          CFI (cfiCond46) R6 load(1, XDATA, add(CFA_XSP16, literal(-10)))
          CFI (cfiCond46) VB load(1, XDATA, add(CFA_XSP16, literal(-9)))
          CFI (cfiCond46) V0 load(1, XDATA, add(CFA_XSP16, literal(-8)))
          CFI (cfiCond46) V1 load(1, XDATA, add(CFA_XSP16, literal(-7)))
          CFI (cfiCond46) R7 load(1, XDATA, add(CFA_XSP16, literal(-6)))
          CFI (cfiCond46) ?RET_LOW load(1, XDATA, add(CFA_XSP16, literal(-5)))
          CFI (cfiCond46) ?RET_HIGH load(1, XDATA, add(CFA_XSP16, literal(-4)))
          CFI (cfiCond46) ?BRET_EXT load(1, XDATA, add(CFA_XSP16, literal(-3)))
          CFI (cfiCond46) DPL0 load(1, XDATA, add(CFA_XSP16, literal(-2)))
          CFI (cfiCond46) DPH0 load(1, XDATA, add(CFA_XSP16, literal(-1)))
          CFI (cfiCond46) CFA_SP SP+-2
          CFI (cfiCond46) CFA_XSP16 add(XSP16, 10)
          CFI Block cfiPicker47 Using cfiCommon1
          CFI (cfiPicker47) NoFunction
          CFI (cfiPicker47) Picker
        MOV     DPTR,#ZDApp_LeaveCtrl
        CLR     A
        MOVX    @DPTR,A
        ; Setup parameters for call to function osal_nv_item_init
        ; Setup parameters for call to function osal_nv_write
        MOV     ?V0,#ZDApp_LeaveCtrl & 0xff
        MOV     ?V1,#(ZDApp_LeaveCtrl >> 8) & 0xff
        MOV     R0,#?V0
        RET
          CFI EndBlock cfiCond45
          CFI EndBlock cfiCond46
          CFI EndBlock cfiPicker47
// 1744 
// 1745 /*********************************************************************
// 1746  * @fn      ZDApp_LeaveReset
// 1747  *
// 1748  * @brief   Setup a device reset due to a leave indication/confirm.
// 1749  *
// 1750  * @param   ra - reassociate flag
// 1751  *
// 1752  * @return  none
// 1753  */

        RSEG BANKED_CODE:HUGECODE:NOROOT(0)
// 1754 void ZDApp_LeaveReset( uint8 ra )
ZDApp_LeaveReset:
          CFI Block cfiBlock48 Using cfiCommon0
          CFI Function ZDApp_LeaveReset
        CODE
// 1755 {
        FUNCALL ZDApp_LeaveReset, ZDApp_LeaveCtrlSet
        LOCFRAME ISTACK, 0, STACK
        LOCFRAME PSTACK, 0, STACK
        LOCFRAME XSTACK, 9, STACK
        LOCFRAME IOVERLAY, 0, STATIC
        LOCFRAME DOVERLAY, 0, STATIC
        ARGFRAME ISTACK, 0, STACK
        ARGFRAME PSTACK, 0, STACK
        ARGFRAME XSTACK, 9, STACK
        ARGFRAME IOVERLAY, 0, STATIC
        ARGFRAME DOVERLAY, 0, STATIC
        FUNCALL ZDApp_LeaveReset, ZDApp_ResetTimerStart
        LOCFRAME ISTACK, 0, STACK
        LOCFRAME PSTACK, 0, STACK
        LOCFRAME XSTACK, 9, STACK
        LOCFRAME IOVERLAY, 0, STATIC
        LOCFRAME DOVERLAY, 0, STATIC
        ARGFRAME ISTACK, 0, STACK
        ARGFRAME PSTACK, 0, STACK
        ARGFRAME XSTACK, 9, STACK
        ARGFRAME IOVERLAY, 0, STATIC
        ARGFRAME DOVERLAY, 0, STATIC
        MOV     A,#-0x9
        LCALL   ?BANKED_ENTER_XDATA
          CFI DPH0 load(1, XDATA, add(CFA_XSP16, literal(-1)))
          CFI DPL0 load(1, XDATA, add(CFA_XSP16, literal(-2)))
          CFI ?BRET_EXT load(1, XDATA, add(CFA_XSP16, literal(-3)))
          CFI ?RET_HIGH load(1, XDATA, add(CFA_XSP16, literal(-4)))
          CFI ?RET_LOW load(1, XDATA, add(CFA_XSP16, literal(-5)))
          CFI R7 load(1, XDATA, add(CFA_XSP16, literal(-6)))
          CFI V0 load(1, XDATA, add(CFA_XSP16, literal(-7)))
          CFI VB load(1, XDATA, add(CFA_XSP16, literal(-8)))
          CFI R6 load(1, XDATA, add(CFA_XSP16, literal(-9)))
          CFI CFA_SP SP+0
          CFI CFA_XSP16 add(XSP16, 9)
        ; Saved register size: 9
        ; Auto size: 0
// 1756   ZDApp_LeaveCtrlSet( ra );
        ; Setup parameters for call to function ZDApp_LeaveCtrlSet
        LCALL   `??ZDApp_LeaveCtrlSet::?relay`; Banked call to: ZDApp_LeaveCtrlSet
// 1757 
// 1758   ZDApp_ResetTimerStart( 5000 );
        ; Setup parameters for call to function ZDApp_ResetTimerStart
        MOV     R2,#-0x78
        MOV     R3,#0x13
        LCALL   `??ZDApp_ResetTimerStart::?relay`; Banked call to: ZDApp_ResetTimerStart
// 1759 }
        LJMP    ??Subroutine38_0 & 0xFFFF
          CFI EndBlock cfiBlock48
// 1760 
// 1761 /*********************************************************************
// 1762  * @fn      ZDApp_LeaveUpdate
// 1763  *
// 1764  * @brief   Update local device data related to leaving device.
// 1765  *
// 1766  * @param   nwkAddr        - NWK address of leaving device
// 1767  * @param   extAddr        - EXT address of leaving device
// 1768  * @param   removeChildren - remove children of leaving device
// 1769  *
// 1770  * @return  none
// 1771  */

        RSEG BANKED_CODE:HUGECODE:NOROOT(0)
// 1772 void ZDApp_LeaveUpdate( uint16 nwkAddr, uint8* extAddr,
ZDApp_LeaveUpdate:
          CFI Block cfiBlock49 Using cfiCommon0
          CFI Function ZDApp_LeaveUpdate
        CODE
// 1773                         uint8 removeChildren )
// 1774 {
        ; Saved register size: 0
        ; Auto size: 0
// 1775   /*
// 1776   AddrMgrEntry_t entry;
// 1777   */
// 1778   (void)nwkAddr;  // Intentionally unreferenced parameter
// 1779 
// 1780   // Remove if child
// 1781   if ( ZSTACK_ROUTER_BUILD )
// 1782   {
// 1783     NLME_RemoveChild( extAddr, removeChildren );
// 1784   }
// 1785 
// 1786   /*
// 1787   // Set NWK address to invalid
// 1788   entry.user    = ADDRMGR_USER_DEFAULT;
// 1789   entry.nwkAddr = INVALID_NODE_ADDR;
// 1790   AddrMgrExtAddrSet( entry.extAddr, extAddr );
// 1791   AddrMgrEntryUpdate( &entry );
// 1792 
// 1793   // Check
// 1794   if ( removeChildren == TRUE )
// 1795   {
// 1796     // Set index to INVALID_NODE_ADDR to start search
// 1797     entry.index = INVALID_NODE_ADDR;
// 1798 
// 1799     // Get first entry
// 1800     AddrMgrEntryGetNext( &entry );
// 1801 
// 1802     // Remove all descendents
// 1803     while ( entry.index != INVALID_NODE_ADDR )
// 1804     {
// 1805       // Check NWK address allocation algorithm
// 1806       if ( RTG_ANCESTOR( entry.nwkAddr, thisAddr ) != 0 )
// 1807       {
// 1808         // Set NWK address to invalid
// 1809         entry.nwkAddr = INVALID_NODE_ADDR;
// 1810         AddrMgrEntryUpdate( &entry );
// 1811       }
// 1812 
// 1813       // Get next entry
// 1814       AddrMgrEntryGetNext( &entry );
// 1815     }
// 1816   }
// 1817   */
// 1818 }
        LJMP    ?BRET
          CFI EndBlock cfiBlock49
// 1819 
// 1820 /*********************************************************************
// 1821  * @fn      ZDApp_NetworkDiscoveryReq
// 1822  *
// 1823  * @brief   Request a network discovery.
// 1824  *
// 1825  * @param  scanChannels - 
// 1826  * @param  scanDuration - 
// 1827  *
// 1828  * @return  ZStatus_t
// 1829  */

        RSEG BANKED_CODE:HUGECODE:NOROOT(0)
// 1830 ZStatus_t ZDApp_NetworkDiscoveryReq( uint32 scanChannels, uint8 scanDuration)
ZDApp_NetworkDiscoveryReq:
          CFI Block cfiBlock50 Using cfiCommon0
          CFI Function ZDApp_NetworkDiscoveryReq
        CODE
// 1831 {
        FUNCALL ZDApp_NetworkDiscoveryReq, NLME_NetworkDiscoveryRequest
        LOCFRAME ISTACK, 0, STACK
        LOCFRAME PSTACK, 0, STACK
        LOCFRAME XSTACK, 12, STACK
        LOCFRAME IOVERLAY, 0, STATIC
        LOCFRAME DOVERLAY, 0, STATIC
        ARGFRAME ISTACK, 0, STACK
        ARGFRAME PSTACK, 0, STACK
        ARGFRAME XSTACK, 12, STACK
        ARGFRAME IOVERLAY, 0, STATIC
        ARGFRAME DOVERLAY, 0, STATIC
        REQUIRE ?V0
        REQUIRE ?V1
        REQUIRE ?V2
        REQUIRE ?V3
        MOV     A,#-0xc
        LCALL   ?BANKED_ENTER_XDATA
          CFI DPH0 load(1, XDATA, add(CFA_XSP16, literal(-1)))
          CFI DPL0 load(1, XDATA, add(CFA_XSP16, literal(-2)))
          CFI ?BRET_EXT load(1, XDATA, add(CFA_XSP16, literal(-3)))
          CFI ?RET_HIGH load(1, XDATA, add(CFA_XSP16, literal(-4)))
          CFI ?RET_LOW load(1, XDATA, add(CFA_XSP16, literal(-5)))
          CFI R7 load(1, XDATA, add(CFA_XSP16, literal(-6)))
          CFI V3 load(1, XDATA, add(CFA_XSP16, literal(-7)))
          CFI V2 load(1, XDATA, add(CFA_XSP16, literal(-8)))
          CFI V1 load(1, XDATA, add(CFA_XSP16, literal(-9)))
          CFI V0 load(1, XDATA, add(CFA_XSP16, literal(-10)))
          CFI VB load(1, XDATA, add(CFA_XSP16, literal(-11)))
          CFI R6 load(1, XDATA, add(CFA_XSP16, literal(-12)))
          CFI CFA_SP SP+0
          CFI CFA_XSP16 add(XSP16, 12)
        ; Saved register size: 12
        ; Auto size: 0
// 1832   // Setup optional filters - tbd
// 1833   
// 1834   // Request NLME network discovery
// 1835   return NLME_NetworkDiscoveryRequest(scanChannels, scanDuration);
        ; Setup parameters for call to function NLME_NetworkDiscoveryRequest
        LCALL   `??NLME_NetworkDiscoveryRequest::?relay`; Banked call to: NLME_NetworkDiscoveryRequest
        SJMP    ??Subroutine37_0
// 1836 }
          CFI EndBlock cfiBlock50
// 1837 
// 1838 
// 1839 
// 1840 /*********************************************************************
// 1841  * @fn      ZDApp_JoinReq
// 1842  *
// 1843  * @brief   Request the device to join a parent in a network.
// 1844  *
// 1845  * @param   channel - 
// 1846  * @param   panID - 
// 1847  *
// 1848  * @return  ZStatus_t
// 1849  */

        RSEG BANKED_CODE:HUGECODE:NOROOT(0)
// 1850 ZStatus_t ZDApp_JoinReq( uint8 channel, uint16 panID, uint8 *extendedPanID, 
ZDApp_JoinReq:
          CFI Block cfiBlock51 Using cfiCommon0
          CFI Function ZDApp_JoinReq
        CODE
// 1851                          uint16 chosenParent, uint8 parentDepth, uint8 stackProfile )
// 1852 {  
        FUNCALL ZDApp_JoinReq, ZDApp_NodeProfileSync
        LOCFRAME ISTACK, 0, STACK
        LOCFRAME PSTACK, 0, STACK
        LOCFRAME XSTACK, 12, STACK
        LOCFRAME IOVERLAY, 0, STATIC
        LOCFRAME DOVERLAY, 0, STATIC
        ARGFRAME ISTACK, 0, STACK
        ARGFRAME PSTACK, 0, STACK
        ARGFRAME XSTACK, 12, STACK
        ARGFRAME IOVERLAY, 0, STATIC
        ARGFRAME DOVERLAY, 0, STATIC
        FUNCALL ZDApp_JoinReq, NLME_JoinRequest
        LOCFRAME ISTACK, 0, STACK
        LOCFRAME PSTACK, 0, STACK
        LOCFRAME XSTACK, 16, STACK
        LOCFRAME IOVERLAY, 0, STATIC
        LOCFRAME DOVERLAY, 0, STATIC
        ARGFRAME ISTACK, 0, STACK
        ARGFRAME PSTACK, 0, STACK
        ARGFRAME XSTACK, 16, STACK
        ARGFRAME IOVERLAY, 0, STATIC
        ARGFRAME DOVERLAY, 0, STATIC
        REQUIRE ?V0
        REQUIRE ?V1
        REQUIRE ?V2
        REQUIRE ?V3
        MOV     A,#-0xc
        LCALL   ?BANKED_ENTER_XDATA
          CFI DPH0 load(1, XDATA, add(CFA_XSP16, literal(-1)))
          CFI DPL0 load(1, XDATA, add(CFA_XSP16, literal(-2)))
          CFI ?BRET_EXT load(1, XDATA, add(CFA_XSP16, literal(-3)))
          CFI ?RET_HIGH load(1, XDATA, add(CFA_XSP16, literal(-4)))
          CFI ?RET_LOW load(1, XDATA, add(CFA_XSP16, literal(-5)))
          CFI R7 load(1, XDATA, add(CFA_XSP16, literal(-6)))
          CFI V3 load(1, XDATA, add(CFA_XSP16, literal(-7)))
          CFI V2 load(1, XDATA, add(CFA_XSP16, literal(-8)))
          CFI V1 load(1, XDATA, add(CFA_XSP16, literal(-9)))
          CFI V0 load(1, XDATA, add(CFA_XSP16, literal(-10)))
          CFI VB load(1, XDATA, add(CFA_XSP16, literal(-11)))
          CFI R6 load(1, XDATA, add(CFA_XSP16, literal(-12)))
          CFI CFA_SP SP+0
          CFI CFA_XSP16 add(XSP16, 12)
        ; Saved register size: 12
        ; Auto size: 0
        MOV     ?V2,R1
        MOV     A,R2
        MOV     R6,A
        MOV     A,R3
        MOV     R7,A
        MOV     ?V0,R4
        MOV     ?V1,R5
// 1853   // Sync up the node with the stack profile (In the case where a pro device 
// 1854   // joins a non-pro network, or verse versa)
// 1855   ZDApp_NodeProfileSync( stackProfile);
        ; Setup parameters for call to function ZDApp_NodeProfileSync
        MOV     A,#0xf
        LCALL   ?XSTACK_DISP0_8
        MOVX    A,@DPTR
        MOV     R1,A
        LCALL   `??ZDApp_NodeProfileSync::?relay`; Banked call to: ZDApp_NodeProfileSync
// 1856                 
// 1857   // Request NLME Join Request
// 1858   return NLME_JoinRequest(extendedPanID, panID,channel, 
// 1859                           ZDO_Config_Node_Descriptor.CapabilityFlags, 
// 1860                           chosenParent, parentDepth);
        ; Setup parameters for call to function NLME_JoinRequest
        MOV     A,#0xe
        LCALL   ?XSTACK_DISP0_8
        MOVX    A,@DPTR
        MOV     ?V3,A
        MOV     R0,#?V3
        LCALL   ?PUSH_XSTACK_I_ONE
          CFI CFA_XSP16 add(XSP16, 13)
        MOV     A,#0xd
        LCALL   ?XSTACK_DISP0_8
        LCALL   ?PUSH_XSTACK8_X_TWO
          CFI CFA_XSP16 add(XSP16, 15)
        MOV     DPTR,#ZDO_Config_Node_Descriptor + 2
        MOVX    A,@DPTR
        MOV     ?V3,A
        MOV     R0,#?V3
        LCALL   ?PUSH_XSTACK_I_ONE
          CFI CFA_XSP16 add(XSP16, 16)
        MOV     R1,?V2
        MOV     A,R6
        MOV     R4,A
        MOV     A,R7
        MOV     R5,A
        MOV     R2,?V0
        MOV     R3,?V1
        LCALL   `??NLME_JoinRequest::?relay`; Banked call to: NLME_JoinRequest
        MOV     A,#0x4
        SJMP    ??Subroutine36_0
// 1861 
// 1862 }
          CFI EndBlock cfiBlock51

        RSEG BANKED_CODE:HUGECODE:NOROOT(0)
?Subroutine1:
          CFI Block cfiBlock52 Using cfiCommon0
          CFI NoFunction
          CFI CFA_SP SP+0
          CFI CFA_XSP16 add(XSP16, 33)
          CFI VB load(1, XDATA, add(CFA_XSP16, literal(-11)))
          CFI DPL0 load(1, XDATA, add(CFA_XSP16, literal(-2)))
          CFI DPH0 load(1, XDATA, add(CFA_XSP16, literal(-1)))
          CFI R6 load(1, XDATA, add(CFA_XSP16, literal(-12)))
          CFI R7 load(1, XDATA, add(CFA_XSP16, literal(-6)))
          CFI V0 load(1, XDATA, add(CFA_XSP16, literal(-10)))
          CFI V1 load(1, XDATA, add(CFA_XSP16, literal(-9)))
          CFI V2 load(1, XDATA, add(CFA_XSP16, literal(-8)))
          CFI V3 load(1, XDATA, add(CFA_XSP16, literal(-7)))
          CFI ?BRET_EXT load(1, XDATA, add(CFA_XSP16, literal(-3)))
          CFI ?RET_HIGH load(1, XDATA, add(CFA_XSP16, literal(-4)))
          CFI ?RET_LOW load(1, XDATA, add(CFA_XSP16, literal(-5)))
        MOV     A,#0x15
          CFI EndBlock cfiBlock52
        REQUIRE ??Subroutine36_0
        ; // Fall through to label ??Subroutine36_0

        RSEG BANKED_CODE:HUGECODE:NOROOT(0)
??Subroutine36_0:
          CFI Block cfiBlock53 Using cfiCommon0
          CFI NoFunction
          CFI CFA_SP SP+0
          CFI CFA_XSP16 add(XSP16, 16)
          CFI VB load(1, XDATA, add(CFA_XSP16, literal(-11)))
          CFI DPL0 load(1, XDATA, add(CFA_XSP16, literal(-2)))
          CFI DPH0 load(1, XDATA, add(CFA_XSP16, literal(-1)))
          CFI R6 load(1, XDATA, add(CFA_XSP16, literal(-12)))
          CFI R7 load(1, XDATA, add(CFA_XSP16, literal(-6)))
          CFI V0 load(1, XDATA, add(CFA_XSP16, literal(-10)))
          CFI V1 load(1, XDATA, add(CFA_XSP16, literal(-9)))
          CFI V2 load(1, XDATA, add(CFA_XSP16, literal(-8)))
          CFI V3 load(1, XDATA, add(CFA_XSP16, literal(-7)))
          CFI ?BRET_EXT load(1, XDATA, add(CFA_XSP16, literal(-3)))
          CFI ?RET_HIGH load(1, XDATA, add(CFA_XSP16, literal(-4)))
          CFI ?RET_LOW load(1, XDATA, add(CFA_XSP16, literal(-5)))
          CFI Invalid
        LCALL   ?DEALLOC_XSTACK8
          CFI EndBlock cfiBlock53
        REQUIRE ??Subroutine37_0
        ; // Fall through to label ??Subroutine37_0

        RSEG BANKED_CODE:HUGECODE:NOROOT(0)
??Subroutine37_0:
          CFI Block cfiBlock54 Using cfiCommon0
          CFI NoFunction
          CFI CFA_SP SP+0
          CFI CFA_XSP16 add(XSP16, 12)
          CFI VB load(1, XDATA, add(CFA_XSP16, literal(-11)))
          CFI DPL0 load(1, XDATA, add(CFA_XSP16, literal(-2)))
          CFI DPH0 load(1, XDATA, add(CFA_XSP16, literal(-1)))
          CFI R6 load(1, XDATA, add(CFA_XSP16, literal(-12)))
          CFI R7 load(1, XDATA, add(CFA_XSP16, literal(-6)))
          CFI V0 load(1, XDATA, add(CFA_XSP16, literal(-10)))
          CFI V1 load(1, XDATA, add(CFA_XSP16, literal(-9)))
          CFI V2 load(1, XDATA, add(CFA_XSP16, literal(-8)))
          CFI V3 load(1, XDATA, add(CFA_XSP16, literal(-7)))
          CFI ?BRET_EXT load(1, XDATA, add(CFA_XSP16, literal(-3)))
          CFI ?RET_HIGH load(1, XDATA, add(CFA_XSP16, literal(-4)))
          CFI ?RET_LOW load(1, XDATA, add(CFA_XSP16, literal(-5)))
        MOV     R7,#0x4
        LJMP    ?BANKED_LEAVE_XDATA
          CFI EndBlock cfiBlock54
// 1863 /*********************************************************************
// 1864  * CALLBACK FUNCTIONS
// 1865  */
// 1866 
// 1867 
// 1868 /*********************************************************************
// 1869  * @fn      ZDApp_SendEventMsg()
// 1870  *
// 1871  * @brief
// 1872  *
// 1873  *   Sends a Network Join message
// 1874  *
// 1875  * @param  cmd - command ID
// 1876  * @param  len - length (in bytes) of the buf field
// 1877  * @param  buf - buffer for the rest of the message.
// 1878  *
// 1879  * @return  none
// 1880  */

        RSEG BANKED_CODE:HUGECODE:NOROOT(0)
// 1881 void ZDApp_SendEventMsg( uint8 cmd, uint8 len, uint8 *buf )
ZDApp_SendEventMsg:
          CFI Block cfiBlock55 Using cfiCommon0
          CFI Function ZDApp_SendEventMsg
        CODE
// 1882 {
        FUNCALL ZDApp_SendEventMsg, ZDApp_SendMsg
        LOCFRAME ISTACK, 0, STACK
        LOCFRAME PSTACK, 0, STACK
        LOCFRAME XSTACK, 9, STACK
        LOCFRAME IOVERLAY, 0, STATIC
        LOCFRAME DOVERLAY, 0, STATIC
        ARGFRAME ISTACK, 0, STACK
        ARGFRAME PSTACK, 0, STACK
        ARGFRAME XSTACK, 9, STACK
        ARGFRAME IOVERLAY, 0, STATIC
        ARGFRAME DOVERLAY, 0, STATIC
        MOV     A,#-0x9
        LCALL   ?BANKED_ENTER_XDATA
          CFI DPH0 load(1, XDATA, add(CFA_XSP16, literal(-1)))
          CFI DPL0 load(1, XDATA, add(CFA_XSP16, literal(-2)))
          CFI ?BRET_EXT load(1, XDATA, add(CFA_XSP16, literal(-3)))
          CFI ?RET_HIGH load(1, XDATA, add(CFA_XSP16, literal(-4)))
          CFI ?RET_LOW load(1, XDATA, add(CFA_XSP16, literal(-5)))
          CFI R7 load(1, XDATA, add(CFA_XSP16, literal(-6)))
          CFI V0 load(1, XDATA, add(CFA_XSP16, literal(-7)))
          CFI VB load(1, XDATA, add(CFA_XSP16, literal(-8)))
          CFI R6 load(1, XDATA, add(CFA_XSP16, literal(-9)))
          CFI CFA_SP SP+0
          CFI CFA_XSP16 add(XSP16, 9)
        ; Saved register size: 9
        ; Auto size: 0
        MOV     A,R1
        MOV     R6,A
        MOV     A,R2
// 1883   ZDApp_SendMsg( ZDAppTaskID, cmd, len, buf );
        ; Setup parameters for call to function ZDApp_SendMsg
        MOV     R3,A
        MOV     A,R6
        MOV     R2,A
        MOV     DPTR,#ZDAppTaskID
        MOVX    A,@DPTR
        MOV     R1,A
        LCALL   `??ZDApp_SendMsg::?relay`; Banked call to: ZDApp_SendMsg
// 1884 }
        SJMP    ??Subroutine38_0
          CFI EndBlock cfiBlock55

        RSEG BANKED_CODE:HUGECODE:NOROOT(0)
?Subroutine0:
          CFI Block cfiBlock56 Using cfiCommon0
          CFI NoFunction
          CFI CFA_SP SP+0
          CFI CFA_XSP16 add(XSP16, 9)
          CFI VB load(1, XDATA, add(CFA_XSP16, literal(-8)))
          CFI DPL0 load(1, XDATA, add(CFA_XSP16, literal(-2)))
          CFI DPH0 load(1, XDATA, add(CFA_XSP16, literal(-1)))
          CFI R6 load(1, XDATA, add(CFA_XSP16, literal(-9)))
          CFI R7 load(1, XDATA, add(CFA_XSP16, literal(-6)))
          CFI V0 load(1, XDATA, add(CFA_XSP16, literal(-7)))
          CFI ?BRET_EXT load(1, XDATA, add(CFA_XSP16, literal(-3)))
          CFI ?RET_HIGH load(1, XDATA, add(CFA_XSP16, literal(-4)))
          CFI ?RET_LOW load(1, XDATA, add(CFA_XSP16, literal(-5)))
        MOV     R3,#0x0
        MOV     DPTR,#ZDAppTaskID
        MOVX    A,@DPTR
        MOV     R1,A
        LCALL   `??osal_set_event::?relay`; Banked call to: osal_set_event
          CFI EndBlock cfiBlock56
        REQUIRE ??Subroutine38_0
        ; // Fall through to label ??Subroutine38_0

        RSEG BANKED_CODE:HUGECODE:NOROOT(0)
??Subroutine38_0:
          CFI Block cfiBlock57 Using cfiCommon0
          CFI NoFunction
          CFI CFA_SP SP+0
          CFI CFA_XSP16 add(XSP16, 9)
          CFI VB load(1, XDATA, add(CFA_XSP16, literal(-8)))
          CFI DPL0 load(1, XDATA, add(CFA_XSP16, literal(-2)))
          CFI DPH0 load(1, XDATA, add(CFA_XSP16, literal(-1)))
          CFI R6 load(1, XDATA, add(CFA_XSP16, literal(-9)))
          CFI R7 load(1, XDATA, add(CFA_XSP16, literal(-6)))
          CFI V0 load(1, XDATA, add(CFA_XSP16, literal(-7)))
          CFI ?BRET_EXT load(1, XDATA, add(CFA_XSP16, literal(-3)))
          CFI ?RET_HIGH load(1, XDATA, add(CFA_XSP16, literal(-4)))
          CFI ?RET_LOW load(1, XDATA, add(CFA_XSP16, literal(-5)))
        MOV     R7,#0x1
        LJMP    ?BANKED_LEAVE_XDATA
          CFI EndBlock cfiBlock57
// 1885 
// 1886 /*********************************************************************
// 1887  * @fn      ZDApp_SendMsg()
// 1888  *
// 1889  * @brief   Sends a OSAL message
// 1890  *
// 1891  * @param  taskID - Where to send the message
// 1892  * @param  cmd - command ID
// 1893  * @param  len - length (in bytes) of the buf field
// 1894  * @param  buf - buffer for the rest of the message.
// 1895  *
// 1896  * @return  none
// 1897  */

        RSEG BANKED_CODE:HUGECODE:NOROOT(0)
// 1898 void ZDApp_SendMsg( uint8 taskID, uint8 cmd, uint8 len, uint8 *buf )
ZDApp_SendMsg:
          CFI Block cfiBlock58 Using cfiCommon0
          CFI Function ZDApp_SendMsg
        CODE
// 1899 {
        FUNCALL ZDApp_SendMsg, osal_msg_allocate
        LOCFRAME ISTACK, 0, STACK
        LOCFRAME PSTACK, 0, STACK
        LOCFRAME XSTACK, 16, STACK
        LOCFRAME IOVERLAY, 0, STATIC
        LOCFRAME DOVERLAY, 0, STATIC
        ARGFRAME ISTACK, 0, STACK
        ARGFRAME PSTACK, 0, STACK
        ARGFRAME XSTACK, 16, STACK
        ARGFRAME IOVERLAY, 0, STATIC
        ARGFRAME DOVERLAY, 0, STATIC
        FUNCALL ZDApp_SendMsg, osal_memcpy
        LOCFRAME ISTACK, 0, STACK
        LOCFRAME PSTACK, 0, STACK
        LOCFRAME XSTACK, 19, STACK
        LOCFRAME IOVERLAY, 0, STATIC
        LOCFRAME DOVERLAY, 0, STATIC
        ARGFRAME ISTACK, 0, STACK
        ARGFRAME PSTACK, 0, STACK
        ARGFRAME XSTACK, 19, STACK
        ARGFRAME IOVERLAY, 0, STATIC
        ARGFRAME DOVERLAY, 0, STATIC
        FUNCALL ZDApp_SendMsg, osal_msg_send
        LOCFRAME ISTACK, 0, STACK
        LOCFRAME PSTACK, 0, STACK
        LOCFRAME XSTACK, 16, STACK
        LOCFRAME IOVERLAY, 0, STATIC
        LOCFRAME DOVERLAY, 0, STATIC
        ARGFRAME ISTACK, 0, STACK
        ARGFRAME PSTACK, 0, STACK
        ARGFRAME XSTACK, 16, STACK
        ARGFRAME IOVERLAY, 0, STATIC
        ARGFRAME DOVERLAY, 0, STATIC
        REQUIRE ?V0
        REQUIRE ?V1
        REQUIRE ?V2
        REQUIRE ?V3
        REQUIRE ?V4
        REQUIRE ?V5
        REQUIRE ?V6
        REQUIRE ?V7
        MOV     A,#-0x10
        LCALL   ?BANKED_ENTER_XDATA
          CFI DPH0 load(1, XDATA, add(CFA_XSP16, literal(-1)))
          CFI DPL0 load(1, XDATA, add(CFA_XSP16, literal(-2)))
          CFI ?BRET_EXT load(1, XDATA, add(CFA_XSP16, literal(-3)))
          CFI ?RET_HIGH load(1, XDATA, add(CFA_XSP16, literal(-4)))
          CFI ?RET_LOW load(1, XDATA, add(CFA_XSP16, literal(-5)))
          CFI R7 load(1, XDATA, add(CFA_XSP16, literal(-6)))
          CFI V7 load(1, XDATA, add(CFA_XSP16, literal(-7)))
          CFI V6 load(1, XDATA, add(CFA_XSP16, literal(-8)))
          CFI V5 load(1, XDATA, add(CFA_XSP16, literal(-9)))
          CFI V4 load(1, XDATA, add(CFA_XSP16, literal(-10)))
          CFI V3 load(1, XDATA, add(CFA_XSP16, literal(-11)))
          CFI V2 load(1, XDATA, add(CFA_XSP16, literal(-12)))
          CFI V1 load(1, XDATA, add(CFA_XSP16, literal(-13)))
          CFI V0 load(1, XDATA, add(CFA_XSP16, literal(-14)))
          CFI VB load(1, XDATA, add(CFA_XSP16, literal(-15)))
          CFI R6 load(1, XDATA, add(CFA_XSP16, literal(-16)))
          CFI CFA_SP SP+0
          CFI CFA_XSP16 add(XSP16, 16)
        ; Saved register size: 16
        ; Auto size: 0
        MOV     ?V7,R1
        MOV     ?V6,R2
        MOV     ?V3,R3
        MOV     ?V0,R4
        MOV     ?V1,R5
// 1900   osal_event_hdr_t *msgPtr;
// 1901 
// 1902   // Send the address to the task
// 1903   msgPtr = (osal_event_hdr_t *)osal_msg_allocate( len );
        ; Setup parameters for call to function osal_msg_allocate
        MOV     R2,?V3
        MOV     R3,#0x0
        LCALL   `??osal_msg_allocate::?relay`; Banked call to: osal_msg_allocate
        MOV     ?V4,R2
        MOV     ?V5,R3
        MOV     R6,?V4
        MOV     R7,?V5
// 1904   if ( msgPtr )
        MOV     A,R6
        ORL     A,R7
        JZ      ??ZDApp_SendMsg_0
// 1905   {
// 1906     if ( (len > 0) && (buf != NULL) )
        MOV     A,?V3
        JZ      ??ZDApp_SendMsg_1
        MOV     A,?V0
        ORL     A,?V1
        JZ      ??ZDApp_SendMsg_1
// 1907       osal_memcpy( msgPtr, buf, len );
        ; Setup parameters for call to function osal_memcpy
        MOV     ?V2,#0x0
        MOV     R0,#?V0
        LCALL   ?PUSH_XSTACK_I_THREE
          CFI CFA_XSP16 add(XSP16, 19)
        MOV     R4,?V3
        MOV     R5,#0x0
        LCALL   `??osal_memcpy::?relay`; Banked call to: osal_memcpy
        MOV     A,#0x3
        LCALL   ?DEALLOC_XSTACK8
          CFI CFA_XSP16 add(XSP16, 16)
// 1908 
// 1909     msgPtr->event = cmd;
??ZDApp_SendMsg_1:
        MOV     DPL,R6
        MOV     DPH,R7
        MOV     A,?V6
        MOVX    @DPTR,A
// 1910     osal_msg_send( taskID, (uint8 *)msgPtr );
        ; Setup parameters for call to function osal_msg_send
        MOV     A,R6
        MOV     R2,A
        MOV     A,R7
        MOV     R3,A
        MOV     R1,?V7
        LCALL   `??osal_msg_send::?relay`; Banked call to: osal_msg_send
// 1911   }
// 1912 }
??ZDApp_SendMsg_0:
        MOV     R7,#0x8
        LJMP    ?BANKED_LEAVE_XDATA
          CFI EndBlock cfiBlock58
// 1913 
// 1914 /*********************************************************************
// 1915  * Call Back Functions from NWK  - API
// 1916  */
// 1917 
// 1918 /*********************************************************************
// 1919  * @fn          ZDO_NetworkDiscoveryConfirmCB
// 1920  *
// 1921  * @brief       This function returns a choice of PAN to join.
// 1922  *
// 1923  * @param       status - return status of the nwk discovery confirm
// 1924  *
// 1925  * @return      ZStatus_t
// 1926  */

        RSEG BANKED_CODE:HUGECODE:NOROOT(0)
// 1927 ZStatus_t ZDO_NetworkDiscoveryConfirmCB(uint8 status)
ZDO_NetworkDiscoveryConfirmCB:
          CFI Block cfiBlock59 Using cfiCommon0
          CFI Function ZDO_NetworkDiscoveryConfirmCB
        CODE
// 1928 {
        FUNCALL ZDO_NetworkDiscoveryConfirmCB, ZDApp_SendMsg
        LOCFRAME ISTACK, 2, STACK
        LOCFRAME PSTACK, 0, STACK
        LOCFRAME XSTACK, 3, STACK
        LOCFRAME IOVERLAY, 0, STATIC
        LOCFRAME DOVERLAY, 0, STATIC
        ARGFRAME ISTACK, 2, STACK
        ARGFRAME PSTACK, 0, STACK
        ARGFRAME XSTACK, 3, STACK
        ARGFRAME IOVERLAY, 0, STATIC
        ARGFRAME DOVERLAY, 0, STATIC
        PUSH    DPL
          CFI DPL0 Frame(CFA_SP, 4)
          CFI CFA_SP SP+-4
        PUSH    DPH
          CFI DPH0 Frame(CFA_SP, 5)
          CFI CFA_SP SP+-5
        ; Saved register size: 2
        ; Auto size: 3
        MOV     A,#-0x3
        LCALL   ?ALLOC_XSTACK8
          CFI CFA_XSP16 add(XSP16, 3)
        MOV     A,R1
        MOV     DPL,?XSP + 0
        MOV     DPH,?XSP + 1
        MOVX    @DPTR,A
// 1929   osal_event_hdr_t msg;
// 1930 
// 1931   // If Scan is initiated by ZDO_MGMT_NWK_DISC_REQ
// 1932   // Send ZDO_MGMT_NWK_DISC_RSP back
// 1933 #if defined ( ZDO_MGMT_NWKDISC_RESPONSE )
// 1934   if ( zdappMgmtNwkDiscReqInProgress )
// 1935   {
// 1936     zdappMgmtNwkDiscReqInProgress = false;
// 1937     ZDO_FinishProcessingMgmtNwkDiscReq();
// 1938   }
// 1939   else
// 1940 #endif
// 1941   {
// 1942     // Pass the confirm to another task if it registers the callback
// 1943     // Otherwise, pass the confirm to ZDApp.
// 1944     if (zdoCBFunc[ZDO_NWK_DISCOVERY_CNF_CBID] != NULL )
        MOV     DPTR,#zdoCBFunc + 4
        LCALL   ?Subroutine15 & 0xFFFF
??CrossCallReturnLabel_11:
        JZ      ??ZDO_NetworkDiscoveryConfirmCB_0
// 1945     {      
// 1946       zdoCBFunc[ZDO_NWK_DISCOVERY_CNF_CBID]( (void*)&status );
        ; Setup parameters for indirect call
        LCALL   ?Subroutine18 & 0xFFFF
// 1947     }
??CrossCallReturnLabel_49:
        LCALL   ?CALL_IND
        SJMP    ??ZDO_NetworkDiscoveryConfirmCB_1
// 1948     else
// 1949     {
// 1950       // Otherwise, send scan confirm to ZDApp task to proceed
// 1951       msg.status = ZDO_SUCCESS;
??ZDO_NetworkDiscoveryConfirmCB_0:
        MOV     A,#0x2
        LCALL   ?XSTACK_DISP0_8
        CLR     A
        MOVX    @DPTR,A
// 1952       ZDApp_SendMsg( ZDAppTaskID, ZDO_NWK_DISC_CNF, sizeof(osal_event_hdr_t), (uint8 *)&msg );
        ; Setup parameters for call to function ZDApp_SendMsg
        INC     A
        LCALL   ?XSTACK_DISP102_8
        MOV     R3,#0x2
        MOV     R2,#0x1
        MOV     DPTR,#ZDAppTaskID
        MOVX    A,@DPTR
        MOV     R1,A
        LCALL   `??ZDApp_SendMsg::?relay`; Banked call to: ZDApp_SendMsg
// 1953     }
// 1954   }
// 1955   return (ZSuccess);
??ZDO_NetworkDiscoveryConfirmCB_1:
        MOV     R1,#0x0
        MOV     A,#0x3
        LCALL   ?DEALLOC_XSTACK8
          CFI EndBlock cfiBlock59
        REQUIRE ?Subroutine3
        ; // Fall through to label ?Subroutine3
// 1956 }  // ZDO_NetworkDiscoveryConfirmCB

        RSEG BANKED_CODE:HUGECODE:NOROOT(0)
?Subroutine3:
          CFI Block cfiBlock60 Using cfiCommon0
          CFI NoFunction
          CFI CFA_SP SP+-5
          CFI DPL0 Frame(CFA_SP, 4)
          CFI DPH0 Frame(CFA_SP, 5)
        POP     DPH
          CFI CFA_SP SP+-4
          CFI DPH0 SameValue
        POP     DPL
          CFI CFA_SP SP+-3
          CFI DPL0 SameValue
        LJMP    ?BRET
          CFI EndBlock cfiBlock60

        RSEG BANKED_CODE:HUGECODE:NOROOT(0)
?Subroutine18:
          CFI Block cfiCond61 Using cfiCommon0
          CFI Function ZDO_NetworkDiscoveryConfirmCB
          CFI Conditional ??CrossCallReturnLabel_49
          CFI DPL0 Frame(CFA_SP, 4)
          CFI DPH0 Frame(CFA_SP, 5)
          CFI CFA_SP SP+-7
          CFI CFA_XSP16 add(XSP16, 3)
          CFI Block cfiCond62 Using cfiCommon0
          CFI (cfiCond62) Function ZDO_ConcentratorIndicationCB
          CFI (cfiCond62) Conditional ??CrossCallReturnLabel_50
          CFI (cfiCond62) R6 load(1, XDATA, add(CFA_XSP16, literal(-9)))
          CFI (cfiCond62) VB load(1, XDATA, add(CFA_XSP16, literal(-8)))
          CFI (cfiCond62) V0 load(1, XDATA, add(CFA_XSP16, literal(-7)))
          CFI (cfiCond62) R7 load(1, XDATA, add(CFA_XSP16, literal(-6)))
          CFI (cfiCond62) ?RET_LOW load(1, XDATA, add(CFA_XSP16, literal(-5)))
          CFI (cfiCond62) ?RET_HIGH load(1, XDATA, add(CFA_XSP16, literal(-4)))
          CFI (cfiCond62) ?BRET_EXT load(1, XDATA, add(CFA_XSP16, literal(-3)))
          CFI (cfiCond62) DPL0 load(1, XDATA, add(CFA_XSP16, literal(-2)))
          CFI (cfiCond62) DPH0 load(1, XDATA, add(CFA_XSP16, literal(-1)))
          CFI (cfiCond62) CFA_SP SP+-2
          CFI (cfiCond62) CFA_XSP16 add(XSP16, 14)
          CFI Block cfiCond63 Using cfiCommon0
          CFI (cfiCond63) Function ZDO_SrcRtgIndCB
          CFI (cfiCond63) Conditional ??CrossCallReturnLabel_51
          CFI (cfiCond63) R6 load(1, XDATA, add(CFA_XSP16, literal(-9)))
          CFI (cfiCond63) VB load(1, XDATA, add(CFA_XSP16, literal(-8)))
          CFI (cfiCond63) V0 load(1, XDATA, add(CFA_XSP16, literal(-7)))
          CFI (cfiCond63) R7 load(1, XDATA, add(CFA_XSP16, literal(-6)))
          CFI (cfiCond63) ?RET_LOW load(1, XDATA, add(CFA_XSP16, literal(-5)))
          CFI (cfiCond63) ?RET_HIGH load(1, XDATA, add(CFA_XSP16, literal(-4)))
          CFI (cfiCond63) ?BRET_EXT load(1, XDATA, add(CFA_XSP16, literal(-3)))
          CFI (cfiCond63) DPL0 load(1, XDATA, add(CFA_XSP16, literal(-2)))
          CFI (cfiCond63) DPH0 load(1, XDATA, add(CFA_XSP16, literal(-1)))
          CFI (cfiCond63) CFA_SP SP+-2
          CFI (cfiCond63) CFA_XSP16 add(XSP16, 14)
          CFI Block cfiPicker64 Using cfiCommon1
          CFI (cfiPicker64) NoFunction
          CFI (cfiPicker64) Picker
        MOV     R2,?XSP + 0
        MOV     R3,?XSP + 1
          CFI EndBlock cfiCond61
          CFI EndBlock cfiCond62
          CFI EndBlock cfiCond63
          CFI EndBlock cfiPicker64
        REQUIRE ??Subroutine39_0
        ; // Fall through to label ??Subroutine39_0

        RSEG BANKED_CODE:HUGECODE:NOROOT(0)
??Subroutine39_0:
          CFI Block cfiCond65 Using cfiCommon0
          CFI Function ZDO_beaconNotifyIndCB
          CFI Conditional ??CrossCallReturnLabel_47
          CFI R6 load(1, XDATA, add(CFA_XSP16, literal(-14)))
          CFI VB load(1, XDATA, add(CFA_XSP16, literal(-13)))
          CFI V0 load(1, XDATA, add(CFA_XSP16, literal(-12)))
          CFI V1 load(1, XDATA, add(CFA_XSP16, literal(-11)))
          CFI V2 load(1, XDATA, add(CFA_XSP16, literal(-10)))
          CFI V3 load(1, XDATA, add(CFA_XSP16, literal(-9)))
          CFI V4 load(1, XDATA, add(CFA_XSP16, literal(-8)))
          CFI V5 load(1, XDATA, add(CFA_XSP16, literal(-7)))
          CFI R7 load(1, XDATA, add(CFA_XSP16, literal(-6)))
          CFI ?RET_LOW load(1, XDATA, add(CFA_XSP16, literal(-5)))
          CFI ?RET_HIGH load(1, XDATA, add(CFA_XSP16, literal(-4)))
          CFI ?BRET_EXT load(1, XDATA, add(CFA_XSP16, literal(-3)))
          CFI DPL0 load(1, XDATA, add(CFA_XSP16, literal(-2)))
          CFI DPH0 load(1, XDATA, add(CFA_XSP16, literal(-1)))
          CFI CFA_SP SP+-2
          CFI CFA_XSP16 add(XSP16, 14)
          CFI Block cfiCond66 Using cfiCommon0
          CFI (cfiCond66) Function ZDO_JoinConfirmCB
          CFI (cfiCond66) Conditional ??CrossCallReturnLabel_48
          CFI (cfiCond66) R6 load(1, XDATA, add(CFA_XSP16, literal(-9)))
          CFI (cfiCond66) VB load(1, XDATA, add(CFA_XSP16, literal(-8)))
          CFI (cfiCond66) V0 load(1, XDATA, add(CFA_XSP16, literal(-7)))
          CFI (cfiCond66) R7 load(1, XDATA, add(CFA_XSP16, literal(-6)))
          CFI (cfiCond66) ?RET_LOW load(1, XDATA, add(CFA_XSP16, literal(-5)))
          CFI (cfiCond66) ?RET_HIGH load(1, XDATA, add(CFA_XSP16, literal(-4)))
          CFI (cfiCond66) ?BRET_EXT load(1, XDATA, add(CFA_XSP16, literal(-3)))
          CFI (cfiCond66) DPL0 load(1, XDATA, add(CFA_XSP16, literal(-2)))
          CFI (cfiCond66) DPH0 load(1, XDATA, add(CFA_XSP16, literal(-1)))
          CFI (cfiCond66) CFA_SP SP+-2
          CFI (cfiCond66) CFA_XSP16 add(XSP16, 14)
          CFI Block cfiCond67 Using cfiCommon0
          CFI (cfiCond67) Function ZDO_NetworkDiscoveryConfirmCB
          CFI (cfiCond67) Conditional ??CrossCallReturnLabel_49
          CFI (cfiCond67) DPL0 Frame(CFA_SP, 4)
          CFI (cfiCond67) DPH0 Frame(CFA_SP, 5)
          CFI (cfiCond67) CFA_SP SP+-7
          CFI (cfiCond67) CFA_XSP16 add(XSP16, 3)
          CFI Block cfiCond68 Using cfiCommon0
          CFI (cfiCond68) Function ZDO_ConcentratorIndicationCB
          CFI (cfiCond68) Conditional ??CrossCallReturnLabel_50
          CFI (cfiCond68) R6 load(1, XDATA, add(CFA_XSP16, literal(-9)))
          CFI (cfiCond68) VB load(1, XDATA, add(CFA_XSP16, literal(-8)))
          CFI (cfiCond68) V0 load(1, XDATA, add(CFA_XSP16, literal(-7)))
          CFI (cfiCond68) R7 load(1, XDATA, add(CFA_XSP16, literal(-6)))
          CFI (cfiCond68) ?RET_LOW load(1, XDATA, add(CFA_XSP16, literal(-5)))
          CFI (cfiCond68) ?RET_HIGH load(1, XDATA, add(CFA_XSP16, literal(-4)))
          CFI (cfiCond68) ?BRET_EXT load(1, XDATA, add(CFA_XSP16, literal(-3)))
          CFI (cfiCond68) DPL0 load(1, XDATA, add(CFA_XSP16, literal(-2)))
          CFI (cfiCond68) DPH0 load(1, XDATA, add(CFA_XSP16, literal(-1)))
          CFI (cfiCond68) CFA_SP SP+-2
          CFI (cfiCond68) CFA_XSP16 add(XSP16, 14)
          CFI Block cfiCond69 Using cfiCommon0
          CFI (cfiCond69) Function ZDO_SrcRtgIndCB
          CFI (cfiCond69) Conditional ??CrossCallReturnLabel_51
          CFI (cfiCond69) R6 load(1, XDATA, add(CFA_XSP16, literal(-9)))
          CFI (cfiCond69) VB load(1, XDATA, add(CFA_XSP16, literal(-8)))
          CFI (cfiCond69) V0 load(1, XDATA, add(CFA_XSP16, literal(-7)))
          CFI (cfiCond69) R7 load(1, XDATA, add(CFA_XSP16, literal(-6)))
          CFI (cfiCond69) ?RET_LOW load(1, XDATA, add(CFA_XSP16, literal(-5)))
          CFI (cfiCond69) ?RET_HIGH load(1, XDATA, add(CFA_XSP16, literal(-4)))
          CFI (cfiCond69) ?BRET_EXT load(1, XDATA, add(CFA_XSP16, literal(-3)))
          CFI (cfiCond69) DPL0 load(1, XDATA, add(CFA_XSP16, literal(-2)))
          CFI (cfiCond69) DPH0 load(1, XDATA, add(CFA_XSP16, literal(-1)))
          CFI (cfiCond69) CFA_SP SP+-2
          CFI (cfiCond69) CFA_XSP16 add(XSP16, 14)
          CFI Block cfiPicker70 Using cfiCommon1
          CFI (cfiPicker70) NoFunction
          CFI (cfiPicker70) Picker
        MOVX    A,@DPTR
        MOV     DPH,A
        MOV     DPL,R0
        RET
          CFI EndBlock cfiCond65
          CFI EndBlock cfiCond66
          CFI EndBlock cfiCond67
          CFI EndBlock cfiCond68
          CFI EndBlock cfiCond69
          CFI EndBlock cfiPicker70
// 1957 
// 1958 /*********************************************************************
// 1959  * @fn          ZDApp_NwkDescListProcessing
// 1960  *
// 1961  * @brief       This function process the network discovery result and select 
// 1962  *              a parent device to join itself.
// 1963  *
// 1964  * @param       none
// 1965  *
// 1966  * @return      ZStatus_t
// 1967  */
// 1968 #define STACK_PROFILE_MAX 2

        RSEG BANKED_CODE:HUGECODE:NOROOT(0)
// 1969 networkDesc_t* ZDApp_NwkDescListProcessing(void)
ZDApp_NwkDescListProcessing:
          CFI Block cfiBlock71 Using cfiCommon0
          CFI Function ZDApp_NwkDescListProcessing
        CODE
// 1970 {
        FUNCALL ZDApp_NwkDescListProcessing, nwk_getNwkDescList
        LOCFRAME ISTACK, 0, STACK
        LOCFRAME PSTACK, 0, STACK
        LOCFRAME XSTACK, 14, STACK
        LOCFRAME IOVERLAY, 0, STATIC
        LOCFRAME DOVERLAY, 0, STATIC
        ARGFRAME ISTACK, 0, STACK
        ARGFRAME PSTACK, 0, STACK
        ARGFRAME XSTACK, 14, STACK
        ARGFRAME IOVERLAY, 0, STATIC
        ARGFRAME DOVERLAY, 0, STATIC
        FUNCALL ZDApp_NwkDescListProcessing, nwk_getNwkDescList
        LOCFRAME ISTACK, 0, STACK
        LOCFRAME PSTACK, 0, STACK
        LOCFRAME XSTACK, 14, STACK
        LOCFRAME IOVERLAY, 0, STATIC
        LOCFRAME DOVERLAY, 0, STATIC
        ARGFRAME ISTACK, 0, STACK
        ARGFRAME PSTACK, 0, STACK
        ARGFRAME XSTACK, 14, STACK
        ARGFRAME IOVERLAY, 0, STATIC
        ARGFRAME DOVERLAY, 0, STATIC
        FUNCALL ZDApp_NwkDescListProcessing, nwk_ExtPANIDValid
        LOCFRAME ISTACK, 0, STACK
        LOCFRAME PSTACK, 0, STACK
        LOCFRAME XSTACK, 14, STACK
        LOCFRAME IOVERLAY, 0, STATIC
        LOCFRAME DOVERLAY, 0, STATIC
        ARGFRAME ISTACK, 0, STACK
        ARGFRAME PSTACK, 0, STACK
        ARGFRAME XSTACK, 14, STACK
        ARGFRAME IOVERLAY, 0, STATIC
        ARGFRAME DOVERLAY, 0, STATIC
        FUNCALL ZDApp_NwkDescListProcessing, sAddrExtCmp
        LOCFRAME ISTACK, 0, STACK
        LOCFRAME PSTACK, 0, STACK
        LOCFRAME XSTACK, 14, STACK
        LOCFRAME IOVERLAY, 0, STATIC
        LOCFRAME DOVERLAY, 0, STATIC
        ARGFRAME ISTACK, 0, STACK
        ARGFRAME PSTACK, 0, STACK
        ARGFRAME XSTACK, 14, STACK
        ARGFRAME IOVERLAY, 0, STATIC
        ARGFRAME DOVERLAY, 0, STATIC
        REQUIRE ?V0
        REQUIRE ?V1
        REQUIRE ?V2
        REQUIRE ?V3
        REQUIRE ?V4
        REQUIRE ?V5
        MOV     A,#-0xe
        LCALL   ?BANKED_ENTER_XDATA
          CFI DPH0 load(1, XDATA, add(CFA_XSP16, literal(-1)))
          CFI DPL0 load(1, XDATA, add(CFA_XSP16, literal(-2)))
          CFI ?BRET_EXT load(1, XDATA, add(CFA_XSP16, literal(-3)))
          CFI ?RET_HIGH load(1, XDATA, add(CFA_XSP16, literal(-4)))
          CFI ?RET_LOW load(1, XDATA, add(CFA_XSP16, literal(-5)))
          CFI R7 load(1, XDATA, add(CFA_XSP16, literal(-6)))
          CFI V5 load(1, XDATA, add(CFA_XSP16, literal(-7)))
          CFI V4 load(1, XDATA, add(CFA_XSP16, literal(-8)))
          CFI V3 load(1, XDATA, add(CFA_XSP16, literal(-9)))
          CFI V2 load(1, XDATA, add(CFA_XSP16, literal(-10)))
          CFI V1 load(1, XDATA, add(CFA_XSP16, literal(-11)))
          CFI V0 load(1, XDATA, add(CFA_XSP16, literal(-12)))
          CFI VB load(1, XDATA, add(CFA_XSP16, literal(-13)))
          CFI R6 load(1, XDATA, add(CFA_XSP16, literal(-14)))
          CFI CFA_SP SP+0
          CFI CFA_XSP16 add(XSP16, 14)
        ; Saved register size: 14
        ; Auto size: 0
// 1971   networkDesc_t *pNwkDesc;
// 1972   uint8 i, ResultCount = 0;
        MOV     ?V3,#0x0
// 1973   uint8 stackProfile;
// 1974   uint8 stackProfilePro;
// 1975   uint8 selected;
// 1976 
// 1977   // Count the number of nwk descriptors in the list
// 1978   pNwkDesc = nwk_getNwkDescList();
        ; Setup parameters for call to function nwk_getNwkDescList
        LCALL   `??nwk_getNwkDescList::?relay`; Banked call to: nwk_getNwkDescList
        MOV     ?V0,R2
        MOV     ?V1,R3
        MOV     R6,?V0
        MOV     R7,?V1
        SJMP    ??CrossCallReturnLabel_53
// 1979   while (pNwkDesc)
// 1980   {
// 1981     ResultCount++;
??ZDApp_NwkDescListProcessing_0:
        INC     ?V3
// 1982     pNwkDesc = pNwkDesc->nextDesc;
        LCALL   ?Subroutine20 & 0xFFFF
// 1983   }
??CrossCallReturnLabel_53:
        MOV     A,R6
        ORL     A,R7
        JNZ     ??ZDApp_NwkDescListProcessing_0
// 1984 
// 1985   // process discovery results
// 1986   stackProfilePro = FALSE;
        MOV     ?V2,#0x0
// 1987   selected = FALSE; 
// 1988   
// 1989 
// 1990   for ( stackProfile = 0; stackProfile < STACK_PROFILE_MAX; stackProfile++ )
        MOV     ?V0,#0x0
// 1991   {
// 1992     pNwkDesc = nwk_getNwkDescList();
??ZDApp_NwkDescListProcessing_1:
        ; Setup parameters for call to function nwk_getNwkDescList
        LCALL   `??nwk_getNwkDescList::?relay`; Banked call to: nwk_getNwkDescList
        MOV     ?V4,R2
        MOV     ?V5,R3
        MOV     R6,?V4
        MOV     R7,?V5
// 1993     for ( i = 0; i < ResultCount; i++, pNwkDesc = pNwkDesc->nextDesc )
        MOV     ?V1,#0x0
        SJMP    ??CrossCallReturnLabel_54
// 1994     {
// 1995       if ( zgConfigPANID != 0xFFFF )
// 1996       {
// 1997         // PAN Id is preconfigured. check if it matches
// 1998         if ( pNwkDesc->panId != zgConfigPANID )
// 1999           continue;
// 2000       }
// 2001       
// 2002       if ( nwk_ExtPANIDValid( ZDO_UseExtendedPANID) == true ) 
// 2003       {
// 2004         // If the extended Pan ID is commissioned to a non zero value
// 2005         // Only join the Pan that has match EPID
// 2006         if ( osal_ExtAddrEqual( ZDO_UseExtendedPANID, pNwkDesc->extendedPANID) == false )
// 2007           continue;
// 2008         
// 2009       }
// 2010       
// 2011       // check that network is allowing joining
// 2012       if ( ZSTACK_ROUTER_BUILD )
// 2013       {
// 2014         if ( stackProfilePro == FALSE )
// 2015         {
// 2016           if ( !pNwkDesc->routerCapacity )
// 2017           {
// 2018             continue;
// 2019           }
// 2020         }
// 2021         else
// 2022         {
// 2023           if ( !pNwkDesc->deviceCapacity )
// 2024           {
// 2025             continue;
// 2026           }
// 2027         }
// 2028       }
// 2029       else if ( ZSTACK_END_DEVICE_BUILD )
// 2030       {
// 2031         if ( !pNwkDesc->deviceCapacity )
// 2032         {
// 2033           continue;
// 2034         }
// 2035       }
// 2036       
// 2037       // check version of zigbee protocol
// 2038       if ( pNwkDesc->version != _NIB.nwkProtocolVersion )
// 2039         continue;
// 2040       
// 2041       // check version of stack profile
// 2042       if ( pNwkDesc->stackProfile != zgStackProfile  )
// 2043       {
// 2044         if ( ((zgStackProfile == HOME_CONTROLS) && (pNwkDesc->stackProfile == ZIGBEEPRO_PROFILE)) 
// 2045             || ((zgStackProfile == ZIGBEEPRO_PROFILE) && (pNwkDesc->stackProfile == HOME_CONTROLS))  )
??ZDApp_NwkDescListProcessing_2:
        MOVX    A,@DPTR
        XRL     A,#0x2
        JNZ     ??ZDApp_NwkDescListProcessing_3
        MOV     DPL,R6
        MOV     DPH,R7
        INC     DPTR
        INC     DPTR
        INC     DPTR
        INC     DPTR
        INC     DPTR
        INC     DPTR
        MOVX    A,@DPTR
        XRL     A,#0x1
        JNZ     ??ZDApp_NwkDescListProcessing_3
// 2046         {
// 2047           stackProfilePro = TRUE;
??ZDApp_NwkDescListProcessing_4:
        MOV     ?V2,#0x1
// 2048         }
// 2049         
// 2050         if ( stackProfile == 0 )
??ZDApp_NwkDescListProcessing_3:
        MOV     A,?V0
        JZ      $+5
        LJMP    ??ZDApp_NwkDescListProcessing_5 & 0xFFFF
??ZDApp_NwkDescListProcessing_6:
        INC     ?V1
        LCALL   ?Subroutine20 & 0xFFFF
??CrossCallReturnLabel_54:
        MOV     A,?V1
        CLR     C
        SUBB    A,?V3
        JC      $+5
        LJMP    ??ZDApp_NwkDescListProcessing_7 & 0xFFFF
        MOV     DPTR,#zgConfigPANID
        MOVX    A,@DPTR
        CPL     A
        JNZ     ??ZDApp_NwkDescListProcessing_8
        INC     DPTR
        MOVX    A,@DPTR
        CPL     A
??ZDApp_NwkDescListProcessing_8:
        JZ      ??ZDApp_NwkDescListProcessing_9
        LCALL   ?Subroutine16 & 0xFFFF
??CrossCallReturnLabel_61:
        MOV     DPTR,#zgConfigPANID
        MOVX    A,@DPTR
        XRL     A,R0
        JNZ     ??ZDApp_NwkDescListProcessing_10
        INC     DPTR
        MOVX    A,@DPTR
        XRL     A,R1
??ZDApp_NwkDescListProcessing_10:
        JNZ     ??ZDApp_NwkDescListProcessing_6
??ZDApp_NwkDescListProcessing_9:
        ; Setup parameters for call to function nwk_ExtPANIDValid
        MOV     R2,#ZDO_UseExtendedPANID & 0xff
        MOV     R3,#(ZDO_UseExtendedPANID >> 8) & 0xff
        LCALL   `??nwk_ExtPANIDValid::?relay`; Banked call to: nwk_ExtPANIDValid
        MOV     A,R1
        XRL     A,#0x1
        JNZ     ??ZDApp_NwkDescListProcessing_11
        ; Setup parameters for call to function sAddrExtCmp
        MOV     A,R6
        ADD     A,#0xb
        MOV     R4,A
        CLR     A
        ADDC    A,R7
        MOV     R5,A
        MOV     R2,#ZDO_UseExtendedPANID & 0xff
        MOV     R3,#(ZDO_UseExtendedPANID >> 8) & 0xff
        LCALL   `??sAddrExtCmp::?relay`; Banked call to: sAddrExtCmp
        MOV     A,R1
        JZ      ??ZDApp_NwkDescListProcessing_6
??ZDApp_NwkDescListProcessing_11:
        MOV     DPL,R6
        MOV     DPH,R7
        INC     DPTR
        INC     DPTR
        INC     DPTR
        INC     DPTR
        MOVX    A,@DPTR
        JZ      ??ZDApp_NwkDescListProcessing_6
        MOV     DPL,R6
        MOV     DPH,R7
        INC     DPTR
        INC     DPTR
        INC     DPTR
        INC     DPTR
        INC     DPTR
        MOVX    A,@DPTR
        MOV     R0,A
        MOV     DPTR,#_NIB + 17
        MOVX    A,@DPTR
        XRL     A,R0
        JNZ     ??ZDApp_NwkDescListProcessing_6
        MOV     DPL,R6
        MOV     DPH,R7
        INC     DPTR
        INC     DPTR
        INC     DPTR
        INC     DPTR
        INC     DPTR
        INC     DPTR
        MOVX    A,@DPTR
        MOV     R0,A
        MOV     DPTR,#zgStackProfile
        MOVX    A,@DPTR
        XRL     A,R0
        JZ      ??ZDApp_NwkDescListProcessing_5
        MOVX    A,@DPTR
        XRL     A,#0x1
        JZ      $+5
        LJMP    ??ZDApp_NwkDescListProcessing_2 & 0xFFFF
        MOV     DPL,R6
        MOV     DPH,R7
        INC     DPTR
        INC     DPTR
        INC     DPTR
        INC     DPTR
        INC     DPTR
        INC     DPTR
        MOVX    A,@DPTR
        XRL     A,#0x2
        JZ      $+5
        LJMP    ??ZDApp_NwkDescListProcessing_3 & 0xFFFF
        LJMP    ??ZDApp_NwkDescListProcessing_4 & 0xFFFF
// 2051         {
// 2052           continue;
// 2053         }
// 2054       }
// 2055       
// 2056       break;
// 2057     } 
// 2058     
// 2059     if (i < ResultCount)
// 2060     {
// 2061      selected = TRUE;
// 2062       break;
// 2063     }
// 2064    
// 2065     // break if selected or stack profile pro wasn't found
// 2066     if ( (selected == TRUE) || (stackProfilePro == FALSE) )
??ZDApp_NwkDescListProcessing_7:
        MOV     A,?V2
        JZ      ??ZDApp_NwkDescListProcessing_12
// 2067     {
// 2068       break;
// 2069     }
// 2070   }
        INC     ?V0
        MOV     A,?V0
        CLR     C
        SUBB    A,#0x2
        JNC     $+5
        LJMP    ??ZDApp_NwkDescListProcessing_1 & 0xFFFF
// 2071 
// 2072   if ( i == ResultCount )
??ZDApp_NwkDescListProcessing_12:
        MOV     A,?V3
        XRL     A,?V1
        JNZ     ??ZDApp_NwkDescListProcessing_5
// 2073   {
// 2074     return (NULL);   // couldn't find appropriate PAN to join !
        MOV     R2,#0x0
        MOV     R3,#0x0
        SJMP    ??ZDApp_NwkDescListProcessing_13
// 2075   }
// 2076   else
// 2077   {
// 2078     return (pNwkDesc);
??ZDApp_NwkDescListProcessing_5:
        MOV     A,R6
        MOV     R2,A
        MOV     A,R7
        MOV     R3,A
// 2079   }
??ZDApp_NwkDescListProcessing_13:
          CFI EndBlock cfiBlock71
        REQUIRE ?Subroutine5
        ; // Fall through to label ?Subroutine5
// 2080 }// ZDApp_NwkDescListProcessing()

        RSEG BANKED_CODE:HUGECODE:NOROOT(0)
?Subroutine5:
          CFI Block cfiBlock72 Using cfiCommon0
          CFI NoFunction
          CFI CFA_SP SP+0
          CFI CFA_XSP16 add(XSP16, 14)
          CFI VB load(1, XDATA, add(CFA_XSP16, literal(-13)))
          CFI DPL0 load(1, XDATA, add(CFA_XSP16, literal(-2)))
          CFI DPH0 load(1, XDATA, add(CFA_XSP16, literal(-1)))
          CFI R6 load(1, XDATA, add(CFA_XSP16, literal(-14)))
          CFI R7 load(1, XDATA, add(CFA_XSP16, literal(-6)))
          CFI V0 load(1, XDATA, add(CFA_XSP16, literal(-12)))
          CFI V1 load(1, XDATA, add(CFA_XSP16, literal(-11)))
          CFI V2 load(1, XDATA, add(CFA_XSP16, literal(-10)))
          CFI V3 load(1, XDATA, add(CFA_XSP16, literal(-9)))
          CFI V4 load(1, XDATA, add(CFA_XSP16, literal(-8)))
          CFI V5 load(1, XDATA, add(CFA_XSP16, literal(-7)))
          CFI ?BRET_EXT load(1, XDATA, add(CFA_XSP16, literal(-3)))
          CFI ?RET_HIGH load(1, XDATA, add(CFA_XSP16, literal(-4)))
          CFI ?RET_LOW load(1, XDATA, add(CFA_XSP16, literal(-5)))
        MOV     R7,#0x6
        LJMP    ?BANKED_LEAVE_XDATA
          CFI EndBlock cfiBlock72

        RSEG BANKED_CODE:HUGECODE:NOROOT(0)
?Subroutine20:
          CFI Block cfiCond73 Using cfiCommon0
          CFI Function ZDApp_NwkDescListProcessing
          CFI Conditional ??CrossCallReturnLabel_53
          CFI R6 load(1, XDATA, add(CFA_XSP16, literal(-14)))
          CFI VB load(1, XDATA, add(CFA_XSP16, literal(-13)))
          CFI V0 load(1, XDATA, add(CFA_XSP16, literal(-12)))
          CFI V1 load(1, XDATA, add(CFA_XSP16, literal(-11)))
          CFI V2 load(1, XDATA, add(CFA_XSP16, literal(-10)))
          CFI V3 load(1, XDATA, add(CFA_XSP16, literal(-9)))
          CFI V4 load(1, XDATA, add(CFA_XSP16, literal(-8)))
          CFI V5 load(1, XDATA, add(CFA_XSP16, literal(-7)))
          CFI R7 load(1, XDATA, add(CFA_XSP16, literal(-6)))
          CFI ?RET_LOW load(1, XDATA, add(CFA_XSP16, literal(-5)))
          CFI ?RET_HIGH load(1, XDATA, add(CFA_XSP16, literal(-4)))
          CFI ?BRET_EXT load(1, XDATA, add(CFA_XSP16, literal(-3)))
          CFI DPL0 load(1, XDATA, add(CFA_XSP16, literal(-2)))
          CFI DPH0 load(1, XDATA, add(CFA_XSP16, literal(-1)))
          CFI CFA_SP SP+-2
          CFI CFA_XSP16 add(XSP16, 14)
          CFI Block cfiCond74 Using cfiCommon0
          CFI (cfiCond74) Function ZDApp_NwkDescListProcessing
          CFI (cfiCond74) Conditional ??CrossCallReturnLabel_54
          CFI (cfiCond74) R6 load(1, XDATA, add(CFA_XSP16, literal(-14)))
          CFI (cfiCond74) VB load(1, XDATA, add(CFA_XSP16, literal(-13)))
          CFI (cfiCond74) V0 load(1, XDATA, add(CFA_XSP16, literal(-12)))
          CFI (cfiCond74) V1 load(1, XDATA, add(CFA_XSP16, literal(-11)))
          CFI (cfiCond74) V2 load(1, XDATA, add(CFA_XSP16, literal(-10)))
          CFI (cfiCond74) V3 load(1, XDATA, add(CFA_XSP16, literal(-9)))
          CFI (cfiCond74) V4 load(1, XDATA, add(CFA_XSP16, literal(-8)))
          CFI (cfiCond74) V5 load(1, XDATA, add(CFA_XSP16, literal(-7)))
          CFI (cfiCond74) R7 load(1, XDATA, add(CFA_XSP16, literal(-6)))
          CFI (cfiCond74) ?RET_LOW load(1, XDATA, add(CFA_XSP16, literal(-5)))
          CFI (cfiCond74) ?RET_HIGH load(1, XDATA, add(CFA_XSP16, literal(-4)))
          CFI (cfiCond74) ?BRET_EXT load(1, XDATA, add(CFA_XSP16, literal(-3)))
          CFI (cfiCond74) DPL0 load(1, XDATA, add(CFA_XSP16, literal(-2)))
          CFI (cfiCond74) DPH0 load(1, XDATA, add(CFA_XSP16, literal(-1)))
          CFI (cfiCond74) CFA_SP SP+-2
          CFI (cfiCond74) CFA_XSP16 add(XSP16, 14)
          CFI Block cfiCond75 Using cfiCommon0
          CFI (cfiCond75) Function ZDO_beaconNotifyIndCB
          CFI (cfiCond75) Conditional ??CrossCallReturnLabel_55
          CFI (cfiCond75) R6 load(1, XDATA, add(CFA_XSP16, literal(-14)))
          CFI (cfiCond75) VB load(1, XDATA, add(CFA_XSP16, literal(-13)))
          CFI (cfiCond75) V0 load(1, XDATA, add(CFA_XSP16, literal(-12)))
          CFI (cfiCond75) V1 load(1, XDATA, add(CFA_XSP16, literal(-11)))
          CFI (cfiCond75) V2 load(1, XDATA, add(CFA_XSP16, literal(-10)))
          CFI (cfiCond75) V3 load(1, XDATA, add(CFA_XSP16, literal(-9)))
          CFI (cfiCond75) V4 load(1, XDATA, add(CFA_XSP16, literal(-8)))
          CFI (cfiCond75) V5 load(1, XDATA, add(CFA_XSP16, literal(-7)))
          CFI (cfiCond75) R7 load(1, XDATA, add(CFA_XSP16, literal(-6)))
          CFI (cfiCond75) ?RET_LOW load(1, XDATA, add(CFA_XSP16, literal(-5)))
          CFI (cfiCond75) ?RET_HIGH load(1, XDATA, add(CFA_XSP16, literal(-4)))
          CFI (cfiCond75) ?BRET_EXT load(1, XDATA, add(CFA_XSP16, literal(-3)))
          CFI (cfiCond75) DPL0 load(1, XDATA, add(CFA_XSP16, literal(-2)))
          CFI (cfiCond75) DPH0 load(1, XDATA, add(CFA_XSP16, literal(-1)))
          CFI (cfiCond75) CFA_SP SP+-2
          CFI (cfiCond75) CFA_XSP16 add(XSP16, 14)
          CFI Block cfiPicker76 Using cfiCommon1
          CFI (cfiPicker76) NoFunction
          CFI (cfiPicker76) Picker
        MOV     A,R6
        ADD     A,#0x14
        MOV     DPL,A
        CLR     A
        ADDC    A,R7
        MOV     DPH,A
          CFI EndBlock cfiCond73
          CFI EndBlock cfiCond74
          CFI EndBlock cfiCond75
          CFI EndBlock cfiPicker76
        REQUIRE ??Subroutine40_0
        ; // Fall through to label ??Subroutine40_0

        RSEG BANKED_CODE:HUGECODE:NOROOT(0)
??Subroutine40_0:
          CFI Block cfiCond77 Using cfiCommon0
          CFI Function ZDO_beaconNotifyIndCB
          CFI Conditional ??CrossCallReturnLabel_52
          CFI R6 load(1, XDATA, add(CFA_XSP16, literal(-14)))
          CFI VB load(1, XDATA, add(CFA_XSP16, literal(-13)))
          CFI V0 load(1, XDATA, add(CFA_XSP16, literal(-12)))
          CFI V1 load(1, XDATA, add(CFA_XSP16, literal(-11)))
          CFI V2 load(1, XDATA, add(CFA_XSP16, literal(-10)))
          CFI V3 load(1, XDATA, add(CFA_XSP16, literal(-9)))
          CFI V4 load(1, XDATA, add(CFA_XSP16, literal(-8)))
          CFI V5 load(1, XDATA, add(CFA_XSP16, literal(-7)))
          CFI R7 load(1, XDATA, add(CFA_XSP16, literal(-6)))
          CFI ?RET_LOW load(1, XDATA, add(CFA_XSP16, literal(-5)))
          CFI ?RET_HIGH load(1, XDATA, add(CFA_XSP16, literal(-4)))
          CFI ?BRET_EXT load(1, XDATA, add(CFA_XSP16, literal(-3)))
          CFI DPL0 load(1, XDATA, add(CFA_XSP16, literal(-2)))
          CFI DPH0 load(1, XDATA, add(CFA_XSP16, literal(-1)))
          CFI CFA_SP SP+-2
          CFI CFA_XSP16 add(XSP16, 14)
          CFI Block cfiCond78 Using cfiCommon0
          CFI (cfiCond78) Function ZDApp_NwkDescListProcessing
          CFI (cfiCond78) Conditional ??CrossCallReturnLabel_53
          CFI (cfiCond78) R6 load(1, XDATA, add(CFA_XSP16, literal(-14)))
          CFI (cfiCond78) VB load(1, XDATA, add(CFA_XSP16, literal(-13)))
          CFI (cfiCond78) V0 load(1, XDATA, add(CFA_XSP16, literal(-12)))
          CFI (cfiCond78) V1 load(1, XDATA, add(CFA_XSP16, literal(-11)))
          CFI (cfiCond78) V2 load(1, XDATA, add(CFA_XSP16, literal(-10)))
          CFI (cfiCond78) V3 load(1, XDATA, add(CFA_XSP16, literal(-9)))
          CFI (cfiCond78) V4 load(1, XDATA, add(CFA_XSP16, literal(-8)))
          CFI (cfiCond78) V5 load(1, XDATA, add(CFA_XSP16, literal(-7)))
          CFI (cfiCond78) R7 load(1, XDATA, add(CFA_XSP16, literal(-6)))
          CFI (cfiCond78) ?RET_LOW load(1, XDATA, add(CFA_XSP16, literal(-5)))
          CFI (cfiCond78) ?RET_HIGH load(1, XDATA, add(CFA_XSP16, literal(-4)))
          CFI (cfiCond78) ?BRET_EXT load(1, XDATA, add(CFA_XSP16, literal(-3)))
          CFI (cfiCond78) DPL0 load(1, XDATA, add(CFA_XSP16, literal(-2)))
          CFI (cfiCond78) DPH0 load(1, XDATA, add(CFA_XSP16, literal(-1)))
          CFI (cfiCond78) CFA_SP SP+-2
          CFI (cfiCond78) CFA_XSP16 add(XSP16, 14)
          CFI Block cfiCond79 Using cfiCommon0
          CFI (cfiCond79) Function ZDApp_NwkDescListProcessing
          CFI (cfiCond79) Conditional ??CrossCallReturnLabel_54
          CFI (cfiCond79) R6 load(1, XDATA, add(CFA_XSP16, literal(-14)))
          CFI (cfiCond79) VB load(1, XDATA, add(CFA_XSP16, literal(-13)))
          CFI (cfiCond79) V0 load(1, XDATA, add(CFA_XSP16, literal(-12)))
          CFI (cfiCond79) V1 load(1, XDATA, add(CFA_XSP16, literal(-11)))
          CFI (cfiCond79) V2 load(1, XDATA, add(CFA_XSP16, literal(-10)))
          CFI (cfiCond79) V3 load(1, XDATA, add(CFA_XSP16, literal(-9)))
          CFI (cfiCond79) V4 load(1, XDATA, add(CFA_XSP16, literal(-8)))
          CFI (cfiCond79) V5 load(1, XDATA, add(CFA_XSP16, literal(-7)))
          CFI (cfiCond79) R7 load(1, XDATA, add(CFA_XSP16, literal(-6)))
          CFI (cfiCond79) ?RET_LOW load(1, XDATA, add(CFA_XSP16, literal(-5)))
          CFI (cfiCond79) ?RET_HIGH load(1, XDATA, add(CFA_XSP16, literal(-4)))
          CFI (cfiCond79) ?BRET_EXT load(1, XDATA, add(CFA_XSP16, literal(-3)))
          CFI (cfiCond79) DPL0 load(1, XDATA, add(CFA_XSP16, literal(-2)))
          CFI (cfiCond79) DPH0 load(1, XDATA, add(CFA_XSP16, literal(-1)))
          CFI (cfiCond79) CFA_SP SP+-2
          CFI (cfiCond79) CFA_XSP16 add(XSP16, 14)
          CFI Block cfiCond80 Using cfiCommon0
          CFI (cfiCond80) Function ZDO_beaconNotifyIndCB
          CFI (cfiCond80) Conditional ??CrossCallReturnLabel_55
          CFI (cfiCond80) R6 load(1, XDATA, add(CFA_XSP16, literal(-14)))
          CFI (cfiCond80) VB load(1, XDATA, add(CFA_XSP16, literal(-13)))
          CFI (cfiCond80) V0 load(1, XDATA, add(CFA_XSP16, literal(-12)))
          CFI (cfiCond80) V1 load(1, XDATA, add(CFA_XSP16, literal(-11)))
          CFI (cfiCond80) V2 load(1, XDATA, add(CFA_XSP16, literal(-10)))
          CFI (cfiCond80) V3 load(1, XDATA, add(CFA_XSP16, literal(-9)))
          CFI (cfiCond80) V4 load(1, XDATA, add(CFA_XSP16, literal(-8)))
          CFI (cfiCond80) V5 load(1, XDATA, add(CFA_XSP16, literal(-7)))
          CFI (cfiCond80) R7 load(1, XDATA, add(CFA_XSP16, literal(-6)))
          CFI (cfiCond80) ?RET_LOW load(1, XDATA, add(CFA_XSP16, literal(-5)))
          CFI (cfiCond80) ?RET_HIGH load(1, XDATA, add(CFA_XSP16, literal(-4)))
          CFI (cfiCond80) ?BRET_EXT load(1, XDATA, add(CFA_XSP16, literal(-3)))
          CFI (cfiCond80) DPL0 load(1, XDATA, add(CFA_XSP16, literal(-2)))
          CFI (cfiCond80) DPH0 load(1, XDATA, add(CFA_XSP16, literal(-1)))
          CFI (cfiCond80) CFA_SP SP+-2
          CFI (cfiCond80) CFA_XSP16 add(XSP16, 14)
          CFI Block cfiPicker81 Using cfiCommon1
          CFI (cfiPicker81) NoFunction
          CFI (cfiPicker81) Picker
        MOVX    A,@DPTR
        MOV     R6,A
        INC     DPTR
        MOVX    A,@DPTR
        MOV     R7,A
        RET
          CFI EndBlock cfiCond77
          CFI EndBlock cfiCond78
          CFI EndBlock cfiCond79
          CFI EndBlock cfiCond80
          CFI EndBlock cfiPicker81
// 2081 
// 2082 /*********************************************************************
// 2083  * @fn          ZDO_NetworkFormationConfirmCB
// 2084  *
// 2085  * @brief       This function reports the results of the request to
// 2086  *              initialize a coordinator in a network.
// 2087  *
// 2088  * @param       Status - Result of NLME_NetworkFormationRequest()
// 2089  *
// 2090  * @return      none
// 2091  */

        RSEG BANKED_CODE:HUGECODE:NOROOT(0)
// 2092 void ZDO_NetworkFormationConfirmCB( ZStatus_t Status )
ZDO_NetworkFormationConfirmCB:
          CFI Block cfiBlock82 Using cfiCommon0
          CFI Function ZDO_NetworkFormationConfirmCB
        CODE
// 2093 {
        FUNCALL ZDO_NetworkFormationConfirmCB, HalLedSet
        LOCFRAME ISTACK, 0, STACK
        LOCFRAME PSTACK, 0, STACK
        LOCFRAME XSTACK, 9, STACK
        LOCFRAME IOVERLAY, 0, STATIC
        LOCFRAME DOVERLAY, 0, STATIC
        ARGFRAME ISTACK, 0, STACK
        ARGFRAME PSTACK, 0, STACK
        ARGFRAME XSTACK, 9, STACK
        ARGFRAME IOVERLAY, 0, STATIC
        ARGFRAME DOVERLAY, 0, STATIC
        FUNCALL ZDO_NetworkFormationConfirmCB, HalLedSet
        LOCFRAME ISTACK, 0, STACK
        LOCFRAME PSTACK, 0, STACK
        LOCFRAME XSTACK, 9, STACK
        LOCFRAME IOVERLAY, 0, STATIC
        LOCFRAME DOVERLAY, 0, STATIC
        ARGFRAME ISTACK, 0, STACK
        ARGFRAME PSTACK, 0, STACK
        ARGFRAME XSTACK, 9, STACK
        ARGFRAME IOVERLAY, 0, STATIC
        ARGFRAME DOVERLAY, 0, STATIC
        FUNCALL ZDO_NetworkFormationConfirmCB, HalLedSet
        LOCFRAME ISTACK, 0, STACK
        LOCFRAME PSTACK, 0, STACK
        LOCFRAME XSTACK, 9, STACK
        LOCFRAME IOVERLAY, 0, STATIC
        LOCFRAME DOVERLAY, 0, STATIC
        ARGFRAME ISTACK, 0, STACK
        ARGFRAME PSTACK, 0, STACK
        ARGFRAME XSTACK, 9, STACK
        ARGFRAME IOVERLAY, 0, STATIC
        ARGFRAME DOVERLAY, 0, STATIC
        FUNCALL ZDO_NetworkFormationConfirmCB, osal_set_event
        LOCFRAME ISTACK, 0, STACK
        LOCFRAME PSTACK, 0, STACK
        LOCFRAME XSTACK, 9, STACK
        LOCFRAME IOVERLAY, 0, STATIC
        LOCFRAME DOVERLAY, 0, STATIC
        ARGFRAME ISTACK, 0, STACK
        ARGFRAME PSTACK, 0, STACK
        ARGFRAME XSTACK, 9, STACK
        ARGFRAME IOVERLAY, 0, STATIC
        ARGFRAME DOVERLAY, 0, STATIC
        MOV     A,#-0x9
        LCALL   ?BANKED_ENTER_XDATA
          CFI DPH0 load(1, XDATA, add(CFA_XSP16, literal(-1)))
          CFI DPL0 load(1, XDATA, add(CFA_XSP16, literal(-2)))
          CFI ?BRET_EXT load(1, XDATA, add(CFA_XSP16, literal(-3)))
          CFI ?RET_HIGH load(1, XDATA, add(CFA_XSP16, literal(-4)))
          CFI ?RET_LOW load(1, XDATA, add(CFA_XSP16, literal(-5)))
          CFI R7 load(1, XDATA, add(CFA_XSP16, literal(-6)))
          CFI V0 load(1, XDATA, add(CFA_XSP16, literal(-7)))
          CFI VB load(1, XDATA, add(CFA_XSP16, literal(-8)))
          CFI R6 load(1, XDATA, add(CFA_XSP16, literal(-9)))
          CFI CFA_SP SP+0
          CFI CFA_XSP16 add(XSP16, 9)
        ; Saved register size: 9
        ; Auto size: 0
        MOV     A,R1
// 2094   nwkStatus = (byte)Status;
        MOV     DPTR,#nwkStatus
        MOVX    @DPTR,A
// 2095 
// 2096   if ( Status == ZSUCCESS )
        JNZ     ??ZDO_NetworkFormationConfirmCB_0
// 2097   {
// 2098     // LED on shows Coordinator started
// 2099     HalLedSet ( HAL_LED_3, HAL_LED_MODE_ON );
        ; Setup parameters for call to function HalLedSet
        MOV     R2,#0x1
        MOV     R1,#0x4
        LCALL   `??HalLedSet::?relay`; Banked call to: HalLedSet
// 2100 
// 2101     // LED off forgets HOLD_AUTO_START
// 2102     HalLedSet (HAL_LED_4, HAL_LED_MODE_OFF);
        ; Setup parameters for call to function HalLedSet
        MOV     R2,#0x0
        MOV     R1,#0x8
        LCALL   `??HalLedSet::?relay`; Banked call to: HalLedSet
// 2103 
// 2104 #if defined ( ZBIT )
// 2105     SIM_SetColor(0xd0ffd0);
// 2106 #endif
// 2107 
// 2108     if ( devState == DEV_HOLD )
        MOV     DPTR,#devState
        MOVX    A,@DPTR
        JNZ     ??ZDO_NetworkFormationConfirmCB_1
// 2109     {
// 2110       // Began with HOLD_AUTO_START
// 2111       devState = DEV_COORD_STARTING;
        MOV     A,#0x8
        MOVX    @DPTR,A
        SJMP    ??ZDO_NetworkFormationConfirmCB_1
// 2112     }
// 2113   }
// 2114 #if defined(BLINK_LEDS)
// 2115   else
// 2116   {
// 2117     HalLedSet ( HAL_LED_3, HAL_LED_MODE_FLASH );  // Flash LED to show failure
??ZDO_NetworkFormationConfirmCB_0:
        ; Setup parameters for call to function HalLedSet
        MOV     R2,#0x4
        MOV     R1,#0x4
        LCALL   `??HalLedSet::?relay`; Banked call to: HalLedSet
// 2118   }
// 2119 #endif
// 2120 
// 2121   osal_set_event( ZDAppTaskID, ZDO_NETWORK_START );
??ZDO_NetworkFormationConfirmCB_1:
        ; Setup parameters for call to function osal_set_event
        MOV     R2,#0x2
        LJMP    ?Subroutine0 & 0xFFFF
// 2122 }
          CFI EndBlock cfiBlock82
// 2123 
// 2124 /****************************************************************************
// 2125  * @fn          ZDApp_beaconIndProcessing
// 2126  *
// 2127  * @brief       This function processes the incoming beacon indication.
// 2128  *
// 2129  *              When another task (MT or App) is registered to process
// 2130  *              beacon indication themselves, this function will parse the 
// 2131  *              beacon payload and pass the beacon descriptor to that task
// 2132  *              If no other tasks registered, this function will process
// 2133  *              the beacon payload and generate the network descriptor link
// 2134  *              list.
// 2135  *
// 2136  * @param
// 2137  *
// 2138  * @return      none
// 2139  *
// 2140  */

        RSEG BANKED_CODE:HUGECODE:NOROOT(0)
// 2141 void ZDO_beaconNotifyIndCB( NLME_beaconInd_t *pBeacon )
ZDO_beaconNotifyIndCB:
          CFI Block cfiBlock83 Using cfiCommon0
          CFI Function ZDO_beaconNotifyIndCB
        CODE
// 2142 {
        FUNCALL ZDO_beaconNotifyIndCB, osal_mem_alloc
        LOCFRAME ISTACK, 0, STACK
        LOCFRAME PSTACK, 0, STACK
        LOCFRAME XSTACK, 14, STACK
        LOCFRAME IOVERLAY, 0, STATIC
        LOCFRAME DOVERLAY, 0, STATIC
        ARGFRAME ISTACK, 0, STACK
        ARGFRAME PSTACK, 0, STACK
        ARGFRAME XSTACK, 14, STACK
        ARGFRAME IOVERLAY, 0, STATIC
        ARGFRAME DOVERLAY, 0, STATIC
        FUNCALL ZDO_beaconNotifyIndCB, osal_memset
        LOCFRAME ISTACK, 0, STACK
        LOCFRAME PSTACK, 0, STACK
        LOCFRAME XSTACK, 14, STACK
        LOCFRAME IOVERLAY, 0, STATIC
        LOCFRAME DOVERLAY, 0, STATIC
        ARGFRAME ISTACK, 0, STACK
        ARGFRAME PSTACK, 0, STACK
        ARGFRAME XSTACK, 14, STACK
        ARGFRAME IOVERLAY, 0, STATIC
        ARGFRAME DOVERLAY, 0, STATIC
        FUNCALL ZDO_beaconNotifyIndCB, sAddrExtCpy
        LOCFRAME ISTACK, 0, STACK
        LOCFRAME PSTACK, 0, STACK
        LOCFRAME XSTACK, 14, STACK
        LOCFRAME IOVERLAY, 0, STATIC
        LOCFRAME DOVERLAY, 0, STATIC
        ARGFRAME ISTACK, 0, STACK
        ARGFRAME PSTACK, 0, STACK
        ARGFRAME XSTACK, 14, STACK
        ARGFRAME IOVERLAY, 0, STATIC
        ARGFRAME DOVERLAY, 0, STATIC
        FUNCALL ZDO_beaconNotifyIndCB, osal_memset
        LOCFRAME ISTACK, 0, STACK
        LOCFRAME PSTACK, 0, STACK
        LOCFRAME XSTACK, 14, STACK
        LOCFRAME IOVERLAY, 0, STATIC
        LOCFRAME DOVERLAY, 0, STATIC
        ARGFRAME ISTACK, 0, STACK
        ARGFRAME PSTACK, 0, STACK
        ARGFRAME XSTACK, 14, STACK
        ARGFRAME IOVERLAY, 0, STATIC
        ARGFRAME DOVERLAY, 0, STATIC
        REQUIRE ?V0
        REQUIRE ?V1
        REQUIRE ?V2
        REQUIRE ?V3
        REQUIRE ?V4
        REQUIRE ?V5
        MOV     A,#-0xe
        LCALL   ?BANKED_ENTER_XDATA
          CFI DPH0 load(1, XDATA, add(CFA_XSP16, literal(-1)))
          CFI DPL0 load(1, XDATA, add(CFA_XSP16, literal(-2)))
          CFI ?BRET_EXT load(1, XDATA, add(CFA_XSP16, literal(-3)))
          CFI ?RET_HIGH load(1, XDATA, add(CFA_XSP16, literal(-4)))
          CFI ?RET_LOW load(1, XDATA, add(CFA_XSP16, literal(-5)))
          CFI R7 load(1, XDATA, add(CFA_XSP16, literal(-6)))
          CFI V5 load(1, XDATA, add(CFA_XSP16, literal(-7)))
          CFI V4 load(1, XDATA, add(CFA_XSP16, literal(-8)))
          CFI V3 load(1, XDATA, add(CFA_XSP16, literal(-9)))
          CFI V2 load(1, XDATA, add(CFA_XSP16, literal(-10)))
          CFI V1 load(1, XDATA, add(CFA_XSP16, literal(-11)))
          CFI V0 load(1, XDATA, add(CFA_XSP16, literal(-12)))
          CFI VB load(1, XDATA, add(CFA_XSP16, literal(-13)))
          CFI R6 load(1, XDATA, add(CFA_XSP16, literal(-14)))
          CFI CFA_SP SP+0
          CFI CFA_XSP16 add(XSP16, 14)
        ; Saved register size: 14
        ; Auto size: 0
        MOV     ?V0,R2
        MOV     ?V1,R3
// 2143   // Pass the beacon Indication to another task if it registers the callback
// 2144   // Otherwise, process the beacon notification here.
// 2145   if (zdoCBFunc[ZDO_BEACON_NOTIFY_IND_CBID] != NULL )
        MOV     DPTR,#zdoCBFunc + 6
        LCALL   ?Subroutine15 & 0xFFFF
??CrossCallReturnLabel_12:
        JZ      ??ZDO_beaconNotifyIndCB_0
// 2146   {  
// 2147     zdoCBFunc[ZDO_BEACON_NOTIFY_IND_CBID]( (void*)pBeacon );
        ; Setup parameters for indirect call
        LCALL   ??Subroutine39_0 & 0xFFFF
// 2148   }
??CrossCallReturnLabel_47:
        LCALL   ?CALL_IND
        LJMP    ??ZDO_beaconNotifyIndCB_1 & 0xFFFF
// 2149   else
// 2150   {
// 2151     networkDesc_t *pNwkDesc;
// 2152     networkDesc_t *pLastNwkDesc;
// 2153     uint8 found = false;
// 2154     
// 2155     // Add the network to the Network Descriptor List
// 2156     pNwkDesc = NwkDescList;
??ZDO_beaconNotifyIndCB_0:
        MOV     DPTR,#NwkDescList
        LCALL   ??Subroutine40_0 & 0xFFFF
// 2157     pLastNwkDesc = NwkDescList;
??CrossCallReturnLabel_52:
        MOV     DPTR,#NwkDescList
        MOVX    A,@DPTR
        MOV     ?V2,A
        INC     DPTR
        MOVX    A,@DPTR
        MOV     ?V3,A
        SJMP    ??CrossCallReturnLabel_55
// 2158     while (pNwkDesc)
// 2159     {
// 2160       if ((pNwkDesc->panId == pBeacon->panID) &&
// 2161           (pNwkDesc->logicalChannel == pBeacon->logicalChannel))
??ZDO_beaconNotifyIndCB_2:
        LCALL   ?Subroutine16 & 0xFFFF
??CrossCallReturnLabel_62:
        MOV     DPL,R2
        MOV     DPH,R3
        INC     DPTR
        INC     DPTR
        MOVX    A,@DPTR
        XRL     A,R0
        JNZ     ??ZDO_beaconNotifyIndCB_3
        INC     DPTR
        MOVX    A,@DPTR
        XRL     A,R1
??ZDO_beaconNotifyIndCB_3:
        JNZ     ??ZDO_beaconNotifyIndCB_4
        MOV     DPL,R6
        MOV     DPH,R7
        INC     DPTR
        INC     DPTR
        MOVX    A,@DPTR
        MOV     R0,A
        MOV     DPL,R2
        MOV     DPH,R3
        INC     DPTR
        INC     DPTR
        INC     DPTR
        INC     DPTR
        MOVX    A,@DPTR
        XRL     A,R0
        JZ      ??ZDO_beaconNotifyIndCB_5
// 2162       {
// 2163         found = true;
// 2164         break;
// 2165       }
// 2166       pLastNwkDesc = pNwkDesc;
??ZDO_beaconNotifyIndCB_4:
        MOV     ?V2,R6
        MOV     ?V3,R7
// 2167       pNwkDesc = pNwkDesc->nextDesc;
        LCALL   ?Subroutine20 & 0xFFFF
// 2168     }
??CrossCallReturnLabel_55:
        MOV     A,R6
        ORL     A,R7
        JNZ     ??ZDO_beaconNotifyIndCB_2
// 2169     
// 2170     // If no existing descriptor found, make a new one and add to the list
// 2171     if (found == false)
// 2172     {
// 2173       pNwkDesc = osal_mem_alloc( sizeof(networkDesc_t)  );
        ; Setup parameters for call to function osal_mem_alloc
        MOV     R2,#0x16
        MOV     R3,#0x0
        LCALL   `??osal_mem_alloc::?relay`; Banked call to: osal_mem_alloc
        MOV     ?V4,R2
        MOV     ?V5,R3
        MOV     R6,?V4
        MOV     R7,?V5
// 2174       if ( !pNwkDesc )
        MOV     A,R6
        ORL     A,R7
        JNZ     $+5
        LJMP    ??ZDO_beaconNotifyIndCB_1 & 0xFFFF
// 2175       {
// 2176         // Memory alloc failed, discard this beacon
// 2177         return;
// 2178       }
// 2179       
// 2180       // Clear the network descriptor
// 2181       osal_memset( pNwkDesc, 0, sizeof(networkDesc_t)  );
        ; Setup parameters for call to function osal_memset
        MOV     R4,#0x16
        MOV     R5,#0x0
        MOV     R1,#0x0
        LCALL   `??osal_memset::?relay`; Banked call to: osal_memset
// 2182       
// 2183       // Initialize the descriptor
// 2184       pNwkDesc->chosenRouter = INVALID_NODE_ADDR;
        MOV     DPL,R6
        MOV     DPH,R7
        INC     DPTR
        INC     DPTR
        INC     DPTR
        INC     DPTR
        INC     DPTR
        INC     DPTR
        INC     DPTR
        MOV     A,#-0x2
        MOVX    @DPTR,A
        INC     DPTR
        INC     A
        LCALL   ?Subroutine9 & 0xFFFF
// 2185       pNwkDesc->chosenRouterDepth = 0xFF;
??CrossCallReturnLabel_1:
        INC     DPTR
        INC     DPTR
        INC     DPTR
        INC     DPTR
        MOVX    @DPTR,A
// 2186       
// 2187       // Save new entry into the descriptor list
// 2188       if ( !NwkDescList )
        MOV     DPTR,#NwkDescList
        LCALL   ?Subroutine15 & 0xFFFF
??CrossCallReturnLabel_13:
        JNZ     ??ZDO_beaconNotifyIndCB_6
// 2189       {
// 2190         NwkDescList = pNwkDesc;
        MOV     DPTR,#NwkDescList
        SJMP    ??ZDO_beaconNotifyIndCB_7
// 2191       }
// 2192       else
// 2193       {
// 2194         pLastNwkDesc->nextDesc = pNwkDesc;
??ZDO_beaconNotifyIndCB_6:
        MOV     A,?V2
        ADD     A,#0x14
        MOV     DPL,A
        CLR     A
        ADDC    A,?V3
        MOV     DPH,A
??ZDO_beaconNotifyIndCB_7:
        MOV     A,R6
        MOVX    @DPTR,A
        INC     DPTR
        MOV     A,R7
        MOVX    @DPTR,A
// 2195       }
// 2196     }
// 2197     
// 2198     // Update the descriptor with the incoming beacon
// 2199     pNwkDesc->stackProfile   = pBeacon->stackProfile;
??ZDO_beaconNotifyIndCB_5:
        MOV     DPL,?V0
        MOV     DPH,?V1
        INC     DPTR
        INC     DPTR
        INC     DPTR
        INC     DPTR
        INC     DPTR
        INC     DPTR
        INC     DPTR
        INC     DPTR
        INC     DPTR
        LCALL   ?Subroutine19 & 0xFFFF
??CrossCallReturnLabel_19:
        INC     DPTR
        MOVX    @DPTR,A
// 2200     pNwkDesc->version        = pBeacon->protocolVersion;
        MOV     A,?V0
        ADD     A,#0x8
        MOV     R0,A
        CLR     A
        ADDC    A,?V1
        MOV     R1,A
        MOV     DPL,R0
        MOV     DPH,R1
        LCALL   ?Subroutine19 & 0xFFFF
??CrossCallReturnLabel_20:
        LCALL   ?Subroutine10 & 0xFFFF
// 2201     pNwkDesc->logicalChannel = pBeacon->logicalChannel;
??CrossCallReturnLabel_2:
        MOVX    A,@DPTR
        MOV     DPL,R6
        MOV     DPH,R7
        INC     DPTR
        INC     DPTR
        LCALL   ?Subroutine27 & 0xFFFF
// 2202     pNwkDesc->panId          = pBeacon->panID;
??CrossCallReturnLabel_32:
        MOVX    A,@DPTR
        MOV     R2,A
        INC     DPTR
        MOVX    A,@DPTR
        MOV     R3,A
        MOV     DPL,R6
        MOV     DPH,R7
        LCALL   ??Subroutine42_0 & 0xFFFF
// 2203     pNwkDesc->updateId       = pBeacon->updateID;
??CrossCallReturnLabel_66:
        MOV     A,?V0
        ADD     A,#0xc
        MOV     DPL,A
        CLR     A
        ADDC    A,?V1
        MOV     DPH,A
        MOVX    A,@DPTR
        PUSH    A
          CFI CFA_SP SP+-1
        MOV     A,R6
        ADD     A,#0x13
        MOV     DPL,A
        CLR     A
        ADDC    A,R7
        MOV     DPH,A
        POP     A
          CFI CFA_SP SP+0
        MOVX    @DPTR,A
// 2204     
// 2205     // Save the extended PAN ID from the beacon payload only if 1.1 version network
// 2206     if ( pBeacon->protocolVersion != ZB_PROT_V1_0 )
        MOV     DPL,R0
        MOV     DPH,R1
        MOVX    A,@DPTR
        XRL     A,#0x1
        JZ      ??ZDO_beaconNotifyIndCB_8
// 2207     {
// 2208       osal_cpyExtAddr( pNwkDesc->extendedPANID, pBeacon->extendedPanID );
        ; Setup parameters for call to function sAddrExtCpy
        MOV     A,?V0
        ADD     A,#0xd
        MOV     R4,A
        CLR     A
        ADDC    A,?V1
        LCALL   ?Subroutine25 & 0xFFFF
// 2209     }
??CrossCallReturnLabel_46:
        LCALL   `??sAddrExtCpy::?relay`; Banked call to: sAddrExtCpy
        SJMP    ??ZDO_beaconNotifyIndCB_9
// 2210     else
// 2211     {
// 2212       osal_memset( pNwkDesc->extendedPANID, 0xFF, Z_EXTADDR_LEN );
??ZDO_beaconNotifyIndCB_8:
        ; Setup parameters for call to function osal_memset
        MOV     R4,#0x8
        MOV     R5,#0x0
        MOV     R1,#-0x1
        LCALL   ??Subroutine33_0 & 0xFFFF
// 2213     }
??CrossCallReturnLabel_44:
        LCALL   `??osal_memset::?relay`; Banked call to: osal_memset
// 2214     
// 2215     // check if this device is a better choice to join...
// 2216     // ...dont bother checking assocPermit flag is doing a rejoin
// 2217     if ( ( pBeacon->LQI > gMIN_TREE_LINK_COST ) &&
// 2218         ( ( pBeacon->permitJoining == TRUE ) || ( _tmpRejoinState ) ) )
??ZDO_beaconNotifyIndCB_9:
        MOV     DPL,?V0
        MOV     DPH,?V1
        INC     DPTR
        INC     DPTR
        INC     DPTR
        INC     DPTR
        INC     DPTR
        INC     DPTR
        INC     DPTR
        INC     DPTR
        INC     DPTR
        INC     DPTR
        MOVX    A,@DPTR
        MOV     R0,A
        MOV     DPTR,#gMIN_TREE_LINK_COST
        MOVX    A,@DPTR
        CLR     C
        SUBB    A,R0
        JC      $+5
        LJMP    ??ZDO_beaconNotifyIndCB_1 & 0xFFFF
        MOV     DPL,?V0
        MOV     DPH,?V1
        INC     DPTR
        INC     DPTR
        INC     DPTR
        INC     DPTR
        INC     DPTR
        MOVX    A,@DPTR
        XRL     A,#0x1
        JZ      ??ZDO_beaconNotifyIndCB_10
        MOV     DPTR,#_tmpRejoinState
        MOVX    A,@DPTR
        JNZ     $+5
        LJMP    ??ZDO_beaconNotifyIndCB_1 & 0xFFFF
// 2219     {
// 2220       uint8 selected = FALSE;
??ZDO_beaconNotifyIndCB_10:
        MOV     R0,#0x0
// 2221       uint8 capacity = FALSE;
// 2222       
// 2223       if ( _NIB.nwkAddrAlloc == NWK_ADDRESSING_STOCHASTIC )
        MOV     DPTR,#_NIB + 96
        MOVX    A,@DPTR
        XRL     A,#0x2
        JNZ     ??ZDO_beaconNotifyIndCB_11
// 2224       {
// 2225         if ( ((pBeacon->LQI   > pNwkDesc->chosenRouterLinkQuality) &&
// 2226               (pBeacon->depth < MAX_NODE_DEPTH)) ||
// 2227             ((pBeacon->LQI   == pNwkDesc->chosenRouterLinkQuality) &&
// 2228              (pBeacon->depth < pNwkDesc->chosenRouterDepth)) ) 
        MOV     DPL,?V0
        MOV     DPH,?V1
        INC     DPTR
        INC     DPTR
        INC     DPTR
        INC     DPTR
        INC     DPTR
        INC     DPTR
        INC     DPTR
        INC     DPTR
        INC     DPTR
        INC     DPTR
        MOVX    A,@DPTR
        MOV     R1,A
        MOV     DPL,R6
        MOV     DPH,R7
        INC     DPTR
        INC     DPTR
        INC     DPTR
        INC     DPTR
        INC     DPTR
        INC     DPTR
        INC     DPTR
        INC     DPTR
        INC     DPTR
        MOVX    A,@DPTR
        CLR     C
        SUBB    A,R1
        JNC     ??ZDO_beaconNotifyIndCB_12
        LCALL   ?Subroutine24 & 0xFFFF
// 2229         {
// 2230           selected = TRUE;
// 2231         }
// 2232       }
??CrossCallReturnLabel_28:
        SUBB    A,#0x5
        JC      ??ZDO_beaconNotifyIndCB_13
        SJMP    ??ZDO_beaconNotifyIndCB_14
??ZDO_beaconNotifyIndCB_12:
        MOV     DPL,?V0
        MOV     DPH,?V1
        INC     DPTR
        INC     DPTR
        INC     DPTR
        INC     DPTR
        INC     DPTR
        INC     DPTR
        INC     DPTR
        INC     DPTR
        INC     DPTR
        INC     DPTR
        MOVX    A,@DPTR
        MOV     R0,A
        MOV     DPL,R6
        MOV     DPH,R7
        INC     DPTR
        INC     DPTR
        INC     DPTR
        INC     DPTR
        INC     DPTR
        INC     DPTR
        INC     DPTR
        INC     DPTR
        INC     DPTR
        MOVX    A,@DPTR
        XRL     A,R0
        JNZ     ??ZDO_beaconNotifyIndCB_15
// 2233       else
// 2234       {
// 2235         if ( pBeacon->depth < pNwkDesc->chosenRouterDepth )
??ZDO_beaconNotifyIndCB_11:
        MOV     DPL,R6
        MOV     DPH,R7
        INC     DPTR
        INC     DPTR
        INC     DPTR
        INC     DPTR
        INC     DPTR
        INC     DPTR
        INC     DPTR
        INC     DPTR
        INC     DPTR
        INC     DPTR
        MOVX    A,@DPTR
        MOV     R0,A
        LCALL   ?Subroutine24 & 0xFFFF
??CrossCallReturnLabel_29:
        SUBB    A,R0
        JNC     ??ZDO_beaconNotifyIndCB_15
// 2236         {
// 2237           selected = TRUE;
??ZDO_beaconNotifyIndCB_13:
        MOV     R0,#0x1
// 2238         }
// 2239       }
// 2240       
// 2241       if ( ZSTACK_ROUTER_BUILD )
// 2242       {
// 2243         capacity = pBeacon->routerCapacity;
// 2244       }
// 2245       else if ( ZSTACK_END_DEVICE_BUILD )
// 2246       {
// 2247         capacity = pBeacon->deviceCapacity;
// 2248       }
// 2249       
// 2250       if ( (capacity) && (selected) )
??ZDO_beaconNotifyIndCB_14:
        MOV     DPL,?V0
        MOV     DPH,?V1
        INC     DPTR
        INC     DPTR
        INC     DPTR
        INC     DPTR
        INC     DPTR
        INC     DPTR
        INC     DPTR
        MOVX    A,@DPTR
        JZ      ??ZDO_beaconNotifyIndCB_16
        MOV     A,R0
        MOV     C,0xE0 /* A   */.0
        JNC     ??ZDO_beaconNotifyIndCB_17
// 2251       {
// 2252         // this is the new chosen router for joining...
// 2253         pNwkDesc->chosenRouter            = pBeacon->sourceAddr;
        MOV     DPL,?V0
        MOV     DPH,?V1
        LCALL   ??Subroutine41_0 & 0xFFFF
??CrossCallReturnLabel_57:
        MOV     DPL,R6
        MOV     DPH,R7
        INC     DPTR
        INC     DPTR
        INC     DPTR
        INC     DPTR
        INC     DPTR
        INC     DPTR
        INC     DPTR
        MOV     A,R0
        MOVX    @DPTR,A
        INC     DPTR
        MOV     A,R1
        LCALL   ?Subroutine10 & 0xFFFF
// 2254         pNwkDesc->chosenRouterLinkQuality = pBeacon->LQI;
??CrossCallReturnLabel_3:
        INC     DPTR
        INC     DPTR
        INC     DPTR
        INC     DPTR
        INC     DPTR
        INC     DPTR
        LCALL   ?Subroutine17 & 0xFFFF
??CrossCallReturnLabel_17:
        MOVX    @DPTR,A
// 2255         pNwkDesc->chosenRouterDepth       = pBeacon->depth;
        LCALL   ?Subroutine30 & 0xFFFF
// 2256       }
??CrossCallReturnLabel_38:
        LCALL   ?Subroutine17 & 0xFFFF
??CrossCallReturnLabel_18:
        INC     DPTR
        MOVX    @DPTR,A
// 2257       
// 2258       if ( pBeacon->deviceCapacity )
??ZDO_beaconNotifyIndCB_15:
        MOV     DPL,?V0
        MOV     DPH,?V1
        INC     DPTR
        INC     DPTR
        INC     DPTR
        INC     DPTR
        INC     DPTR
        INC     DPTR
        INC     DPTR
        MOVX    A,@DPTR
        JZ      ??ZDO_beaconNotifyIndCB_16
// 2259         pNwkDesc->deviceCapacity = 1;
??ZDO_beaconNotifyIndCB_17:
        MOV     DPL,R6
        MOV     DPH,R7
        INC     DPTR
        INC     DPTR
        INC     DPTR
        INC     DPTR
        MOV     A,#0x1
        MOVX    @DPTR,A
// 2260       
// 2261       if ( pBeacon->routerCapacity )
??ZDO_beaconNotifyIndCB_16:
        MOV     DPL,?V0
        MOV     DPH,?V1
        INC     DPTR
        INC     DPTR
        INC     DPTR
        INC     DPTR
        INC     DPTR
        INC     DPTR
        MOVX    A,@DPTR
        JZ      ??ZDO_beaconNotifyIndCB_1
// 2262         pNwkDesc->routerCapacity = 1;
        MOV     DPL,R6
        MOV     DPH,R7
        INC     DPTR
        INC     DPTR
        INC     DPTR
        MOV     A,#0x1
        MOVX    @DPTR,A
// 2263     }
// 2264   }
// 2265 }
??ZDO_beaconNotifyIndCB_1:
        LJMP    ?Subroutine5 & 0xFFFF
          CFI EndBlock cfiBlock83

        RSEG BANKED_CODE:HUGECODE:NOROOT(0)
?Subroutine24:
          CFI Block cfiCond84 Using cfiCommon0
          CFI Function ZDO_beaconNotifyIndCB
          CFI Conditional ??CrossCallReturnLabel_28
          CFI R6 load(1, XDATA, add(CFA_XSP16, literal(-14)))
          CFI VB load(1, XDATA, add(CFA_XSP16, literal(-13)))
          CFI V0 load(1, XDATA, add(CFA_XSP16, literal(-12)))
          CFI V1 load(1, XDATA, add(CFA_XSP16, literal(-11)))
          CFI V2 load(1, XDATA, add(CFA_XSP16, literal(-10)))
          CFI V3 load(1, XDATA, add(CFA_XSP16, literal(-9)))
          CFI V4 load(1, XDATA, add(CFA_XSP16, literal(-8)))
          CFI V5 load(1, XDATA, add(CFA_XSP16, literal(-7)))
          CFI R7 load(1, XDATA, add(CFA_XSP16, literal(-6)))
          CFI ?RET_LOW load(1, XDATA, add(CFA_XSP16, literal(-5)))
          CFI ?RET_HIGH load(1, XDATA, add(CFA_XSP16, literal(-4)))
          CFI ?BRET_EXT load(1, XDATA, add(CFA_XSP16, literal(-3)))
          CFI DPL0 load(1, XDATA, add(CFA_XSP16, literal(-2)))
          CFI DPH0 load(1, XDATA, add(CFA_XSP16, literal(-1)))
          CFI CFA_SP SP+-2
          CFI CFA_XSP16 add(XSP16, 14)
          CFI Block cfiCond85 Using cfiCommon0
          CFI (cfiCond85) Function ZDO_beaconNotifyIndCB
          CFI (cfiCond85) Conditional ??CrossCallReturnLabel_29
          CFI (cfiCond85) R6 load(1, XDATA, add(CFA_XSP16, literal(-14)))
          CFI (cfiCond85) VB load(1, XDATA, add(CFA_XSP16, literal(-13)))
          CFI (cfiCond85) V0 load(1, XDATA, add(CFA_XSP16, literal(-12)))
          CFI (cfiCond85) V1 load(1, XDATA, add(CFA_XSP16, literal(-11)))
          CFI (cfiCond85) V2 load(1, XDATA, add(CFA_XSP16, literal(-10)))
          CFI (cfiCond85) V3 load(1, XDATA, add(CFA_XSP16, literal(-9)))
          CFI (cfiCond85) V4 load(1, XDATA, add(CFA_XSP16, literal(-8)))
          CFI (cfiCond85) V5 load(1, XDATA, add(CFA_XSP16, literal(-7)))
          CFI (cfiCond85) R7 load(1, XDATA, add(CFA_XSP16, literal(-6)))
          CFI (cfiCond85) ?RET_LOW load(1, XDATA, add(CFA_XSP16, literal(-5)))
          CFI (cfiCond85) ?RET_HIGH load(1, XDATA, add(CFA_XSP16, literal(-4)))
          CFI (cfiCond85) ?BRET_EXT load(1, XDATA, add(CFA_XSP16, literal(-3)))
          CFI (cfiCond85) DPL0 load(1, XDATA, add(CFA_XSP16, literal(-2)))
          CFI (cfiCond85) DPH0 load(1, XDATA, add(CFA_XSP16, literal(-1)))
          CFI (cfiCond85) CFA_SP SP+-2
          CFI (cfiCond85) CFA_XSP16 add(XSP16, 14)
          CFI Block cfiPicker86 Using cfiCommon1
          CFI (cfiPicker86) NoFunction
          CFI (cfiPicker86) Picker
        LCALL   ?Subroutine30 & 0xFFFF
??CrossCallReturnLabel_39:
        MOVX    A,@DPTR
        CLR     C
        RET
          CFI EndBlock cfiCond84
          CFI EndBlock cfiCond85
          CFI EndBlock cfiPicker86

        RSEG BANKED_CODE:HUGECODE:NOROOT(0)
?Subroutine30:
          CFI Block cfiCond87 Using cfiCommon0
          CFI Function ZDO_beaconNotifyIndCB
          CFI Conditional ??CrossCallReturnLabel_38
          CFI R6 load(1, XDATA, add(CFA_XSP16, literal(-14)))
          CFI VB load(1, XDATA, add(CFA_XSP16, literal(-13)))
          CFI V0 load(1, XDATA, add(CFA_XSP16, literal(-12)))
          CFI V1 load(1, XDATA, add(CFA_XSP16, literal(-11)))
          CFI V2 load(1, XDATA, add(CFA_XSP16, literal(-10)))
          CFI V3 load(1, XDATA, add(CFA_XSP16, literal(-9)))
          CFI V4 load(1, XDATA, add(CFA_XSP16, literal(-8)))
          CFI V5 load(1, XDATA, add(CFA_XSP16, literal(-7)))
          CFI R7 load(1, XDATA, add(CFA_XSP16, literal(-6)))
          CFI ?RET_LOW load(1, XDATA, add(CFA_XSP16, literal(-5)))
          CFI ?RET_HIGH load(1, XDATA, add(CFA_XSP16, literal(-4)))
          CFI ?BRET_EXT load(1, XDATA, add(CFA_XSP16, literal(-3)))
          CFI DPL0 load(1, XDATA, add(CFA_XSP16, literal(-2)))
          CFI DPH0 load(1, XDATA, add(CFA_XSP16, literal(-1)))
          CFI CFA_SP SP+-2
          CFI CFA_XSP16 add(XSP16, 14)
          CFI Block cfiCond88 Using cfiCommon0
          CFI (cfiCond88) Function ZDO_beaconNotifyIndCB
          CFI (cfiCond88) Conditional ??CrossCallReturnLabel_39, ??CrossCallReturnLabel_28
          CFI (cfiCond88) R6 load(1, XDATA, add(CFA_XSP16, literal(-14)))
          CFI (cfiCond88) VB load(1, XDATA, add(CFA_XSP16, literal(-13)))
          CFI (cfiCond88) V0 load(1, XDATA, add(CFA_XSP16, literal(-12)))
          CFI (cfiCond88) V1 load(1, XDATA, add(CFA_XSP16, literal(-11)))
          CFI (cfiCond88) V2 load(1, XDATA, add(CFA_XSP16, literal(-10)))
          CFI (cfiCond88) V3 load(1, XDATA, add(CFA_XSP16, literal(-9)))
          CFI (cfiCond88) V4 load(1, XDATA, add(CFA_XSP16, literal(-8)))
          CFI (cfiCond88) V5 load(1, XDATA, add(CFA_XSP16, literal(-7)))
          CFI (cfiCond88) R7 load(1, XDATA, add(CFA_XSP16, literal(-6)))
          CFI (cfiCond88) ?RET_LOW load(1, XDATA, add(CFA_XSP16, literal(-5)))
          CFI (cfiCond88) ?RET_HIGH load(1, XDATA, add(CFA_XSP16, literal(-4)))
          CFI (cfiCond88) ?BRET_EXT load(1, XDATA, add(CFA_XSP16, literal(-3)))
          CFI (cfiCond88) DPL0 load(1, XDATA, add(CFA_XSP16, literal(-2)))
          CFI (cfiCond88) DPH0 load(1, XDATA, add(CFA_XSP16, literal(-1)))
          CFI (cfiCond88) CFA_SP SP+-4
          CFI (cfiCond88) CFA_XSP16 add(XSP16, 14)
          CFI Block cfiCond89 Using cfiCommon0
          CFI (cfiCond89) Function ZDO_beaconNotifyIndCB
          CFI (cfiCond89) Conditional ??CrossCallReturnLabel_39, ??CrossCallReturnLabel_29
          CFI (cfiCond89) R6 load(1, XDATA, add(CFA_XSP16, literal(-14)))
          CFI (cfiCond89) VB load(1, XDATA, add(CFA_XSP16, literal(-13)))
          CFI (cfiCond89) V0 load(1, XDATA, add(CFA_XSP16, literal(-12)))
          CFI (cfiCond89) V1 load(1, XDATA, add(CFA_XSP16, literal(-11)))
          CFI (cfiCond89) V2 load(1, XDATA, add(CFA_XSP16, literal(-10)))
          CFI (cfiCond89) V3 load(1, XDATA, add(CFA_XSP16, literal(-9)))
          CFI (cfiCond89) V4 load(1, XDATA, add(CFA_XSP16, literal(-8)))
          CFI (cfiCond89) V5 load(1, XDATA, add(CFA_XSP16, literal(-7)))
          CFI (cfiCond89) R7 load(1, XDATA, add(CFA_XSP16, literal(-6)))
          CFI (cfiCond89) ?RET_LOW load(1, XDATA, add(CFA_XSP16, literal(-5)))
          CFI (cfiCond89) ?RET_HIGH load(1, XDATA, add(CFA_XSP16, literal(-4)))
          CFI (cfiCond89) ?BRET_EXT load(1, XDATA, add(CFA_XSP16, literal(-3)))
          CFI (cfiCond89) DPL0 load(1, XDATA, add(CFA_XSP16, literal(-2)))
          CFI (cfiCond89) DPH0 load(1, XDATA, add(CFA_XSP16, literal(-1)))
          CFI (cfiCond89) CFA_SP SP+-4
          CFI (cfiCond89) CFA_XSP16 add(XSP16, 14)
          CFI Block cfiPicker90 Using cfiCommon1
          CFI (cfiPicker90) NoFunction
          CFI (cfiPicker90) Picker
        MOV     A,?V0
        ADD     A,#0xb
        MOV     DPL,A
        CLR     A
        ADDC    A,?V1
        MOV     DPH,A
        RET
          CFI EndBlock cfiCond87
          CFI EndBlock cfiCond88
          CFI EndBlock cfiCond89
          CFI EndBlock cfiPicker90

        RSEG BANKED_CODE:HUGECODE:NOROOT(0)
?Subroutine19:
          CFI Block cfiCond91 Using cfiCommon0
          CFI Function ZDO_beaconNotifyIndCB
          CFI Conditional ??CrossCallReturnLabel_19
          CFI R6 load(1, XDATA, add(CFA_XSP16, literal(-14)))
          CFI VB load(1, XDATA, add(CFA_XSP16, literal(-13)))
          CFI V0 load(1, XDATA, add(CFA_XSP16, literal(-12)))
          CFI V1 load(1, XDATA, add(CFA_XSP16, literal(-11)))
          CFI V2 load(1, XDATA, add(CFA_XSP16, literal(-10)))
          CFI V3 load(1, XDATA, add(CFA_XSP16, literal(-9)))
          CFI V4 load(1, XDATA, add(CFA_XSP16, literal(-8)))
          CFI V5 load(1, XDATA, add(CFA_XSP16, literal(-7)))
          CFI R7 load(1, XDATA, add(CFA_XSP16, literal(-6)))
          CFI ?RET_LOW load(1, XDATA, add(CFA_XSP16, literal(-5)))
          CFI ?RET_HIGH load(1, XDATA, add(CFA_XSP16, literal(-4)))
          CFI ?BRET_EXT load(1, XDATA, add(CFA_XSP16, literal(-3)))
          CFI DPL0 load(1, XDATA, add(CFA_XSP16, literal(-2)))
          CFI DPH0 load(1, XDATA, add(CFA_XSP16, literal(-1)))
          CFI CFA_SP SP+-2
          CFI CFA_XSP16 add(XSP16, 14)
          CFI Block cfiCond92 Using cfiCommon0
          CFI (cfiCond92) Function ZDO_beaconNotifyIndCB
          CFI (cfiCond92) Conditional ??CrossCallReturnLabel_20
          CFI (cfiCond92) R6 load(1, XDATA, add(CFA_XSP16, literal(-14)))
          CFI (cfiCond92) VB load(1, XDATA, add(CFA_XSP16, literal(-13)))
          CFI (cfiCond92) V0 load(1, XDATA, add(CFA_XSP16, literal(-12)))
          CFI (cfiCond92) V1 load(1, XDATA, add(CFA_XSP16, literal(-11)))
          CFI (cfiCond92) V2 load(1, XDATA, add(CFA_XSP16, literal(-10)))
          CFI (cfiCond92) V3 load(1, XDATA, add(CFA_XSP16, literal(-9)))
          CFI (cfiCond92) V4 load(1, XDATA, add(CFA_XSP16, literal(-8)))
          CFI (cfiCond92) V5 load(1, XDATA, add(CFA_XSP16, literal(-7)))
          CFI (cfiCond92) R7 load(1, XDATA, add(CFA_XSP16, literal(-6)))
          CFI (cfiCond92) ?RET_LOW load(1, XDATA, add(CFA_XSP16, literal(-5)))
          CFI (cfiCond92) ?RET_HIGH load(1, XDATA, add(CFA_XSP16, literal(-4)))
          CFI (cfiCond92) ?BRET_EXT load(1, XDATA, add(CFA_XSP16, literal(-3)))
          CFI (cfiCond92) DPL0 load(1, XDATA, add(CFA_XSP16, literal(-2)))
          CFI (cfiCond92) DPH0 load(1, XDATA, add(CFA_XSP16, literal(-1)))
          CFI (cfiCond92) CFA_SP SP+-2
          CFI (cfiCond92) CFA_XSP16 add(XSP16, 14)
          CFI Block cfiPicker93 Using cfiCommon1
          CFI (cfiPicker93) NoFunction
          CFI (cfiPicker93) Picker
        LCALL   ?Subroutine28 & 0xFFFF
??CrossCallReturnLabel_35:
        RET
          CFI EndBlock cfiCond91
          CFI EndBlock cfiCond92
          CFI EndBlock cfiPicker93

        RSEG BANKED_CODE:HUGECODE:NOROOT(0)
?Subroutine28:
          CFI Block cfiCond94 Using cfiCommon0
          CFI Function ZDO_beaconNotifyIndCB
          CFI Conditional ??CrossCallReturnLabel_35, ??CrossCallReturnLabel_19
          CFI R6 load(1, XDATA, add(CFA_XSP16, literal(-14)))
          CFI VB load(1, XDATA, add(CFA_XSP16, literal(-13)))
          CFI V0 load(1, XDATA, add(CFA_XSP16, literal(-12)))
          CFI V1 load(1, XDATA, add(CFA_XSP16, literal(-11)))
          CFI V2 load(1, XDATA, add(CFA_XSP16, literal(-10)))
          CFI V3 load(1, XDATA, add(CFA_XSP16, literal(-9)))
          CFI V4 load(1, XDATA, add(CFA_XSP16, literal(-8)))
          CFI V5 load(1, XDATA, add(CFA_XSP16, literal(-7)))
          CFI R7 load(1, XDATA, add(CFA_XSP16, literal(-6)))
          CFI ?RET_LOW load(1, XDATA, add(CFA_XSP16, literal(-5)))
          CFI ?RET_HIGH load(1, XDATA, add(CFA_XSP16, literal(-4)))
          CFI ?BRET_EXT load(1, XDATA, add(CFA_XSP16, literal(-3)))
          CFI DPL0 load(1, XDATA, add(CFA_XSP16, literal(-2)))
          CFI DPH0 load(1, XDATA, add(CFA_XSP16, literal(-1)))
          CFI CFA_SP SP+-4
          CFI CFA_XSP16 add(XSP16, 14)
          CFI Block cfiCond95 Using cfiCommon0
          CFI (cfiCond95) Function ZDO_beaconNotifyIndCB
          CFI (cfiCond95) Conditional ??CrossCallReturnLabel_35, ??CrossCallReturnLabel_20
          CFI (cfiCond95) R6 load(1, XDATA, add(CFA_XSP16, literal(-14)))
          CFI (cfiCond95) VB load(1, XDATA, add(CFA_XSP16, literal(-13)))
          CFI (cfiCond95) V0 load(1, XDATA, add(CFA_XSP16, literal(-12)))
          CFI (cfiCond95) V1 load(1, XDATA, add(CFA_XSP16, literal(-11)))
          CFI (cfiCond95) V2 load(1, XDATA, add(CFA_XSP16, literal(-10)))
          CFI (cfiCond95) V3 load(1, XDATA, add(CFA_XSP16, literal(-9)))
          CFI (cfiCond95) V4 load(1, XDATA, add(CFA_XSP16, literal(-8)))
          CFI (cfiCond95) V5 load(1, XDATA, add(CFA_XSP16, literal(-7)))
          CFI (cfiCond95) R7 load(1, XDATA, add(CFA_XSP16, literal(-6)))
          CFI (cfiCond95) ?RET_LOW load(1, XDATA, add(CFA_XSP16, literal(-5)))
          CFI (cfiCond95) ?RET_HIGH load(1, XDATA, add(CFA_XSP16, literal(-4)))
          CFI (cfiCond95) ?BRET_EXT load(1, XDATA, add(CFA_XSP16, literal(-3)))
          CFI (cfiCond95) DPL0 load(1, XDATA, add(CFA_XSP16, literal(-2)))
          CFI (cfiCond95) DPH0 load(1, XDATA, add(CFA_XSP16, literal(-1)))
          CFI (cfiCond95) CFA_SP SP+-4
          CFI (cfiCond95) CFA_XSP16 add(XSP16, 14)
          CFI Block cfiCond96 Using cfiCommon0
          CFI (cfiCond96) Function ZDO_beaconNotifyIndCB
          CFI (cfiCond96) Conditional ??CrossCallReturnLabel_34, ??CrossCallReturnLabel_17
          CFI (cfiCond96) R6 load(1, XDATA, add(CFA_XSP16, literal(-14)))
          CFI (cfiCond96) VB load(1, XDATA, add(CFA_XSP16, literal(-13)))
          CFI (cfiCond96) V0 load(1, XDATA, add(CFA_XSP16, literal(-12)))
          CFI (cfiCond96) V1 load(1, XDATA, add(CFA_XSP16, literal(-11)))
          CFI (cfiCond96) V2 load(1, XDATA, add(CFA_XSP16, literal(-10)))
          CFI (cfiCond96) V3 load(1, XDATA, add(CFA_XSP16, literal(-9)))
          CFI (cfiCond96) V4 load(1, XDATA, add(CFA_XSP16, literal(-8)))
          CFI (cfiCond96) V5 load(1, XDATA, add(CFA_XSP16, literal(-7)))
          CFI (cfiCond96) R7 load(1, XDATA, add(CFA_XSP16, literal(-6)))
          CFI (cfiCond96) ?RET_LOW load(1, XDATA, add(CFA_XSP16, literal(-5)))
          CFI (cfiCond96) ?RET_HIGH load(1, XDATA, add(CFA_XSP16, literal(-4)))
          CFI (cfiCond96) ?BRET_EXT load(1, XDATA, add(CFA_XSP16, literal(-3)))
          CFI (cfiCond96) DPL0 load(1, XDATA, add(CFA_XSP16, literal(-2)))
          CFI (cfiCond96) DPH0 load(1, XDATA, add(CFA_XSP16, literal(-1)))
          CFI (cfiCond96) CFA_SP SP+-4
          CFI (cfiCond96) CFA_XSP16 add(XSP16, 14)
          CFI Block cfiCond97 Using cfiCommon0
          CFI (cfiCond97) Function ZDO_beaconNotifyIndCB
          CFI (cfiCond97) Conditional ??CrossCallReturnLabel_34, ??CrossCallReturnLabel_18
          CFI (cfiCond97) R6 load(1, XDATA, add(CFA_XSP16, literal(-14)))
          CFI (cfiCond97) VB load(1, XDATA, add(CFA_XSP16, literal(-13)))
          CFI (cfiCond97) V0 load(1, XDATA, add(CFA_XSP16, literal(-12)))
          CFI (cfiCond97) V1 load(1, XDATA, add(CFA_XSP16, literal(-11)))
          CFI (cfiCond97) V2 load(1, XDATA, add(CFA_XSP16, literal(-10)))
          CFI (cfiCond97) V3 load(1, XDATA, add(CFA_XSP16, literal(-9)))
          CFI (cfiCond97) V4 load(1, XDATA, add(CFA_XSP16, literal(-8)))
          CFI (cfiCond97) V5 load(1, XDATA, add(CFA_XSP16, literal(-7)))
          CFI (cfiCond97) R7 load(1, XDATA, add(CFA_XSP16, literal(-6)))
          CFI (cfiCond97) ?RET_LOW load(1, XDATA, add(CFA_XSP16, literal(-5)))
          CFI (cfiCond97) ?RET_HIGH load(1, XDATA, add(CFA_XSP16, literal(-4)))
          CFI (cfiCond97) ?BRET_EXT load(1, XDATA, add(CFA_XSP16, literal(-3)))
          CFI (cfiCond97) DPL0 load(1, XDATA, add(CFA_XSP16, literal(-2)))
          CFI (cfiCond97) DPH0 load(1, XDATA, add(CFA_XSP16, literal(-1)))
          CFI (cfiCond97) CFA_SP SP+-4
          CFI (cfiCond97) CFA_XSP16 add(XSP16, 14)
          CFI Block cfiPicker98 Using cfiCommon1
          CFI (cfiPicker98) NoFunction
          CFI (cfiPicker98) Picker
        MOVX    A,@DPTR
        MOV     DPL,R6
        MOV     DPH,R7
        INC     DPTR
        INC     DPTR
        INC     DPTR
        INC     DPTR
        INC     DPTR
        RET
          CFI EndBlock cfiCond94
          CFI EndBlock cfiCond95
          CFI EndBlock cfiCond96
          CFI EndBlock cfiCond97
          CFI EndBlock cfiPicker98

        RSEG BANKED_CODE:HUGECODE:NOROOT(0)
?Subroutine17:
          CFI Block cfiCond99 Using cfiCommon0
          CFI Function ZDO_beaconNotifyIndCB
          CFI Conditional ??CrossCallReturnLabel_17
          CFI R6 load(1, XDATA, add(CFA_XSP16, literal(-14)))
          CFI VB load(1, XDATA, add(CFA_XSP16, literal(-13)))
          CFI V0 load(1, XDATA, add(CFA_XSP16, literal(-12)))
          CFI V1 load(1, XDATA, add(CFA_XSP16, literal(-11)))
          CFI V2 load(1, XDATA, add(CFA_XSP16, literal(-10)))
          CFI V3 load(1, XDATA, add(CFA_XSP16, literal(-9)))
          CFI V4 load(1, XDATA, add(CFA_XSP16, literal(-8)))
          CFI V5 load(1, XDATA, add(CFA_XSP16, literal(-7)))
          CFI R7 load(1, XDATA, add(CFA_XSP16, literal(-6)))
          CFI ?RET_LOW load(1, XDATA, add(CFA_XSP16, literal(-5)))
          CFI ?RET_HIGH load(1, XDATA, add(CFA_XSP16, literal(-4)))
          CFI ?BRET_EXT load(1, XDATA, add(CFA_XSP16, literal(-3)))
          CFI DPL0 load(1, XDATA, add(CFA_XSP16, literal(-2)))
          CFI DPH0 load(1, XDATA, add(CFA_XSP16, literal(-1)))
          CFI CFA_SP SP+-2
          CFI CFA_XSP16 add(XSP16, 14)
          CFI Block cfiCond100 Using cfiCommon0
          CFI (cfiCond100) Function ZDO_beaconNotifyIndCB
          CFI (cfiCond100) Conditional ??CrossCallReturnLabel_18
          CFI (cfiCond100) R6 load(1, XDATA, add(CFA_XSP16, literal(-14)))
          CFI (cfiCond100) VB load(1, XDATA, add(CFA_XSP16, literal(-13)))
          CFI (cfiCond100) V0 load(1, XDATA, add(CFA_XSP16, literal(-12)))
          CFI (cfiCond100) V1 load(1, XDATA, add(CFA_XSP16, literal(-11)))
          CFI (cfiCond100) V2 load(1, XDATA, add(CFA_XSP16, literal(-10)))
          CFI (cfiCond100) V3 load(1, XDATA, add(CFA_XSP16, literal(-9)))
          CFI (cfiCond100) V4 load(1, XDATA, add(CFA_XSP16, literal(-8)))
          CFI (cfiCond100) V5 load(1, XDATA, add(CFA_XSP16, literal(-7)))
          CFI (cfiCond100) R7 load(1, XDATA, add(CFA_XSP16, literal(-6)))
          CFI (cfiCond100) ?RET_LOW load(1, XDATA, add(CFA_XSP16, literal(-5)))
          CFI (cfiCond100) ?RET_HIGH load(1, XDATA, add(CFA_XSP16, literal(-4)))
          CFI (cfiCond100) ?BRET_EXT load(1, XDATA, add(CFA_XSP16, literal(-3)))
          CFI (cfiCond100) DPL0 load(1, XDATA, add(CFA_XSP16, literal(-2)))
          CFI (cfiCond100) DPH0 load(1, XDATA, add(CFA_XSP16, literal(-1)))
          CFI (cfiCond100) CFA_SP SP+-2
          CFI (cfiCond100) CFA_XSP16 add(XSP16, 14)
          CFI Block cfiPicker101 Using cfiCommon1
          CFI (cfiPicker101) NoFunction
          CFI (cfiPicker101) Picker
        LCALL   ?Subroutine28 & 0xFFFF
??CrossCallReturnLabel_34:
        INC     DPTR
        INC     DPTR
        INC     DPTR
        INC     DPTR
        RET
          CFI EndBlock cfiCond99
          CFI EndBlock cfiCond100
          CFI EndBlock cfiPicker101

        RSEG BANKED_CODE:HUGECODE:NOROOT(0)
?Subroutine10:
          CFI Block cfiCond102 Using cfiCommon0
          CFI Function ZDO_beaconNotifyIndCB
          CFI Conditional ??CrossCallReturnLabel_2
          CFI R6 load(1, XDATA, add(CFA_XSP16, literal(-14)))
          CFI VB load(1, XDATA, add(CFA_XSP16, literal(-13)))
          CFI V0 load(1, XDATA, add(CFA_XSP16, literal(-12)))
          CFI V1 load(1, XDATA, add(CFA_XSP16, literal(-11)))
          CFI V2 load(1, XDATA, add(CFA_XSP16, literal(-10)))
          CFI V3 load(1, XDATA, add(CFA_XSP16, literal(-9)))
          CFI V4 load(1, XDATA, add(CFA_XSP16, literal(-8)))
          CFI V5 load(1, XDATA, add(CFA_XSP16, literal(-7)))
          CFI R7 load(1, XDATA, add(CFA_XSP16, literal(-6)))
          CFI ?RET_LOW load(1, XDATA, add(CFA_XSP16, literal(-5)))
          CFI ?RET_HIGH load(1, XDATA, add(CFA_XSP16, literal(-4)))
          CFI ?BRET_EXT load(1, XDATA, add(CFA_XSP16, literal(-3)))
          CFI DPL0 load(1, XDATA, add(CFA_XSP16, literal(-2)))
          CFI DPH0 load(1, XDATA, add(CFA_XSP16, literal(-1)))
          CFI CFA_SP SP+-2
          CFI CFA_XSP16 add(XSP16, 14)
          CFI Block cfiCond103 Using cfiCommon0
          CFI (cfiCond103) Function ZDO_beaconNotifyIndCB
          CFI (cfiCond103) Conditional ??CrossCallReturnLabel_3
          CFI (cfiCond103) R6 load(1, XDATA, add(CFA_XSP16, literal(-14)))
          CFI (cfiCond103) VB load(1, XDATA, add(CFA_XSP16, literal(-13)))
          CFI (cfiCond103) V0 load(1, XDATA, add(CFA_XSP16, literal(-12)))
          CFI (cfiCond103) V1 load(1, XDATA, add(CFA_XSP16, literal(-11)))
          CFI (cfiCond103) V2 load(1, XDATA, add(CFA_XSP16, literal(-10)))
          CFI (cfiCond103) V3 load(1, XDATA, add(CFA_XSP16, literal(-9)))
          CFI (cfiCond103) V4 load(1, XDATA, add(CFA_XSP16, literal(-8)))
          CFI (cfiCond103) V5 load(1, XDATA, add(CFA_XSP16, literal(-7)))
          CFI (cfiCond103) R7 load(1, XDATA, add(CFA_XSP16, literal(-6)))
          CFI (cfiCond103) ?RET_LOW load(1, XDATA, add(CFA_XSP16, literal(-5)))
          CFI (cfiCond103) ?RET_HIGH load(1, XDATA, add(CFA_XSP16, literal(-4)))
          CFI (cfiCond103) ?BRET_EXT load(1, XDATA, add(CFA_XSP16, literal(-3)))
          CFI (cfiCond103) DPL0 load(1, XDATA, add(CFA_XSP16, literal(-2)))
          CFI (cfiCond103) DPH0 load(1, XDATA, add(CFA_XSP16, literal(-1)))
          CFI (cfiCond103) CFA_SP SP+-2
          CFI (cfiCond103) CFA_XSP16 add(XSP16, 14)
          CFI Block cfiPicker104 Using cfiCommon1
          CFI (cfiPicker104) NoFunction
          CFI (cfiPicker104) Picker
        LCALL   ?Subroutine27 & 0xFFFF
??CrossCallReturnLabel_33:
        INC     DPTR
        INC     DPTR
        RET
          CFI EndBlock cfiCond102
          CFI EndBlock cfiCond103
          CFI EndBlock cfiPicker104

        RSEG BANKED_CODE:HUGECODE:NOROOT(0)
?Subroutine27:
          CFI Block cfiCond105 Using cfiCommon0
          CFI Function ZDO_beaconNotifyIndCB
          CFI Conditional ??CrossCallReturnLabel_32
          CFI R6 load(1, XDATA, add(CFA_XSP16, literal(-14)))
          CFI VB load(1, XDATA, add(CFA_XSP16, literal(-13)))
          CFI V0 load(1, XDATA, add(CFA_XSP16, literal(-12)))
          CFI V1 load(1, XDATA, add(CFA_XSP16, literal(-11)))
          CFI V2 load(1, XDATA, add(CFA_XSP16, literal(-10)))
          CFI V3 load(1, XDATA, add(CFA_XSP16, literal(-9)))
          CFI V4 load(1, XDATA, add(CFA_XSP16, literal(-8)))
          CFI V5 load(1, XDATA, add(CFA_XSP16, literal(-7)))
          CFI R7 load(1, XDATA, add(CFA_XSP16, literal(-6)))
          CFI ?RET_LOW load(1, XDATA, add(CFA_XSP16, literal(-5)))
          CFI ?RET_HIGH load(1, XDATA, add(CFA_XSP16, literal(-4)))
          CFI ?BRET_EXT load(1, XDATA, add(CFA_XSP16, literal(-3)))
          CFI DPL0 load(1, XDATA, add(CFA_XSP16, literal(-2)))
          CFI DPH0 load(1, XDATA, add(CFA_XSP16, literal(-1)))
          CFI CFA_SP SP+-2
          CFI CFA_XSP16 add(XSP16, 14)
          CFI Block cfiCond106 Using cfiCommon0
          CFI (cfiCond106) Function ZDO_beaconNotifyIndCB
          CFI (cfiCond106) Conditional ??CrossCallReturnLabel_33, ??CrossCallReturnLabel_2
          CFI (cfiCond106) R6 load(1, XDATA, add(CFA_XSP16, literal(-14)))
          CFI (cfiCond106) VB load(1, XDATA, add(CFA_XSP16, literal(-13)))
          CFI (cfiCond106) V0 load(1, XDATA, add(CFA_XSP16, literal(-12)))
          CFI (cfiCond106) V1 load(1, XDATA, add(CFA_XSP16, literal(-11)))
          CFI (cfiCond106) V2 load(1, XDATA, add(CFA_XSP16, literal(-10)))
          CFI (cfiCond106) V3 load(1, XDATA, add(CFA_XSP16, literal(-9)))
          CFI (cfiCond106) V4 load(1, XDATA, add(CFA_XSP16, literal(-8)))
          CFI (cfiCond106) V5 load(1, XDATA, add(CFA_XSP16, literal(-7)))
          CFI (cfiCond106) R7 load(1, XDATA, add(CFA_XSP16, literal(-6)))
          CFI (cfiCond106) ?RET_LOW load(1, XDATA, add(CFA_XSP16, literal(-5)))
          CFI (cfiCond106) ?RET_HIGH load(1, XDATA, add(CFA_XSP16, literal(-4)))
          CFI (cfiCond106) ?BRET_EXT load(1, XDATA, add(CFA_XSP16, literal(-3)))
          CFI (cfiCond106) DPL0 load(1, XDATA, add(CFA_XSP16, literal(-2)))
          CFI (cfiCond106) DPH0 load(1, XDATA, add(CFA_XSP16, literal(-1)))
          CFI (cfiCond106) CFA_SP SP+-4
          CFI (cfiCond106) CFA_XSP16 add(XSP16, 14)
          CFI Block cfiCond107 Using cfiCommon0
          CFI (cfiCond107) Function ZDO_beaconNotifyIndCB
          CFI (cfiCond107) Conditional ??CrossCallReturnLabel_33, ??CrossCallReturnLabel_3
          CFI (cfiCond107) R6 load(1, XDATA, add(CFA_XSP16, literal(-14)))
          CFI (cfiCond107) VB load(1, XDATA, add(CFA_XSP16, literal(-13)))
          CFI (cfiCond107) V0 load(1, XDATA, add(CFA_XSP16, literal(-12)))
          CFI (cfiCond107) V1 load(1, XDATA, add(CFA_XSP16, literal(-11)))
          CFI (cfiCond107) V2 load(1, XDATA, add(CFA_XSP16, literal(-10)))
          CFI (cfiCond107) V3 load(1, XDATA, add(CFA_XSP16, literal(-9)))
          CFI (cfiCond107) V4 load(1, XDATA, add(CFA_XSP16, literal(-8)))
          CFI (cfiCond107) V5 load(1, XDATA, add(CFA_XSP16, literal(-7)))
          CFI (cfiCond107) R7 load(1, XDATA, add(CFA_XSP16, literal(-6)))
          CFI (cfiCond107) ?RET_LOW load(1, XDATA, add(CFA_XSP16, literal(-5)))
          CFI (cfiCond107) ?RET_HIGH load(1, XDATA, add(CFA_XSP16, literal(-4)))
          CFI (cfiCond107) ?BRET_EXT load(1, XDATA, add(CFA_XSP16, literal(-3)))
          CFI (cfiCond107) DPL0 load(1, XDATA, add(CFA_XSP16, literal(-2)))
          CFI (cfiCond107) DPH0 load(1, XDATA, add(CFA_XSP16, literal(-1)))
          CFI (cfiCond107) CFA_SP SP+-4
          CFI (cfiCond107) CFA_XSP16 add(XSP16, 14)
          CFI Block cfiPicker108 Using cfiCommon1
          CFI (cfiPicker108) NoFunction
          CFI (cfiPicker108) Picker
        MOVX    @DPTR,A
        MOV     DPL,?V0
        MOV     DPH,?V1
        INC     DPTR
        INC     DPTR
        RET
          CFI EndBlock cfiCond105
          CFI EndBlock cfiCond106
          CFI EndBlock cfiCond107
          CFI EndBlock cfiPicker108

        RSEG BANKED_CODE:HUGECODE:NOROOT(0)
?Subroutine9:
          CFI Block cfiCond109 Using cfiCommon0
          CFI Function ZDApp_ProcessOSALMsg
          CFI Conditional ??CrossCallReturnLabel_0
          CFI R6 load(1, XDATA, add(CFA_XSP16, literal(-10)))
          CFI VB load(1, XDATA, add(CFA_XSP16, literal(-9)))
          CFI V0 load(1, XDATA, add(CFA_XSP16, literal(-8)))
          CFI V1 load(1, XDATA, add(CFA_XSP16, literal(-7)))
          CFI R7 load(1, XDATA, add(CFA_XSP16, literal(-6)))
          CFI ?RET_LOW load(1, XDATA, add(CFA_XSP16, literal(-5)))
          CFI ?RET_HIGH load(1, XDATA, add(CFA_XSP16, literal(-4)))
          CFI ?BRET_EXT load(1, XDATA, add(CFA_XSP16, literal(-3)))
          CFI DPL0 load(1, XDATA, add(CFA_XSP16, literal(-2)))
          CFI DPH0 load(1, XDATA, add(CFA_XSP16, literal(-1)))
          CFI CFA_SP SP+-2
          CFI CFA_XSP16 add(XSP16, 11)
          CFI Block cfiCond110 Using cfiCommon0
          CFI (cfiCond110) Function ZDO_beaconNotifyIndCB
          CFI (cfiCond110) Conditional ??CrossCallReturnLabel_1
          CFI (cfiCond110) R6 load(1, XDATA, add(CFA_XSP16, literal(-14)))
          CFI (cfiCond110) VB load(1, XDATA, add(CFA_XSP16, literal(-13)))
          CFI (cfiCond110) V0 load(1, XDATA, add(CFA_XSP16, literal(-12)))
          CFI (cfiCond110) V1 load(1, XDATA, add(CFA_XSP16, literal(-11)))
          CFI (cfiCond110) V2 load(1, XDATA, add(CFA_XSP16, literal(-10)))
          CFI (cfiCond110) V3 load(1, XDATA, add(CFA_XSP16, literal(-9)))
          CFI (cfiCond110) V4 load(1, XDATA, add(CFA_XSP16, literal(-8)))
          CFI (cfiCond110) V5 load(1, XDATA, add(CFA_XSP16, literal(-7)))
          CFI (cfiCond110) R7 load(1, XDATA, add(CFA_XSP16, literal(-6)))
          CFI (cfiCond110) ?RET_LOW load(1, XDATA, add(CFA_XSP16, literal(-5)))
          CFI (cfiCond110) ?RET_HIGH load(1, XDATA, add(CFA_XSP16, literal(-4)))
          CFI (cfiCond110) ?BRET_EXT load(1, XDATA, add(CFA_XSP16, literal(-3)))
          CFI (cfiCond110) DPL0 load(1, XDATA, add(CFA_XSP16, literal(-2)))
          CFI (cfiCond110) DPH0 load(1, XDATA, add(CFA_XSP16, literal(-1)))
          CFI (cfiCond110) CFA_SP SP+-2
          CFI (cfiCond110) CFA_XSP16 add(XSP16, 14)
          CFI Block cfiPicker111 Using cfiCommon1
          CFI (cfiPicker111) NoFunction
          CFI (cfiPicker111) Picker
        MOVX    @DPTR,A
        ; Setup parameters for call to function ZDApp_NodeProfileSync
        MOV     DPL,R6
        MOV     DPH,R7
        INC     DPTR
        INC     DPTR
        INC     DPTR
        INC     DPTR
        INC     DPTR
        INC     DPTR
        RET
          CFI EndBlock cfiCond109
          CFI EndBlock cfiCond110
          CFI EndBlock cfiPicker111
// 2266 
// 2267 /*********************************************************************
// 2268  * @fn          ZDO_StartRouterConfirmCB
// 2269  *
// 2270  * @brief       This function reports the results of the request to
// 2271  *              start functioning as a router in a network.
// 2272  *
// 2273  * @param       Status - Result of NLME_StartRouterRequest()
// 2274  *
// 2275  * @return      none
// 2276  */

        RSEG BANKED_CODE:HUGECODE:NOROOT(0)
// 2277 void ZDO_StartRouterConfirmCB( ZStatus_t Status )
ZDO_StartRouterConfirmCB:
          CFI Block cfiBlock112 Using cfiCommon0
          CFI Function ZDO_StartRouterConfirmCB
        CODE
// 2278 {
        FUNCALL ZDO_StartRouterConfirmCB, HalLedSet
        LOCFRAME ISTACK, 0, STACK
        LOCFRAME PSTACK, 0, STACK
        LOCFRAME XSTACK, 9, STACK
        LOCFRAME IOVERLAY, 0, STATIC
        LOCFRAME DOVERLAY, 0, STATIC
        ARGFRAME ISTACK, 0, STACK
        ARGFRAME PSTACK, 0, STACK
        ARGFRAME XSTACK, 9, STACK
        ARGFRAME IOVERLAY, 0, STATIC
        ARGFRAME DOVERLAY, 0, STATIC
        FUNCALL ZDO_StartRouterConfirmCB, HalLedSet
        LOCFRAME ISTACK, 0, STACK
        LOCFRAME PSTACK, 0, STACK
        LOCFRAME XSTACK, 9, STACK
        LOCFRAME IOVERLAY, 0, STATIC
        LOCFRAME DOVERLAY, 0, STATIC
        ARGFRAME ISTACK, 0, STACK
        ARGFRAME PSTACK, 0, STACK
        ARGFRAME XSTACK, 9, STACK
        ARGFRAME IOVERLAY, 0, STATIC
        ARGFRAME DOVERLAY, 0, STATIC
        FUNCALL ZDO_StartRouterConfirmCB, HalLedSet
        LOCFRAME ISTACK, 0, STACK
        LOCFRAME PSTACK, 0, STACK
        LOCFRAME XSTACK, 9, STACK
        LOCFRAME IOVERLAY, 0, STATIC
        LOCFRAME DOVERLAY, 0, STATIC
        ARGFRAME ISTACK, 0, STACK
        ARGFRAME PSTACK, 0, STACK
        ARGFRAME XSTACK, 9, STACK
        ARGFRAME IOVERLAY, 0, STATIC
        ARGFRAME DOVERLAY, 0, STATIC
        FUNCALL ZDO_StartRouterConfirmCB, osal_set_event
        LOCFRAME ISTACK, 0, STACK
        LOCFRAME PSTACK, 0, STACK
        LOCFRAME XSTACK, 9, STACK
        LOCFRAME IOVERLAY, 0, STATIC
        LOCFRAME DOVERLAY, 0, STATIC
        ARGFRAME ISTACK, 0, STACK
        ARGFRAME PSTACK, 0, STACK
        ARGFRAME XSTACK, 9, STACK
        ARGFRAME IOVERLAY, 0, STATIC
        ARGFRAME DOVERLAY, 0, STATIC
        MOV     A,#-0x9
        LCALL   ?BANKED_ENTER_XDATA
          CFI DPH0 load(1, XDATA, add(CFA_XSP16, literal(-1)))
          CFI DPL0 load(1, XDATA, add(CFA_XSP16, literal(-2)))
          CFI ?BRET_EXT load(1, XDATA, add(CFA_XSP16, literal(-3)))
          CFI ?RET_HIGH load(1, XDATA, add(CFA_XSP16, literal(-4)))
          CFI ?RET_LOW load(1, XDATA, add(CFA_XSP16, literal(-5)))
          CFI R7 load(1, XDATA, add(CFA_XSP16, literal(-6)))
          CFI V0 load(1, XDATA, add(CFA_XSP16, literal(-7)))
          CFI VB load(1, XDATA, add(CFA_XSP16, literal(-8)))
          CFI R6 load(1, XDATA, add(CFA_XSP16, literal(-9)))
          CFI CFA_SP SP+0
          CFI CFA_XSP16 add(XSP16, 9)
        ; Saved register size: 9
        ; Auto size: 0
        MOV     A,R1
// 2279   nwkStatus = (byte)Status;
        MOV     DPTR,#nwkStatus
        MOVX    @DPTR,A
// 2280 
// 2281   if ( Status == ZSUCCESS )
        JNZ     ??ZDO_StartRouterConfirmCB_0
// 2282   {
// 2283     // LED on shows Router started
// 2284     HalLedSet ( HAL_LED_3, HAL_LED_MODE_ON );
        ; Setup parameters for call to function HalLedSet
        MOV     R2,#0x1
        MOV     R1,#0x4
        LCALL   `??HalLedSet::?relay`; Banked call to: HalLedSet
// 2285     // LED off forgets HOLD_AUTO_START
// 2286     HalLedSet ( HAL_LED_4, HAL_LED_MODE_OFF);
        ; Setup parameters for call to function HalLedSet
        MOV     R2,#0x0
        MOV     R1,#0x8
        LCALL   `??HalLedSet::?relay`; Banked call to: HalLedSet
// 2287     if ( devState == DEV_HOLD )
        MOV     DPTR,#devState
        MOVX    A,@DPTR
        JNZ     ??ZDO_StartRouterConfirmCB_1
// 2288     {
// 2289       // Began with HOLD_AUTO_START
// 2290       devState = DEV_END_DEVICE;
        MOV     A,#0x6
        MOVX    @DPTR,A
        SJMP    ??ZDO_StartRouterConfirmCB_1
// 2291     }
// 2292   }
// 2293 #if defined(BLINK_LEDS)
// 2294   else
// 2295   {
// 2296     HalLedSet( HAL_LED_3, HAL_LED_MODE_FLASH );  // Flash LED to show failure
??ZDO_StartRouterConfirmCB_0:
        ; Setup parameters for call to function HalLedSet
        MOV     R2,#0x4
        MOV     R1,#0x4
        LCALL   `??HalLedSet::?relay`; Banked call to: HalLedSet
// 2297   }
// 2298 #endif
// 2299 
// 2300   osal_set_event( ZDAppTaskID, ZDO_ROUTER_START );
??ZDO_StartRouterConfirmCB_1:
        ; Setup parameters for call to function osal_set_event
        MOV     R2,#0x20
        LJMP    ?Subroutine0 & 0xFFFF
// 2301 }
          CFI EndBlock cfiBlock112
// 2302 
// 2303 /*********************************************************************
// 2304  * @fn          ZDO_JoinConfirmCB
// 2305  *
// 2306  * @brief       This function allows the next hight layer to be notified
// 2307  *              of the results of its request to join itself or another
// 2308  *              device to a network.
// 2309  *
// 2310  * @param       Status - Result of NLME_JoinRequest()
// 2311  *
// 2312  * @return      none
// 2313  */

        RSEG BANKED_CODE:HUGECODE:NOROOT(0)
// 2314 void ZDO_JoinConfirmCB( uint16 PanId, ZStatus_t Status )
ZDO_JoinConfirmCB:
          CFI Block cfiBlock113 Using cfiCommon0
          CFI Function ZDO_JoinConfirmCB
        CODE
// 2315 {
        FUNCALL ZDO_JoinConfirmCB, HalLedSet
        LOCFRAME ISTACK, 0, STACK
        LOCFRAME PSTACK, 0, STACK
        LOCFRAME XSTACK, 14, STACK
        LOCFRAME IOVERLAY, 0, STATIC
        LOCFRAME DOVERLAY, 0, STATIC
        ARGFRAME ISTACK, 0, STACK
        ARGFRAME PSTACK, 0, STACK
        ARGFRAME XSTACK, 14, STACK
        ARGFRAME IOVERLAY, 0, STATIC
        ARGFRAME DOVERLAY, 0, STATIC
        FUNCALL ZDO_JoinConfirmCB, HalLedSet
        LOCFRAME ISTACK, 0, STACK
        LOCFRAME PSTACK, 0, STACK
        LOCFRAME XSTACK, 14, STACK
        LOCFRAME IOVERLAY, 0, STATIC
        LOCFRAME DOVERLAY, 0, STATIC
        ARGFRAME ISTACK, 0, STACK
        ARGFRAME PSTACK, 0, STACK
        ARGFRAME XSTACK, 14, STACK
        ARGFRAME IOVERLAY, 0, STATIC
        ARGFRAME DOVERLAY, 0, STATIC
        FUNCALL ZDO_JoinConfirmCB, HalLedSet
        LOCFRAME ISTACK, 0, STACK
        LOCFRAME PSTACK, 0, STACK
        LOCFRAME XSTACK, 14, STACK
        LOCFRAME IOVERLAY, 0, STATIC
        LOCFRAME DOVERLAY, 0, STATIC
        ARGFRAME ISTACK, 0, STACK
        ARGFRAME PSTACK, 0, STACK
        ARGFRAME XSTACK, 14, STACK
        ARGFRAME IOVERLAY, 0, STATIC
        ARGFRAME DOVERLAY, 0, STATIC
        FUNCALL ZDO_JoinConfirmCB, ZDApp_SendMsg
        LOCFRAME ISTACK, 0, STACK
        LOCFRAME PSTACK, 0, STACK
        LOCFRAME XSTACK, 14, STACK
        LOCFRAME IOVERLAY, 0, STATIC
        LOCFRAME DOVERLAY, 0, STATIC
        ARGFRAME ISTACK, 0, STACK
        ARGFRAME PSTACK, 0, STACK
        ARGFRAME XSTACK, 14, STACK
        ARGFRAME IOVERLAY, 0, STATIC
        ARGFRAME DOVERLAY, 0, STATIC
        MOV     A,#-0x9
        LCALL   ?BANKED_ENTER_XDATA
          CFI DPH0 load(1, XDATA, add(CFA_XSP16, literal(-1)))
          CFI DPL0 load(1, XDATA, add(CFA_XSP16, literal(-2)))
          CFI ?BRET_EXT load(1, XDATA, add(CFA_XSP16, literal(-3)))
          CFI ?RET_HIGH load(1, XDATA, add(CFA_XSP16, literal(-4)))
          CFI ?RET_LOW load(1, XDATA, add(CFA_XSP16, literal(-5)))
          CFI R7 load(1, XDATA, add(CFA_XSP16, literal(-6)))
          CFI V0 load(1, XDATA, add(CFA_XSP16, literal(-7)))
          CFI VB load(1, XDATA, add(CFA_XSP16, literal(-8)))
          CFI R6 load(1, XDATA, add(CFA_XSP16, literal(-9)))
          CFI CFA_SP SP+0
          CFI CFA_XSP16 add(XSP16, 9)
        ; Saved register size: 9
        ; Auto size: 5
        MOV     A,#-0x5
        LCALL   ?ALLOC_XSTACK8
          CFI CFA_XSP16 add(XSP16, 14)
        MOV     A,R1
        MOV     R6,A
// 2316   (void)PanId;  // remove if this parameter is used.
// 2317   
// 2318   nwkStatus = (byte)Status;
        MOV     DPTR,#nwkStatus
        MOVX    @DPTR,A
// 2319 
// 2320   if ( Status == ZSUCCESS )
        JNZ     ??ZDO_JoinConfirmCB_0
// 2321   {
// 2322     // LED on shows device joined
// 2323     HalLedSet ( HAL_LED_3, HAL_LED_MODE_ON );
        ; Setup parameters for call to function HalLedSet
        MOV     R2,#0x1
        MOV     R1,#0x4
        LCALL   `??HalLedSet::?relay`; Banked call to: HalLedSet
// 2324     // LED off forgets HOLD_AUTO_START
// 2325     HalLedSet ( HAL_LED_4, HAL_LED_MODE_OFF);
        ; Setup parameters for call to function HalLedSet
        MOV     R2,#0x0
        MOV     R1,#0x8
        LCALL   `??HalLedSet::?relay`; Banked call to: HalLedSet
// 2326     if ( (devState == DEV_HOLD) )
        MOV     DPTR,#devState
        MOVX    A,@DPTR
        JNZ     ??ZDO_JoinConfirmCB_1
// 2327     {
// 2328       // Began with HOLD_AUTO_START
// 2329       devState = DEV_NWK_JOINING;
        MOV     A,#0x3
        MOVX    @DPTR,A
        SJMP    ??ZDO_JoinConfirmCB_1
// 2330     }
// 2331 
// 2332     if ( !ZG_SECURE_ENABLED )
// 2333     {
// 2334       // Notify to save info into NV
// 2335       ZDApp_NVUpdate();
// 2336     }
// 2337   }
// 2338   else
// 2339   {
// 2340 #if defined(BLINK_LEDS)
// 2341     HalLedSet ( HAL_LED_3, HAL_LED_MODE_FLASH );  // Flash LED to show failure
??ZDO_JoinConfirmCB_0:
        ; Setup parameters for call to function HalLedSet
        MOV     R2,#0x4
        MOV     R1,#0x4
        LCALL   `??HalLedSet::?relay`; Banked call to: HalLedSet
// 2342 #endif
// 2343   }
// 2344     
// 2345   // Pass the join confirm to higher layer if callback registered
// 2346   if (zdoCBFunc[ZDO_JOIN_CNF_CBID] != NULL )
??ZDO_JoinConfirmCB_1:
        MOV     DPTR,#zdoCBFunc + 8
        LCALL   ?Subroutine15 & 0xFFFF
??CrossCallReturnLabel_14:
        JZ      ??ZDO_JoinConfirmCB_2
// 2347   {  
// 2348     zdoJoinCnf_t joinCnf;
// 2349     
// 2350     joinCnf.status = Status;
        MOV     A,R6
        MOV     DPL,?XSP + 0
        MOV     DPH,?XSP + 1
        MOVX    @DPTR,A
// 2351     joinCnf.deviceAddr = _NIB.nwkDevAddress;
        MOV     DPTR,#_NIB + 20
        LCALL   ??Subroutine41_0 & 0xFFFF
??CrossCallReturnLabel_58:
        MOV     A,#0x1
        LCALL   ?XSTACK_DISP0_8
        MOV     A,R0
        MOVX    @DPTR,A
        INC     DPTR
        MOV     A,R1
        MOVX    @DPTR,A
// 2352     joinCnf.parentAddr = _NIB.nwkCoordAddress;
        MOV     DPTR,#_NIB + 23
        LCALL   ??Subroutine41_0 & 0xFFFF
??CrossCallReturnLabel_59:
        MOV     A,#0x3
        LCALL   ?XSTACK_DISP0_8
        MOV     A,R0
        MOVX    @DPTR,A
        INC     DPTR
        MOV     A,R1
        MOVX    @DPTR,A
// 2353            
// 2354     zdoCBFunc[ZDO_JOIN_CNF_CBID]( (void*)&joinCnf );
        ; Setup parameters for indirect call
        MOV     R2,?XSP + 0
        MOV     R3,?XSP + 1
        MOV     DPTR,#zdoCBFunc + 8
        MOVX    A,@DPTR
        MOV     R0,A
        INC     DPTR
        LCALL   ??Subroutine39_0 & 0xFFFF
// 2355   }
??CrossCallReturnLabel_48:
        LCALL   ?CALL_IND
// 2356   
// 2357   // Notify ZDApp
// 2358   ZDApp_SendMsg( ZDAppTaskID, ZDO_NWK_JOIN_IND, sizeof(osal_event_hdr_t), (byte*)NULL );
??ZDO_JoinConfirmCB_2:
        ; Setup parameters for call to function ZDApp_SendMsg
        MOV     R4,#0x0
        MOV     R5,#0x0
        MOV     R3,#0x2
        MOV     R2,#0x2
        MOV     DPTR,#ZDAppTaskID
        MOVX    A,@DPTR
        MOV     R1,A
        LCALL   `??ZDApp_SendMsg::?relay`; Banked call to: ZDApp_SendMsg
// 2359   
// 2360 }
          CFI EndBlock cfiBlock113
        REQUIRE ?Subroutine6
        ; // Fall through to label ?Subroutine6

        RSEG BANKED_CODE:HUGECODE:NOROOT(0)
?Subroutine6:
          CFI Block cfiBlock114 Using cfiCommon0
          CFI NoFunction
          CFI CFA_SP SP+0
          CFI CFA_XSP16 add(XSP16, 14)
          CFI VB load(1, XDATA, add(CFA_XSP16, literal(-8)))
          CFI DPL0 load(1, XDATA, add(CFA_XSP16, literal(-2)))
          CFI DPH0 load(1, XDATA, add(CFA_XSP16, literal(-1)))
          CFI R6 load(1, XDATA, add(CFA_XSP16, literal(-9)))
          CFI R7 load(1, XDATA, add(CFA_XSP16, literal(-6)))
          CFI V0 load(1, XDATA, add(CFA_XSP16, literal(-7)))
          CFI ?BRET_EXT load(1, XDATA, add(CFA_XSP16, literal(-3)))
          CFI ?RET_HIGH load(1, XDATA, add(CFA_XSP16, literal(-4)))
          CFI ?RET_LOW load(1, XDATA, add(CFA_XSP16, literal(-5)))
        MOV     A,#0x5
        LCALL   ?DEALLOC_XSTACK8
          CFI CFA_XSP16 add(XSP16, 9)
        LJMP    ??Subroutine38_0 & 0xFFFF
          CFI EndBlock cfiBlock114

        RSEG BANKED_CODE:HUGECODE:NOROOT(0)
?Subroutine16:
          CFI Block cfiCond115 Using cfiCommon0
          CFI Function ZDApp_ProcessOSALMsg
          CFI Conditional ??CrossCallReturnLabel_60
          CFI R6 load(1, XDATA, add(CFA_XSP16, literal(-10)))
          CFI VB load(1, XDATA, add(CFA_XSP16, literal(-9)))
          CFI V0 load(1, XDATA, add(CFA_XSP16, literal(-8)))
          CFI V1 load(1, XDATA, add(CFA_XSP16, literal(-7)))
          CFI R7 load(1, XDATA, add(CFA_XSP16, literal(-6)))
          CFI ?RET_LOW load(1, XDATA, add(CFA_XSP16, literal(-5)))
          CFI ?RET_HIGH load(1, XDATA, add(CFA_XSP16, literal(-4)))
          CFI ?BRET_EXT load(1, XDATA, add(CFA_XSP16, literal(-3)))
          CFI DPL0 load(1, XDATA, add(CFA_XSP16, literal(-2)))
          CFI DPH0 load(1, XDATA, add(CFA_XSP16, literal(-1)))
          CFI CFA_SP SP+-2
          CFI CFA_XSP16 add(XSP16, 11)
          CFI Block cfiCond116 Using cfiCommon0
          CFI (cfiCond116) Function ZDApp_NwkDescListProcessing
          CFI (cfiCond116) Conditional ??CrossCallReturnLabel_61
          CFI (cfiCond116) R6 load(1, XDATA, add(CFA_XSP16, literal(-14)))
          CFI (cfiCond116) VB load(1, XDATA, add(CFA_XSP16, literal(-13)))
          CFI (cfiCond116) V0 load(1, XDATA, add(CFA_XSP16, literal(-12)))
          CFI (cfiCond116) V1 load(1, XDATA, add(CFA_XSP16, literal(-11)))
          CFI (cfiCond116) V2 load(1, XDATA, add(CFA_XSP16, literal(-10)))
          CFI (cfiCond116) V3 load(1, XDATA, add(CFA_XSP16, literal(-9)))
          CFI (cfiCond116) V4 load(1, XDATA, add(CFA_XSP16, literal(-8)))
          CFI (cfiCond116) V5 load(1, XDATA, add(CFA_XSP16, literal(-7)))
          CFI (cfiCond116) R7 load(1, XDATA, add(CFA_XSP16, literal(-6)))
          CFI (cfiCond116) ?RET_LOW load(1, XDATA, add(CFA_XSP16, literal(-5)))
          CFI (cfiCond116) ?RET_HIGH load(1, XDATA, add(CFA_XSP16, literal(-4)))
          CFI (cfiCond116) ?BRET_EXT load(1, XDATA, add(CFA_XSP16, literal(-3)))
          CFI (cfiCond116) DPL0 load(1, XDATA, add(CFA_XSP16, literal(-2)))
          CFI (cfiCond116) DPH0 load(1, XDATA, add(CFA_XSP16, literal(-1)))
          CFI (cfiCond116) CFA_SP SP+-2
          CFI (cfiCond116) CFA_XSP16 add(XSP16, 14)
          CFI Block cfiCond117 Using cfiCommon0
          CFI (cfiCond117) Function ZDO_beaconNotifyIndCB
          CFI (cfiCond117) Conditional ??CrossCallReturnLabel_62
          CFI (cfiCond117) R6 load(1, XDATA, add(CFA_XSP16, literal(-14)))
          CFI (cfiCond117) VB load(1, XDATA, add(CFA_XSP16, literal(-13)))
          CFI (cfiCond117) V0 load(1, XDATA, add(CFA_XSP16, literal(-12)))
          CFI (cfiCond117) V1 load(1, XDATA, add(CFA_XSP16, literal(-11)))
          CFI (cfiCond117) V2 load(1, XDATA, add(CFA_XSP16, literal(-10)))
          CFI (cfiCond117) V3 load(1, XDATA, add(CFA_XSP16, literal(-9)))
          CFI (cfiCond117) V4 load(1, XDATA, add(CFA_XSP16, literal(-8)))
          CFI (cfiCond117) V5 load(1, XDATA, add(CFA_XSP16, literal(-7)))
          CFI (cfiCond117) R7 load(1, XDATA, add(CFA_XSP16, literal(-6)))
          CFI (cfiCond117) ?RET_LOW load(1, XDATA, add(CFA_XSP16, literal(-5)))
          CFI (cfiCond117) ?RET_HIGH load(1, XDATA, add(CFA_XSP16, literal(-4)))
          CFI (cfiCond117) ?BRET_EXT load(1, XDATA, add(CFA_XSP16, literal(-3)))
          CFI (cfiCond117) DPL0 load(1, XDATA, add(CFA_XSP16, literal(-2)))
          CFI (cfiCond117) DPH0 load(1, XDATA, add(CFA_XSP16, literal(-1)))
          CFI (cfiCond117) CFA_SP SP+-2
          CFI (cfiCond117) CFA_XSP16 add(XSP16, 14)
          CFI Block cfiPicker118 Using cfiCommon1
          CFI (cfiPicker118) NoFunction
          CFI (cfiPicker118) Picker
        MOV     DPL,R6
        MOV     DPH,R7
          CFI EndBlock cfiCond115
          CFI EndBlock cfiCond116
          CFI EndBlock cfiCond117
          CFI EndBlock cfiPicker118
        REQUIRE ??Subroutine41_0
        ; // Fall through to label ??Subroutine41_0

        RSEG BANKED_CODE:HUGECODE:NOROOT(0)
??Subroutine41_0:
          CFI Block cfiCond119 Using cfiCommon0
          CFI Function ZDApp_ProcessSecEvent
          CFI Conditional ??CrossCallReturnLabel_56
          CFI R6 load(1, XDATA, add(CFA_XSP16, literal(-9)))
          CFI VB load(1, XDATA, add(CFA_XSP16, literal(-8)))
          CFI V0 load(1, XDATA, add(CFA_XSP16, literal(-7)))
          CFI R7 load(1, XDATA, add(CFA_XSP16, literal(-6)))
          CFI ?RET_LOW load(1, XDATA, add(CFA_XSP16, literal(-5)))
          CFI ?RET_HIGH load(1, XDATA, add(CFA_XSP16, literal(-4)))
          CFI ?BRET_EXT load(1, XDATA, add(CFA_XSP16, literal(-3)))
          CFI DPL0 load(1, XDATA, add(CFA_XSP16, literal(-2)))
          CFI DPH0 load(1, XDATA, add(CFA_XSP16, literal(-1)))
          CFI CFA_SP SP+-2
          CFI CFA_XSP16 add(XSP16, 9)
          CFI Block cfiCond120 Using cfiCommon0
          CFI (cfiCond120) Function ZDO_beaconNotifyIndCB
          CFI (cfiCond120) Conditional ??CrossCallReturnLabel_57
          CFI (cfiCond120) R6 load(1, XDATA, add(CFA_XSP16, literal(-14)))
          CFI (cfiCond120) VB load(1, XDATA, add(CFA_XSP16, literal(-13)))
          CFI (cfiCond120) V0 load(1, XDATA, add(CFA_XSP16, literal(-12)))
          CFI (cfiCond120) V1 load(1, XDATA, add(CFA_XSP16, literal(-11)))
          CFI (cfiCond120) V2 load(1, XDATA, add(CFA_XSP16, literal(-10)))
          CFI (cfiCond120) V3 load(1, XDATA, add(CFA_XSP16, literal(-9)))
          CFI (cfiCond120) V4 load(1, XDATA, add(CFA_XSP16, literal(-8)))
          CFI (cfiCond120) V5 load(1, XDATA, add(CFA_XSP16, literal(-7)))
          CFI (cfiCond120) R7 load(1, XDATA, add(CFA_XSP16, literal(-6)))
          CFI (cfiCond120) ?RET_LOW load(1, XDATA, add(CFA_XSP16, literal(-5)))
          CFI (cfiCond120) ?RET_HIGH load(1, XDATA, add(CFA_XSP16, literal(-4)))
          CFI (cfiCond120) ?BRET_EXT load(1, XDATA, add(CFA_XSP16, literal(-3)))
          CFI (cfiCond120) DPL0 load(1, XDATA, add(CFA_XSP16, literal(-2)))
          CFI (cfiCond120) DPH0 load(1, XDATA, add(CFA_XSP16, literal(-1)))
          CFI (cfiCond120) CFA_SP SP+-2
          CFI (cfiCond120) CFA_XSP16 add(XSP16, 14)
          CFI Block cfiCond121 Using cfiCommon0
          CFI (cfiCond121) Function ZDO_JoinConfirmCB
          CFI (cfiCond121) Conditional ??CrossCallReturnLabel_58
          CFI (cfiCond121) R6 load(1, XDATA, add(CFA_XSP16, literal(-9)))
          CFI (cfiCond121) VB load(1, XDATA, add(CFA_XSP16, literal(-8)))
          CFI (cfiCond121) V0 load(1, XDATA, add(CFA_XSP16, literal(-7)))
          CFI (cfiCond121) R7 load(1, XDATA, add(CFA_XSP16, literal(-6)))
          CFI (cfiCond121) ?RET_LOW load(1, XDATA, add(CFA_XSP16, literal(-5)))
          CFI (cfiCond121) ?RET_HIGH load(1, XDATA, add(CFA_XSP16, literal(-4)))
          CFI (cfiCond121) ?BRET_EXT load(1, XDATA, add(CFA_XSP16, literal(-3)))
          CFI (cfiCond121) DPL0 load(1, XDATA, add(CFA_XSP16, literal(-2)))
          CFI (cfiCond121) DPH0 load(1, XDATA, add(CFA_XSP16, literal(-1)))
          CFI (cfiCond121) CFA_SP SP+-2
          CFI (cfiCond121) CFA_XSP16 add(XSP16, 14)
          CFI Block cfiCond122 Using cfiCommon0
          CFI (cfiCond122) Function ZDO_JoinConfirmCB
          CFI (cfiCond122) Conditional ??CrossCallReturnLabel_59
          CFI (cfiCond122) R6 load(1, XDATA, add(CFA_XSP16, literal(-9)))
          CFI (cfiCond122) VB load(1, XDATA, add(CFA_XSP16, literal(-8)))
          CFI (cfiCond122) V0 load(1, XDATA, add(CFA_XSP16, literal(-7)))
          CFI (cfiCond122) R7 load(1, XDATA, add(CFA_XSP16, literal(-6)))
          CFI (cfiCond122) ?RET_LOW load(1, XDATA, add(CFA_XSP16, literal(-5)))
          CFI (cfiCond122) ?RET_HIGH load(1, XDATA, add(CFA_XSP16, literal(-4)))
          CFI (cfiCond122) ?BRET_EXT load(1, XDATA, add(CFA_XSP16, literal(-3)))
          CFI (cfiCond122) DPL0 load(1, XDATA, add(CFA_XSP16, literal(-2)))
          CFI (cfiCond122) DPH0 load(1, XDATA, add(CFA_XSP16, literal(-1)))
          CFI (cfiCond122) CFA_SP SP+-2
          CFI (cfiCond122) CFA_XSP16 add(XSP16, 14)
          CFI Block cfiCond123 Using cfiCommon0
          CFI (cfiCond123) Function ZDApp_ProcessOSALMsg
          CFI (cfiCond123) Conditional ??CrossCallReturnLabel_60
          CFI (cfiCond123) R6 load(1, XDATA, add(CFA_XSP16, literal(-10)))
          CFI (cfiCond123) VB load(1, XDATA, add(CFA_XSP16, literal(-9)))
          CFI (cfiCond123) V0 load(1, XDATA, add(CFA_XSP16, literal(-8)))
          CFI (cfiCond123) V1 load(1, XDATA, add(CFA_XSP16, literal(-7)))
          CFI (cfiCond123) R7 load(1, XDATA, add(CFA_XSP16, literal(-6)))
          CFI (cfiCond123) ?RET_LOW load(1, XDATA, add(CFA_XSP16, literal(-5)))
          CFI (cfiCond123) ?RET_HIGH load(1, XDATA, add(CFA_XSP16, literal(-4)))
          CFI (cfiCond123) ?BRET_EXT load(1, XDATA, add(CFA_XSP16, literal(-3)))
          CFI (cfiCond123) DPL0 load(1, XDATA, add(CFA_XSP16, literal(-2)))
          CFI (cfiCond123) DPH0 load(1, XDATA, add(CFA_XSP16, literal(-1)))
          CFI (cfiCond123) CFA_SP SP+-2
          CFI (cfiCond123) CFA_XSP16 add(XSP16, 11)
          CFI Block cfiCond124 Using cfiCommon0
          CFI (cfiCond124) Function ZDApp_NwkDescListProcessing
          CFI (cfiCond124) Conditional ??CrossCallReturnLabel_61
          CFI (cfiCond124) R6 load(1, XDATA, add(CFA_XSP16, literal(-14)))
          CFI (cfiCond124) VB load(1, XDATA, add(CFA_XSP16, literal(-13)))
          CFI (cfiCond124) V0 load(1, XDATA, add(CFA_XSP16, literal(-12)))
          CFI (cfiCond124) V1 load(1, XDATA, add(CFA_XSP16, literal(-11)))
          CFI (cfiCond124) V2 load(1, XDATA, add(CFA_XSP16, literal(-10)))
          CFI (cfiCond124) V3 load(1, XDATA, add(CFA_XSP16, literal(-9)))
          CFI (cfiCond124) V4 load(1, XDATA, add(CFA_XSP16, literal(-8)))
          CFI (cfiCond124) V5 load(1, XDATA, add(CFA_XSP16, literal(-7)))
          CFI (cfiCond124) R7 load(1, XDATA, add(CFA_XSP16, literal(-6)))
          CFI (cfiCond124) ?RET_LOW load(1, XDATA, add(CFA_XSP16, literal(-5)))
          CFI (cfiCond124) ?RET_HIGH load(1, XDATA, add(CFA_XSP16, literal(-4)))
          CFI (cfiCond124) ?BRET_EXT load(1, XDATA, add(CFA_XSP16, literal(-3)))
          CFI (cfiCond124) DPL0 load(1, XDATA, add(CFA_XSP16, literal(-2)))
          CFI (cfiCond124) DPH0 load(1, XDATA, add(CFA_XSP16, literal(-1)))
          CFI (cfiCond124) CFA_SP SP+-2
          CFI (cfiCond124) CFA_XSP16 add(XSP16, 14)
          CFI Block cfiCond125 Using cfiCommon0
          CFI (cfiCond125) Function ZDO_beaconNotifyIndCB
          CFI (cfiCond125) Conditional ??CrossCallReturnLabel_62
          CFI (cfiCond125) R6 load(1, XDATA, add(CFA_XSP16, literal(-14)))
          CFI (cfiCond125) VB load(1, XDATA, add(CFA_XSP16, literal(-13)))
          CFI (cfiCond125) V0 load(1, XDATA, add(CFA_XSP16, literal(-12)))
          CFI (cfiCond125) V1 load(1, XDATA, add(CFA_XSP16, literal(-11)))
          CFI (cfiCond125) V2 load(1, XDATA, add(CFA_XSP16, literal(-10)))
          CFI (cfiCond125) V3 load(1, XDATA, add(CFA_XSP16, literal(-9)))
          CFI (cfiCond125) V4 load(1, XDATA, add(CFA_XSP16, literal(-8)))
          CFI (cfiCond125) V5 load(1, XDATA, add(CFA_XSP16, literal(-7)))
          CFI (cfiCond125) R7 load(1, XDATA, add(CFA_XSP16, literal(-6)))
          CFI (cfiCond125) ?RET_LOW load(1, XDATA, add(CFA_XSP16, literal(-5)))
          CFI (cfiCond125) ?RET_HIGH load(1, XDATA, add(CFA_XSP16, literal(-4)))
          CFI (cfiCond125) ?BRET_EXT load(1, XDATA, add(CFA_XSP16, literal(-3)))
          CFI (cfiCond125) DPL0 load(1, XDATA, add(CFA_XSP16, literal(-2)))
          CFI (cfiCond125) DPH0 load(1, XDATA, add(CFA_XSP16, literal(-1)))
          CFI (cfiCond125) CFA_SP SP+-2
          CFI (cfiCond125) CFA_XSP16 add(XSP16, 14)
          CFI Block cfiPicker126 Using cfiCommon1
          CFI (cfiPicker126) NoFunction
          CFI (cfiPicker126) Picker
        MOVX    A,@DPTR
        MOV     R0,A
        INC     DPTR
        MOVX    A,@DPTR
        MOV     R1,A
        RET
          CFI EndBlock cfiCond119
          CFI EndBlock cfiCond120
          CFI EndBlock cfiCond121
          CFI EndBlock cfiCond122
          CFI EndBlock cfiCond123
          CFI EndBlock cfiCond124
          CFI EndBlock cfiCond125
          CFI EndBlock cfiPicker126

        RSEG BANKED_CODE:HUGECODE:NOROOT(0)
?Subroutine15:
          CFI Block cfiCond127 Using cfiCommon0
          CFI Function ZDApp_RestoreNetworkState
          CFI Conditional ??CrossCallReturnLabel_10
          CFI R6 load(1, XDATA, add(CFA_XSP16, literal(-9)))
          CFI VB load(1, XDATA, add(CFA_XSP16, literal(-8)))
          CFI V0 load(1, XDATA, add(CFA_XSP16, literal(-7)))
          CFI R7 load(1, XDATA, add(CFA_XSP16, literal(-6)))
          CFI ?RET_LOW load(1, XDATA, add(CFA_XSP16, literal(-5)))
          CFI ?RET_HIGH load(1, XDATA, add(CFA_XSP16, literal(-4)))
          CFI ?BRET_EXT load(1, XDATA, add(CFA_XSP16, literal(-3)))
          CFI DPL0 load(1, XDATA, add(CFA_XSP16, literal(-2)))
          CFI DPH0 load(1, XDATA, add(CFA_XSP16, literal(-1)))
          CFI CFA_SP SP+-2
          CFI CFA_XSP16 add(XSP16, 9)
          CFI Block cfiCond128 Using cfiCommon0
          CFI (cfiCond128) Function ZDO_NetworkDiscoveryConfirmCB
          CFI (cfiCond128) Conditional ??CrossCallReturnLabel_11
          CFI (cfiCond128) DPL0 Frame(CFA_SP, 4)
          CFI (cfiCond128) DPH0 Frame(CFA_SP, 5)
          CFI (cfiCond128) CFA_SP SP+-7
          CFI (cfiCond128) CFA_XSP16 add(XSP16, 3)
          CFI Block cfiCond129 Using cfiCommon0
          CFI (cfiCond129) Function ZDO_beaconNotifyIndCB
          CFI (cfiCond129) Conditional ??CrossCallReturnLabel_12
          CFI (cfiCond129) R6 load(1, XDATA, add(CFA_XSP16, literal(-14)))
          CFI (cfiCond129) VB load(1, XDATA, add(CFA_XSP16, literal(-13)))
          CFI (cfiCond129) V0 load(1, XDATA, add(CFA_XSP16, literal(-12)))
          CFI (cfiCond129) V1 load(1, XDATA, add(CFA_XSP16, literal(-11)))
          CFI (cfiCond129) V2 load(1, XDATA, add(CFA_XSP16, literal(-10)))
          CFI (cfiCond129) V3 load(1, XDATA, add(CFA_XSP16, literal(-9)))
          CFI (cfiCond129) V4 load(1, XDATA, add(CFA_XSP16, literal(-8)))
          CFI (cfiCond129) V5 load(1, XDATA, add(CFA_XSP16, literal(-7)))
          CFI (cfiCond129) R7 load(1, XDATA, add(CFA_XSP16, literal(-6)))
          CFI (cfiCond129) ?RET_LOW load(1, XDATA, add(CFA_XSP16, literal(-5)))
          CFI (cfiCond129) ?RET_HIGH load(1, XDATA, add(CFA_XSP16, literal(-4)))
          CFI (cfiCond129) ?BRET_EXT load(1, XDATA, add(CFA_XSP16, literal(-3)))
          CFI (cfiCond129) DPL0 load(1, XDATA, add(CFA_XSP16, literal(-2)))
          CFI (cfiCond129) DPH0 load(1, XDATA, add(CFA_XSP16, literal(-1)))
          CFI (cfiCond129) CFA_SP SP+-2
          CFI (cfiCond129) CFA_XSP16 add(XSP16, 14)
          CFI Block cfiCond130 Using cfiCommon0
          CFI (cfiCond130) Function ZDO_beaconNotifyIndCB
          CFI (cfiCond130) Conditional ??CrossCallReturnLabel_13
          CFI (cfiCond130) R6 load(1, XDATA, add(CFA_XSP16, literal(-14)))
          CFI (cfiCond130) VB load(1, XDATA, add(CFA_XSP16, literal(-13)))
          CFI (cfiCond130) V0 load(1, XDATA, add(CFA_XSP16, literal(-12)))
          CFI (cfiCond130) V1 load(1, XDATA, add(CFA_XSP16, literal(-11)))
          CFI (cfiCond130) V2 load(1, XDATA, add(CFA_XSP16, literal(-10)))
          CFI (cfiCond130) V3 load(1, XDATA, add(CFA_XSP16, literal(-9)))
          CFI (cfiCond130) V4 load(1, XDATA, add(CFA_XSP16, literal(-8)))
          CFI (cfiCond130) V5 load(1, XDATA, add(CFA_XSP16, literal(-7)))
          CFI (cfiCond130) R7 load(1, XDATA, add(CFA_XSP16, literal(-6)))
          CFI (cfiCond130) ?RET_LOW load(1, XDATA, add(CFA_XSP16, literal(-5)))
          CFI (cfiCond130) ?RET_HIGH load(1, XDATA, add(CFA_XSP16, literal(-4)))
          CFI (cfiCond130) ?BRET_EXT load(1, XDATA, add(CFA_XSP16, literal(-3)))
          CFI (cfiCond130) DPL0 load(1, XDATA, add(CFA_XSP16, literal(-2)))
          CFI (cfiCond130) DPH0 load(1, XDATA, add(CFA_XSP16, literal(-1)))
          CFI (cfiCond130) CFA_SP SP+-2
          CFI (cfiCond130) CFA_XSP16 add(XSP16, 14)
          CFI Block cfiCond131 Using cfiCommon0
          CFI (cfiCond131) Function ZDO_JoinConfirmCB
          CFI (cfiCond131) Conditional ??CrossCallReturnLabel_14
          CFI (cfiCond131) R6 load(1, XDATA, add(CFA_XSP16, literal(-9)))
          CFI (cfiCond131) VB load(1, XDATA, add(CFA_XSP16, literal(-8)))
          CFI (cfiCond131) V0 load(1, XDATA, add(CFA_XSP16, literal(-7)))
          CFI (cfiCond131) R7 load(1, XDATA, add(CFA_XSP16, literal(-6)))
          CFI (cfiCond131) ?RET_LOW load(1, XDATA, add(CFA_XSP16, literal(-5)))
          CFI (cfiCond131) ?RET_HIGH load(1, XDATA, add(CFA_XSP16, literal(-4)))
          CFI (cfiCond131) ?BRET_EXT load(1, XDATA, add(CFA_XSP16, literal(-3)))
          CFI (cfiCond131) DPL0 load(1, XDATA, add(CFA_XSP16, literal(-2)))
          CFI (cfiCond131) DPH0 load(1, XDATA, add(CFA_XSP16, literal(-1)))
          CFI (cfiCond131) CFA_SP SP+-2
          CFI (cfiCond131) CFA_XSP16 add(XSP16, 14)
          CFI Block cfiCond132 Using cfiCommon0
          CFI (cfiCond132) Function ZDO_ConcentratorIndicationCB
          CFI (cfiCond132) Conditional ??CrossCallReturnLabel_15
          CFI (cfiCond132) R6 load(1, XDATA, add(CFA_XSP16, literal(-9)))
          CFI (cfiCond132) VB load(1, XDATA, add(CFA_XSP16, literal(-8)))
          CFI (cfiCond132) V0 load(1, XDATA, add(CFA_XSP16, literal(-7)))
          CFI (cfiCond132) R7 load(1, XDATA, add(CFA_XSP16, literal(-6)))
          CFI (cfiCond132) ?RET_LOW load(1, XDATA, add(CFA_XSP16, literal(-5)))
          CFI (cfiCond132) ?RET_HIGH load(1, XDATA, add(CFA_XSP16, literal(-4)))
          CFI (cfiCond132) ?BRET_EXT load(1, XDATA, add(CFA_XSP16, literal(-3)))
          CFI (cfiCond132) DPL0 load(1, XDATA, add(CFA_XSP16, literal(-2)))
          CFI (cfiCond132) DPH0 load(1, XDATA, add(CFA_XSP16, literal(-1)))
          CFI (cfiCond132) CFA_SP SP+-2
          CFI (cfiCond132) CFA_XSP16 add(XSP16, 14)
          CFI Block cfiCond133 Using cfiCommon0
          CFI (cfiCond133) Function ZDO_SrcRtgIndCB
          CFI (cfiCond133) Conditional ??CrossCallReturnLabel_16
          CFI (cfiCond133) R6 load(1, XDATA, add(CFA_XSP16, literal(-9)))
          CFI (cfiCond133) VB load(1, XDATA, add(CFA_XSP16, literal(-8)))
          CFI (cfiCond133) V0 load(1, XDATA, add(CFA_XSP16, literal(-7)))
          CFI (cfiCond133) R7 load(1, XDATA, add(CFA_XSP16, literal(-6)))
          CFI (cfiCond133) ?RET_LOW load(1, XDATA, add(CFA_XSP16, literal(-5)))
          CFI (cfiCond133) ?RET_HIGH load(1, XDATA, add(CFA_XSP16, literal(-4)))
          CFI (cfiCond133) ?BRET_EXT load(1, XDATA, add(CFA_XSP16, literal(-3)))
          CFI (cfiCond133) DPL0 load(1, XDATA, add(CFA_XSP16, literal(-2)))
          CFI (cfiCond133) DPH0 load(1, XDATA, add(CFA_XSP16, literal(-1)))
          CFI (cfiCond133) CFA_SP SP+-2
          CFI (cfiCond133) CFA_XSP16 add(XSP16, 14)
          CFI Block cfiPicker134 Using cfiCommon1
          CFI (cfiPicker134) NoFunction
          CFI (cfiPicker134) Picker
        MOVX    A,@DPTR
        MOV     R0,A
        INC     DPTR
        MOVX    A,@DPTR
        MOV     R1,A
        MOV     A,R0
        ORL     A,R1
        RET
          CFI EndBlock cfiCond127
          CFI EndBlock cfiCond128
          CFI EndBlock cfiCond129
          CFI EndBlock cfiCond130
          CFI EndBlock cfiCond131
          CFI EndBlock cfiCond132
          CFI EndBlock cfiCond133
          CFI EndBlock cfiPicker134
// 2361 
// 2362 /*********************************************************************
// 2363  * @fn          ZDO_AddrChangeIndicationCB
// 2364  *
// 2365  * @brief       This function notifies the application that this
// 2366  *              device's address has changed.  Could happen in 
// 2367  *              a network with stochastic addressing (PRO).
// 2368  *
// 2369  * @param       newAddr - the new address
// 2370  *
// 2371  * @return      none
// 2372  */

        RSEG BANKED_CODE:HUGECODE:NOROOT(0)
// 2373 void ZDO_AddrChangeIndicationCB( uint16 newAddr )
ZDO_AddrChangeIndicationCB:
          CFI Block cfiBlock135 Using cfiCommon0
          CFI Function ZDO_AddrChangeIndicationCB
        CODE
// 2374 {
        FUNCALL ZDO_AddrChangeIndicationCB, osal_set_event
        LOCFRAME ISTACK, 2, STACK
        LOCFRAME PSTACK, 0, STACK
        LOCFRAME XSTACK, 0, STACK
        LOCFRAME IOVERLAY, 0, STATIC
        LOCFRAME DOVERLAY, 0, STATIC
        ARGFRAME ISTACK, 2, STACK
        ARGFRAME PSTACK, 0, STACK
        ARGFRAME XSTACK, 0, STACK
        ARGFRAME IOVERLAY, 0, STATIC
        ARGFRAME DOVERLAY, 0, STATIC
        FUNCALL ZDO_AddrChangeIndicationCB, ZDApp_AnnounceNewAddress
        LOCFRAME ISTACK, 2, STACK
        LOCFRAME PSTACK, 0, STACK
        LOCFRAME XSTACK, 0, STACK
        LOCFRAME IOVERLAY, 0, STATIC
        LOCFRAME DOVERLAY, 0, STATIC
        ARGFRAME ISTACK, 2, STACK
        ARGFRAME PSTACK, 0, STACK
        ARGFRAME XSTACK, 0, STACK
        ARGFRAME IOVERLAY, 0, STATIC
        ARGFRAME DOVERLAY, 0, STATIC
        PUSH    DPL
          CFI DPL0 Frame(CFA_SP, 4)
          CFI CFA_SP SP+-4
        PUSH    DPH
          CFI DPH0 Frame(CFA_SP, 5)
          CFI CFA_SP SP+-5
        ; Saved register size: 2
        ; Auto size: 0
// 2375   (void)newAddr;  // remove if this parameter is used
// 2376   
// 2377   // Notify to save info into NV
// 2378   ZDApp_NVUpdate();
// 2379 
// 2380   // Notify the applications   
// 2381   osal_set_event( ZDAppTaskID, ZDO_STATE_CHANGE_EVT );
        ; Setup parameters for call to function osal_set_event
        MOV     R2,#0x10
        MOV     R3,#0x0
        MOV     DPTR,#ZDAppTaskID
        MOVX    A,@DPTR
        MOV     R1,A
        LCALL   `??osal_set_event::?relay`; Banked call to: osal_set_event
// 2382 
// 2383   // Send out a device announce
// 2384   ZDApp_AnnounceNewAddress();
        ; Setup parameters for call to function ZDApp_AnnounceNewAddress
        LCALL   `??ZDApp_AnnounceNewAddress::?relay`; Banked call to: ZDApp_AnnounceNewAddress
// 2385 }
        LJMP    ?Subroutine3 & 0xFFFF
          CFI EndBlock cfiBlock135
// 2386 
// 2387 /*********************************************************************
// 2388  * @fn          ZDO_JoinIndicationCB
// 2389  *
// 2390  * @brief       This function allows the next higher layer of a
// 2391  *              coordinator to be notified of a remote join request.
// 2392  *
// 2393  * @param       ShortAddress - 16-bit address
// 2394  * @param       ExtendedAddress - IEEE (64-bit) address
// 2395  * @param       CapabilityFlags - Association Capability Flags
// 2396  * @param       type - of joining - 
// 2397  *                          NWK_ASSOC_JOIN
// 2398  *                          NWK_ASSOC_REJOIN_UNSECURE
// 2399  *                          NWK_ASSOC_REJOIN_SECURE
// 2400  *
// 2401  * @return      ZStatus_t
// 2402  */

        RSEG BANKED_CODE:HUGECODE:NOROOT(0)
// 2403 ZStatus_t ZDO_JoinIndicationCB(uint16 ShortAddress, uint8 *ExtendedAddress,
ZDO_JoinIndicationCB:
        CODE
// 2404                                 uint8 CapabilityFlags, uint8 type)
// 2405 {
        ; Saved register size: 0
        ; Auto size: 0
// 2406   (void)ShortAddress;
// 2407   (void)ExtendedAddress;
// 2408 #if ZDO_NV_SAVE_RFDs
// 2409   (void)CapabilityFlags;
// 2410   
// 2411 #else  // if !ZDO_NV_SAVE_RFDs
// 2412   if (CapabilityFlags & CAPINFO_DEVICETYPE_FFD)
// 2413 #endif
// 2414   {
// 2415     ZDApp_NVUpdate();  // Notify to save info into NV.
// 2416   }
// 2417 
// 2418   if (ZG_SECURE_ENABLED)  // Send notification to TC of new device.
// 2419   {
// 2420     if (type == NWK_ASSOC_JOIN || type == NWK_ASSOC_REJOIN_UNSECURE)
// 2421     {
// 2422       osal_start_timerEx( ZDAppTaskID, ZDO_NEW_DEVICE, 600 );
// 2423     }
// 2424   }
// 2425 
// 2426   return ZSuccess;
        REQUIRE ?Subroutine4
        ; // Fall through to label ?Subroutine4

        RSEG BANKED_CODE:HUGECODE:NOROOT(0)
?Subroutine4:
          CFI Block cfiBlock136 Using cfiCommon0
          CFI NoFunction
        MOV     R1,#0x0
        LJMP    ?BRET
          CFI EndBlock cfiBlock136
// 2427 }
// 2428 
// 2429 /*********************************************************************
// 2430  * @fn          ZDO_ConcentratorIndicationCB
// 2431  *
// 2432  * @brief       This function allows the next higher layer of a
// 2433  *              device to be notified of existence of the concentrator.
// 2434  *
// 2435  * @param       nwkAddr - 16-bit NWK address of the concentrator
// 2436  * @param       extAddr - pointer to extended Address
// 2437  *                        NULL if not available
// 2438  * @param       pktCost - PktCost from RREQ
// 2439  *
// 2440  * @return      void 
// 2441  */

        RSEG BANKED_CODE:HUGECODE:NOROOT(0)
// 2442 void ZDO_ConcentratorIndicationCB( uint16 nwkAddr, uint8 *extAddr, uint8 pktCost )
ZDO_ConcentratorIndicationCB:
          CFI Block cfiBlock137 Using cfiCommon0
          CFI Function ZDO_ConcentratorIndicationCB
        CODE
// 2443 {
        MOV     A,#-0x9
        LCALL   ?BANKED_ENTER_XDATA
          CFI DPH0 load(1, XDATA, add(CFA_XSP16, literal(-1)))
          CFI DPL0 load(1, XDATA, add(CFA_XSP16, literal(-2)))
          CFI ?BRET_EXT load(1, XDATA, add(CFA_XSP16, literal(-3)))
          CFI ?RET_HIGH load(1, XDATA, add(CFA_XSP16, literal(-4)))
          CFI ?RET_LOW load(1, XDATA, add(CFA_XSP16, literal(-5)))
          CFI R7 load(1, XDATA, add(CFA_XSP16, literal(-6)))
          CFI V0 load(1, XDATA, add(CFA_XSP16, literal(-7)))
          CFI VB load(1, XDATA, add(CFA_XSP16, literal(-8)))
          CFI R6 load(1, XDATA, add(CFA_XSP16, literal(-9)))
          CFI CFA_SP SP+0
          CFI CFA_XSP16 add(XSP16, 9)
        ; Saved register size: 9
        ; Auto size: 5
        MOV     A,#-0x5
        LCALL   ?ALLOC_XSTACK8
          CFI CFA_XSP16 add(XSP16, 14)
// 2444   zdoConcentratorInd_t conInd;
// 2445   
// 2446   conInd.nwkAddr = nwkAddr;
        LCALL   ?Subroutine11 & 0xFFFF
// 2447   conInd.extAddr = extAddr;
??CrossCallReturnLabel_69:
        MOV     A,#0x2
        LCALL   ?XSTACK_DISP0_8
        MOV     A,R4
        MOVX    @DPTR,A
        INC     DPTR
        MOV     A,R5
        MOVX    @DPTR,A
// 2448   conInd.pktCost = pktCost;
        MOV     A,#0x4
        LCALL   ?XSTACK_DISP0_8
        MOV     A,R1
        MOVX    @DPTR,A
// 2449   
// 2450   if( zdoCBFunc[ZDO_CONCENTRATOR_IND_CBID] != NULL )
        MOV     DPTR,#zdoCBFunc + 2
        LCALL   ?Subroutine15 & 0xFFFF
??CrossCallReturnLabel_15:
        JZ      ??ZDO_ConcentratorIndicationCB_0
// 2451   {
// 2452     zdoCBFunc[ZDO_CONCENTRATOR_IND_CBID]( (void*)&conInd );
        ; Setup parameters for indirect call
        LCALL   ?Subroutine18 & 0xFFFF
// 2453   }
??CrossCallReturnLabel_50:
        LCALL   ?CALL_IND
// 2454 }
??ZDO_ConcentratorIndicationCB_0:
        SJMP    ?Subroutine6
          CFI EndBlock cfiBlock137
// 2455 
// 2456 /*********************************************************************
// 2457  * @fn          ZDO_LeaveCnf
// 2458  *
// 2459  * @brief       This function allows the next higher layer to be
// 2460  *              notified of the results of its request for this or
// 2461  *              a child device to leave the network.
// 2462  *
// 2463  * @param       cnf - NLME_LeaveCnf_t
// 2464  *
// 2465  * @return      none
// 2466  */

        RSEG BANKED_CODE:HUGECODE:NOROOT(0)
// 2467 void ZDO_LeaveCnf( NLME_LeaveCnf_t* cnf )
ZDO_LeaveCnf:
          CFI Block cfiBlock138 Using cfiCommon0
          CFI Function ZDO_LeaveCnf
        CODE
// 2468 {
        FUNCALL ZDO_LeaveCnf, NLME_GetExtAddr
        LOCFRAME ISTACK, 0, STACK
        LOCFRAME PSTACK, 0, STACK
        LOCFRAME XSTACK, 9, STACK
        LOCFRAME IOVERLAY, 0, STATIC
        LOCFRAME DOVERLAY, 0, STATIC
        ARGFRAME ISTACK, 0, STACK
        ARGFRAME PSTACK, 0, STACK
        ARGFRAME XSTACK, 9, STACK
        ARGFRAME IOVERLAY, 0, STATIC
        ARGFRAME DOVERLAY, 0, STATIC
        FUNCALL ZDO_LeaveCnf, sAddrExtCmp
        LOCFRAME ISTACK, 0, STACK
        LOCFRAME PSTACK, 0, STACK
        LOCFRAME XSTACK, 9, STACK
        LOCFRAME IOVERLAY, 0, STATIC
        LOCFRAME DOVERLAY, 0, STATIC
        ARGFRAME ISTACK, 0, STACK
        ARGFRAME PSTACK, 0, STACK
        ARGFRAME XSTACK, 9, STACK
        ARGFRAME IOVERLAY, 0, STATIC
        ARGFRAME DOVERLAY, 0, STATIC
        FUNCALL ZDO_LeaveCnf, ZDApp_LeaveReset
        LOCFRAME ISTACK, 0, STACK
        LOCFRAME PSTACK, 0, STACK
        LOCFRAME XSTACK, 9, STACK
        LOCFRAME IOVERLAY, 0, STATIC
        LOCFRAME DOVERLAY, 0, STATIC
        ARGFRAME ISTACK, 0, STACK
        ARGFRAME PSTACK, 0, STACK
        ARGFRAME XSTACK, 9, STACK
        ARGFRAME IOVERLAY, 0, STATIC
        ARGFRAME DOVERLAY, 0, STATIC
        MOV     A,#-0x9
        LCALL   ?BANKED_ENTER_XDATA
          CFI DPH0 load(1, XDATA, add(CFA_XSP16, literal(-1)))
          CFI DPL0 load(1, XDATA, add(CFA_XSP16, literal(-2)))
          CFI ?BRET_EXT load(1, XDATA, add(CFA_XSP16, literal(-3)))
          CFI ?RET_HIGH load(1, XDATA, add(CFA_XSP16, literal(-4)))
          CFI ?RET_LOW load(1, XDATA, add(CFA_XSP16, literal(-5)))
          CFI R7 load(1, XDATA, add(CFA_XSP16, literal(-6)))
          CFI V0 load(1, XDATA, add(CFA_XSP16, literal(-7)))
          CFI VB load(1, XDATA, add(CFA_XSP16, literal(-8)))
          CFI R6 load(1, XDATA, add(CFA_XSP16, literal(-9)))
          CFI CFA_SP SP+0
          CFI CFA_XSP16 add(XSP16, 9)
        ; Saved register size: 9
        ; Auto size: 0
        MOV     A,R2
        MOV     R6,A
        MOV     A,R3
        MOV     R7,A
// 2469   // Check for this device
// 2470   if ( osal_ExtAddrEqual( cnf->extAddr,
// 2471                           NLME_GetExtAddr() ) == TRUE )
        ; Setup parameters for call to function sAddrExtCmp
        ; Setup parameters for call to function NLME_GetExtAddr
        LCALL   `??NLME_GetExtAddr::?relay`; Banked call to: NLME_GetExtAddr
        MOV     A,R2
        MOV     R4,A
        MOV     A,R3
        MOV     R5,A
        MOV     A,R6
        ADD     A,#0x2
        MOV     R2,A
        CLR     A
        ADDC    A,R7
        MOV     R3,A
        LCALL   `??sAddrExtCmp::?relay`; Banked call to: sAddrExtCmp
        MOV     A,R1
        XRL     A,#0x1
        JNZ     ??ZDO_LeaveCnf_0
// 2472   {
// 2473     // Prepare to leave with reset
// 2474     ZDApp_LeaveReset( cnf->rejoin );
        ; Setup parameters for call to function ZDApp_LeaveReset
        LCALL   ?Subroutine22 & 0xFFFF
// 2475   }
??CrossCallReturnLabel_23:
        MOV     R1,A
        LCALL   `??ZDApp_LeaveReset::?relay`; Banked call to: ZDApp_LeaveReset
// 2476   else if ( ZSTACK_ROUTER_BUILD )
// 2477   {
// 2478     // Remove device address(optionally descendents) from data
// 2479     ZDApp_LeaveUpdate( cnf->dstAddr,
// 2480                        cnf->extAddr,
// 2481                        cnf->removeChildren );
// 2482   }
// 2483 }
??ZDO_LeaveCnf_0:
        LJMP    ??Subroutine38_0 & 0xFFFF
          CFI EndBlock cfiBlock138
// 2484 
// 2485 /*********************************************************************
// 2486  * @fn          ZDO_LeaveInd
// 2487  *
// 2488  * @brief       This function allows the next higher layer of a
// 2489  *              device to be notified of a remote leave request or
// 2490  *              indication.
// 2491  *
// 2492  * @param       ind - NLME_LeaveInd_t
// 2493  *
// 2494  * @return      none
// 2495  */

        RSEG BANKED_CODE:HUGECODE:NOROOT(0)
// 2496 void ZDO_LeaveInd( NLME_LeaveInd_t* ind )
ZDO_LeaveInd:
          CFI Block cfiBlock139 Using cfiCommon0
          CFI Function ZDO_LeaveInd
        CODE
// 2497 {
        FUNCALL ZDO_LeaveInd, ZDApp_LeaveReset
        LOCFRAME ISTACK, 0, STACK
        LOCFRAME PSTACK, 0, STACK
        LOCFRAME XSTACK, 10, STACK
        LOCFRAME IOVERLAY, 0, STATIC
        LOCFRAME DOVERLAY, 0, STATIC
        ARGFRAME ISTACK, 0, STACK
        ARGFRAME PSTACK, 0, STACK
        ARGFRAME XSTACK, 10, STACK
        ARGFRAME IOVERLAY, 0, STATIC
        ARGFRAME DOVERLAY, 0, STATIC
        FUNCALL ZDO_LeaveInd, NLME_GetCoordShortAddr
        LOCFRAME ISTACK, 0, STACK
        LOCFRAME PSTACK, 0, STACK
        LOCFRAME XSTACK, 10, STACK
        LOCFRAME IOVERLAY, 0, STATIC
        LOCFRAME DOVERLAY, 0, STATIC
        ARGFRAME ISTACK, 0, STACK
        ARGFRAME PSTACK, 0, STACK
        ARGFRAME XSTACK, 10, STACK
        ARGFRAME IOVERLAY, 0, STATIC
        ARGFRAME DOVERLAY, 0, STATIC
        FUNCALL ZDO_LeaveInd, ZDApp_LeaveReset
        LOCFRAME ISTACK, 0, STACK
        LOCFRAME PSTACK, 0, STACK
        LOCFRAME XSTACK, 10, STACK
        LOCFRAME IOVERLAY, 0, STATIC
        LOCFRAME DOVERLAY, 0, STATIC
        ARGFRAME ISTACK, 0, STACK
        ARGFRAME PSTACK, 0, STACK
        ARGFRAME XSTACK, 10, STACK
        ARGFRAME IOVERLAY, 0, STATIC
        ARGFRAME DOVERLAY, 0, STATIC
        REQUIRE ?V0
        REQUIRE ?V1
        MOV     A,#-0xa
        LCALL   ?BANKED_ENTER_XDATA
          CFI DPH0 load(1, XDATA, add(CFA_XSP16, literal(-1)))
          CFI DPL0 load(1, XDATA, add(CFA_XSP16, literal(-2)))
          CFI ?BRET_EXT load(1, XDATA, add(CFA_XSP16, literal(-3)))
          CFI ?RET_HIGH load(1, XDATA, add(CFA_XSP16, literal(-4)))
          CFI ?RET_LOW load(1, XDATA, add(CFA_XSP16, literal(-5)))
          CFI R7 load(1, XDATA, add(CFA_XSP16, literal(-6)))
          CFI V1 load(1, XDATA, add(CFA_XSP16, literal(-7)))
          CFI V0 load(1, XDATA, add(CFA_XSP16, literal(-8)))
          CFI VB load(1, XDATA, add(CFA_XSP16, literal(-9)))
          CFI R6 load(1, XDATA, add(CFA_XSP16, literal(-10)))
          CFI CFA_SP SP+0
          CFI CFA_XSP16 add(XSP16, 10)
        ; Saved register size: 10
        ; Auto size: 0
        MOV     A,R2
        MOV     R6,A
        MOV     A,R3
        MOV     R7,A
// 2498   uint8 leave;
// 2499 
// 2500 
// 2501   // Parent is requesting the leave - NWK layer filters out illegal
// 2502   // requests
// 2503   if ( ind->request == TRUE )
        MOV     DPL,R6
        MOV     DPH,R7
        INC     DPTR
        INC     DPTR
        INC     DPTR
        INC     DPTR
        INC     DPTR
        INC     DPTR
        INC     DPTR
        INC     DPTR
        INC     DPTR
        INC     DPTR
        MOVX    A,@DPTR
        XRL     A,#0x1
        JZ      ??ZDO_LeaveInd_0
// 2504   {
// 2505     // Notify network of leave
// 2506     if ( ZSTACK_ROUTER_BUILD )
// 2507     {
// 2508       NLME_LeaveRsp_t rsp;
// 2509       rsp.rejoin         = ind->rejoin;
// 2510       rsp.removeChildren = ind->removeChildren;
// 2511       NLME_LeaveRsp( &rsp );
// 2512     }
// 2513 
// 2514     // Prepare to leave with reset
// 2515     ZDApp_LeaveReset( ind->rejoin );
        ; Setup parameters for call to function ZDApp_LeaveReset
// 2516   }
// 2517   else
// 2518   {
// 2519     leave = FALSE;
// 2520 
// 2521     // Check if this device needs to leave as a child or descendent
// 2522     if ( ind->srcAddr == NLME_GetCoordShortAddr() )
        ; Setup parameters for call to function NLME_GetCoordShortAddr
        LCALL   `??NLME_GetCoordShortAddr::?relay`; Banked call to: NLME_GetCoordShortAddr
        MOV     ?V0,R2
        MOV     ?V1,R3
        MOV     R0,?V0
        MOV     R1,?V1
        MOV     DPL,R6
        MOV     DPH,R7
        MOVX    A,@DPTR
        XRL     A,R0
        JNZ     ??ZDO_LeaveInd_1
        INC     DPTR
        MOVX    A,@DPTR
        XRL     A,R1
??ZDO_LeaveInd_1:
        JNZ     ??ZDO_LeaveInd_2
// 2523     {
// 2524       if ( ( ind->removeChildren == TRUE               ) ||
// 2525            ( ZDO_Config_Node_Descriptor.LogicalType ==
// 2526              NODETYPE_DEVICE                           )    )
        LCALL   ?Subroutine22 & 0xFFFF
??CrossCallReturnLabel_24:
        XRL     A,#0x1
        JZ      ??ZDO_LeaveInd_0
        MOV     DPTR,#ZDO_Config_Node_Descriptor
        MOVX    A,@DPTR
        ANL     A,#0x7
        XRL     A,#0x2
        JNZ     ??ZDO_LeaveInd_2
// 2527       {
// 2528         leave = TRUE;
// 2529       }
// 2530     }
// 2531     else if ( ind->removeChildren == TRUE )
// 2532     {
// 2533       // Check NWK address allocation algorithm
// 2534       //leave = RTG_ANCESTOR(nwkAddr,thisAddr);
// 2535     }
// 2536 
// 2537     if ( leave == TRUE )
// 2538     {
// 2539       // Prepare to leave with reset
// 2540       ZDApp_LeaveReset( ind->rejoin );
??ZDO_LeaveInd_0:
        ; Setup parameters for call to function ZDApp_LeaveReset
        LCALL   ?Subroutine26 & 0xFFFF
// 2541     }
// 2542     else
// 2543     {
// 2544       // Remove device address(optionally descendents) from data
// 2545       ZDApp_LeaveUpdate( ind->srcAddr,
// 2546                          ind->extAddr,
// 2547                          ind->removeChildren );
// 2548     }
// 2549   }
??CrossCallReturnLabel_30:
        MOV     R1,A
        LCALL   `??ZDApp_LeaveReset::?relay`; Banked call to: ZDApp_LeaveReset
// 2550 }
??ZDO_LeaveInd_2:
        LJMP    ??Subroutine35_0 & 0xFFFF
          CFI EndBlock cfiBlock139

        RSEG BANKED_CODE:HUGECODE:NOROOT(0)
?Subroutine22:
          CFI Block cfiCond140 Using cfiCommon0
          CFI Function ZDO_LeaveCnf
          CFI Conditional ??CrossCallReturnLabel_23
          CFI R6 load(1, XDATA, add(CFA_XSP16, literal(-9)))
          CFI VB load(1, XDATA, add(CFA_XSP16, literal(-8)))
          CFI V0 load(1, XDATA, add(CFA_XSP16, literal(-7)))
          CFI R7 load(1, XDATA, add(CFA_XSP16, literal(-6)))
          CFI ?RET_LOW load(1, XDATA, add(CFA_XSP16, literal(-5)))
          CFI ?RET_HIGH load(1, XDATA, add(CFA_XSP16, literal(-4)))
          CFI ?BRET_EXT load(1, XDATA, add(CFA_XSP16, literal(-3)))
          CFI DPL0 load(1, XDATA, add(CFA_XSP16, literal(-2)))
          CFI DPH0 load(1, XDATA, add(CFA_XSP16, literal(-1)))
          CFI CFA_SP SP+-2
          CFI CFA_XSP16 add(XSP16, 9)
          CFI Block cfiCond141 Using cfiCommon0
          CFI (cfiCond141) Function ZDO_LeaveInd
          CFI (cfiCond141) Conditional ??CrossCallReturnLabel_24
          CFI (cfiCond141) R6 load(1, XDATA, add(CFA_XSP16, literal(-10)))
          CFI (cfiCond141) VB load(1, XDATA, add(CFA_XSP16, literal(-9)))
          CFI (cfiCond141) V0 load(1, XDATA, add(CFA_XSP16, literal(-8)))
          CFI (cfiCond141) V1 load(1, XDATA, add(CFA_XSP16, literal(-7)))
          CFI (cfiCond141) R7 load(1, XDATA, add(CFA_XSP16, literal(-6)))
          CFI (cfiCond141) ?RET_LOW load(1, XDATA, add(CFA_XSP16, literal(-5)))
          CFI (cfiCond141) ?RET_HIGH load(1, XDATA, add(CFA_XSP16, literal(-4)))
          CFI (cfiCond141) ?BRET_EXT load(1, XDATA, add(CFA_XSP16, literal(-3)))
          CFI (cfiCond141) DPL0 load(1, XDATA, add(CFA_XSP16, literal(-2)))
          CFI (cfiCond141) DPH0 load(1, XDATA, add(CFA_XSP16, literal(-1)))
          CFI (cfiCond141) CFA_SP SP+-2
          CFI (cfiCond141) CFA_XSP16 add(XSP16, 10)
          CFI Block cfiCond142 Using cfiCommon0
          CFI (cfiCond142) Function ZDApp_InMsgCB
          CFI (cfiCond142) Conditional ??CrossCallReturnLabel_25
          CFI (cfiCond142) R6 load(1, XDATA, add(CFA_XSP16, literal(-10)))
          CFI (cfiCond142) VB load(1, XDATA, add(CFA_XSP16, literal(-9)))
          CFI (cfiCond142) V0 load(1, XDATA, add(CFA_XSP16, literal(-8)))
          CFI (cfiCond142) V1 load(1, XDATA, add(CFA_XSP16, literal(-7)))
          CFI (cfiCond142) R7 load(1, XDATA, add(CFA_XSP16, literal(-6)))
          CFI (cfiCond142) ?RET_LOW load(1, XDATA, add(CFA_XSP16, literal(-5)))
          CFI (cfiCond142) ?RET_HIGH load(1, XDATA, add(CFA_XSP16, literal(-4)))
          CFI (cfiCond142) ?BRET_EXT load(1, XDATA, add(CFA_XSP16, literal(-3)))
          CFI (cfiCond142) DPL0 load(1, XDATA, add(CFA_XSP16, literal(-2)))
          CFI (cfiCond142) DPH0 load(1, XDATA, add(CFA_XSP16, literal(-1)))
          CFI (cfiCond142) CFA_SP SP+-2
          CFI (cfiCond142) CFA_XSP16 add(XSP16, 10)
          CFI Block cfiPicker143 Using cfiCommon1
          CFI (cfiPicker143) NoFunction
          CFI (cfiPicker143) Picker
        MOV     A,R6
        ADD     A,#0xb
        MOV     DPL,A
        CLR     A
        ADDC    A,R7
        MOV     DPH,A
        MOVX    A,@DPTR
        RET
          CFI EndBlock cfiCond140
          CFI EndBlock cfiCond141
          CFI EndBlock cfiCond142
          CFI EndBlock cfiPicker143
// 2551 
// 2552 /*********************************************************************
// 2553  * @fn          ZDO_SyncIndicationCB
// 2554  *
// 2555  * @brief       This function allows the next higher layer of a
// 2556  *              coordinator to be notified of a loss of synchronization
// 2557  *                          with the parent/child device.
// 2558  *
// 2559  * @param       type: 0 - child; 1 - parent
// 2560  *
// 2561  *
// 2562  * @return      none
// 2563  */

        RSEG BANKED_CODE:HUGECODE:NOROOT(0)
// 2564 void ZDO_SyncIndicationCB( uint8 type, uint16 shortAddr )
ZDO_SyncIndicationCB:
          CFI Block cfiBlock144 Using cfiCommon0
          CFI Function ZDO_SyncIndicationCB
        CODE
// 2565 {
        FUNCALL ZDO_SyncIndicationCB, nwkNeighborInitTable
        LOCFRAME ISTACK, 0, STACK
        LOCFRAME PSTACK, 0, STACK
        LOCFRAME XSTACK, 9, STACK
        LOCFRAME IOVERLAY, 0, STATIC
        LOCFRAME DOVERLAY, 0, STATIC
        ARGFRAME ISTACK, 0, STACK
        ARGFRAME PSTACK, 0, STACK
        ARGFRAME XSTACK, 9, STACK
        ARGFRAME IOVERLAY, 0, STATIC
        ARGFRAME DOVERLAY, 0, STATIC
        FUNCALL ZDO_SyncIndicationCB, ZDApp_SendMsg
        LOCFRAME ISTACK, 0, STACK
        LOCFRAME PSTACK, 0, STACK
        LOCFRAME XSTACK, 9, STACK
        LOCFRAME IOVERLAY, 0, STATIC
        LOCFRAME DOVERLAY, 0, STATIC
        ARGFRAME ISTACK, 0, STACK
        ARGFRAME PSTACK, 0, STACK
        ARGFRAME XSTACK, 9, STACK
        ARGFRAME IOVERLAY, 0, STATIC
        ARGFRAME DOVERLAY, 0, STATIC
        MOV     A,#-0x9
        LCALL   ?BANKED_ENTER_XDATA
          CFI DPH0 load(1, XDATA, add(CFA_XSP16, literal(-1)))
          CFI DPL0 load(1, XDATA, add(CFA_XSP16, literal(-2)))
          CFI ?BRET_EXT load(1, XDATA, add(CFA_XSP16, literal(-3)))
          CFI ?RET_HIGH load(1, XDATA, add(CFA_XSP16, literal(-4)))
          CFI ?RET_LOW load(1, XDATA, add(CFA_XSP16, literal(-5)))
          CFI R7 load(1, XDATA, add(CFA_XSP16, literal(-6)))
          CFI V0 load(1, XDATA, add(CFA_XSP16, literal(-7)))
          CFI VB load(1, XDATA, add(CFA_XSP16, literal(-8)))
          CFI R6 load(1, XDATA, add(CFA_XSP16, literal(-9)))
          CFI CFA_SP SP+0
          CFI CFA_XSP16 add(XSP16, 9)
        ; Saved register size: 9
        ; Auto size: 0
        MOV     A,R1
        MOV     R6,A
// 2566   (void)shortAddr;  // Remove this line if this parameter is used.
// 2567   
// 2568   if ( ZSTACK_END_DEVICE_BUILD
// 2569     || (ZSTACK_ROUTER_BUILD && ((_NIB.CapabilityFlags & ZMAC_ASSOC_CAPINFO_FFD_TYPE) == 0)))
// 2570   {
// 2571     if ( type == 1 )
        MOV     A,#0x1
        XRL     A,R6
        JNZ     ??ZDO_SyncIndicationCB_0
// 2572     {
// 2573       // We lost contact with our parent.  Clear the neighbor Table.
// 2574       nwkNeighborInitTable();
        ; Setup parameters for call to function nwkNeighborInitTable
        LCALL   `??nwkNeighborInitTable::?relay`; Banked call to: nwkNeighborInitTable
// 2575       
// 2576       // Start the rejoin process.
// 2577       ZDApp_SendMsg( ZDAppTaskID, ZDO_NWK_JOIN_REQ, sizeof(osal_event_hdr_t), NULL );
        ; Setup parameters for call to function ZDApp_SendMsg
        MOV     R4,#0x0
        MOV     R5,#0x0
        MOV     R3,#0x2
        MOV     R2,#0x3
        MOV     DPTR,#ZDAppTaskID
        MOVX    A,@DPTR
        MOV     R1,A
        LCALL   `??ZDApp_SendMsg::?relay`; Banked call to: ZDApp_SendMsg
// 2578     }
// 2579   }
// 2580 }
??ZDO_SyncIndicationCB_0:
        LJMP    ??Subroutine38_0 & 0xFFFF
          CFI EndBlock cfiBlock144
// 2581 
// 2582 /*********************************************************************
// 2583  * @fn          ZDO_ManytoOneFailureIndicationCB
// 2584  *
// 2585  * @brief       This function allows the next higher layer of a
// 2586  *              concentrator to be notified of a many-to-one route 
// 2587  *              failure. 
// 2588  *
// 2589  * @param       none
// 2590  *
// 2591  *
// 2592  * @return      none
// 2593  */

        RSEG BANKED_CODE:HUGECODE:NOROOT(0)
// 2594 void ZDO_ManytoOneFailureIndicationCB()
ZDO_ManytoOneFailureIndicationCB:
          CFI Block cfiBlock145 Using cfiCommon0
          CFI Function ZDO_ManytoOneFailureIndicationCB
        CODE
// 2595 {
        FUNCALL ZDO_ManytoOneFailureIndicationCB, RTG_MTORouteReq
        LOCFRAME ISTACK, 2, STACK
        LOCFRAME PSTACK, 0, STACK
        LOCFRAME XSTACK, 0, STACK
        LOCFRAME IOVERLAY, 0, STATIC
        LOCFRAME DOVERLAY, 0, STATIC
        ARGFRAME ISTACK, 2, STACK
        ARGFRAME PSTACK, 0, STACK
        ARGFRAME XSTACK, 0, STACK
        ARGFRAME IOVERLAY, 0, STATIC
        ARGFRAME DOVERLAY, 0, STATIC
        PUSH    DPL
          CFI DPL0 Frame(CFA_SP, 4)
          CFI CFA_SP SP+-4
        PUSH    DPH
          CFI DPH0 Frame(CFA_SP, 5)
          CFI CFA_SP SP+-5
        ; Saved register size: 2
        ; Auto size: 0
// 2596   // By default, the concentrator automatically redo many-to-one route 
// 2597   // discovery to update all many-to-one routes in the network
// 2598   // If you want anything processing other than the default,
// 2599   // please replace the following code.
// 2600   
// 2601   RTG_MTORouteReq();
        ; Setup parameters for call to function RTG_MTORouteReq
        LCALL   `??RTG_MTORouteReq::?relay`; Banked call to: RTG_MTORouteReq
// 2602 }
        LJMP    ?Subroutine3 & 0xFFFF
          CFI EndBlock cfiBlock145
// 2603 
// 2604 /*********************************************************************
// 2605  * @fn          ZDO_PollConfirmCB
// 2606  *
// 2607  * @brief       This function allows the next higher layer to be
// 2608  *              notified of a Poll Confirm.
// 2609  *
// 2610  * @param       none
// 2611  *
// 2612  * @return      none
// 2613  */

        RSEG BANKED_CODE:HUGECODE:NOROOT(0)
// 2614 void ZDO_PollConfirmCB( uint8 status )
ZDO_PollConfirmCB:
          CFI Block cfiBlock146 Using cfiCommon0
          CFI Function ZDO_PollConfirmCB
        CODE
// 2615 {
        ; Saved register size: 0
        ; Auto size: 0
// 2616   (void)status;  // Remove this line if this parameter is used.
// 2617   return;
        LJMP    ?BRET
// 2618 }
          CFI EndBlock cfiBlock146
// 2619 
// 2620 /******************************************************************************
// 2621  * @fn          ZDApp_NwkWriteNVRequest (stubs AddrMgrWriteNVRequest)
// 2622  *
// 2623  * @brief       Stub routine implemented by NHLE. NHLE should call
// 2624  *              <AddrMgrWriteNV> when appropriate.
// 2625  *
// 2626  * @param       none
// 2627  *
// 2628  * @return      none
// 2629  */

        RSEG BANKED_CODE:HUGECODE:NOROOT(0)
// 2630 void ZDApp_NwkWriteNVRequest( void )
AddrMgrWriteNVRequest:
          CFI Block cfiBlock147 Using cfiCommon0
          CFI Function AddrMgrWriteNVRequest
        CODE
// 2631 {
        ; Saved register size: 0
        ; Auto size: 0
// 2632 #if defined ( NV_RESTORE )  
// 2633   if ( !osal_get_timeoutEx( ZDAppTaskID, ZDO_NWK_UPDATE_NV ) )
// 2634   {
// 2635     // Trigger to save info into NV
// 2636     ZDApp_NVUpdate();
// 2637   }
// 2638 #endif
// 2639 }
        LJMP    ?BRET
          CFI EndBlock cfiBlock147
// 2640 
// 2641 /*********************************************************************
// 2642  * Call Back Functions from Security  - API
// 2643  */
// 2644 
// 2645  /*********************************************************************
// 2646  * @fn          ZDO_UpdateDeviceIndication
// 2647  *
// 2648  * @brief       This function notifies the "Trust Center" of a
// 2649  *              network when a device joins or leaves the network.
// 2650  *
// 2651  * @param       extAddr - pointer to 64 bit address of new device
// 2652  * @param       status  - 0 if a new device joined securely
// 2653  *                      - 1 if a new device joined un-securely
// 2654  *                      - 2 if a device left the network
// 2655  *
// 2656  * @return      true if newly joined device should be allowed to
// 2657  *                                              remain on network
// 2658  */

        RSEG BANKED_CODE:HUGECODE:NOROOT(0)
// 2659 ZStatus_t ZDO_UpdateDeviceIndication( uint8 *extAddr, uint8 status )
ZDO_UpdateDeviceIndication:
          CFI Block cfiBlock148 Using cfiCommon0
          CFI Function ZDO_UpdateDeviceIndication
        CODE
// 2660 {
        ; Saved register size: 0
        ; Auto size: 0
// 2661   // can implement a network access policy based on the
// 2662   // IEEE address of newly joining devices...
// 2663   (void)extAddr;
// 2664   (void)status;
// 2665   
// 2666   return ZSuccess;
        LJMP    ?Subroutine4 & 0xFFFF
// 2667 }
          CFI EndBlock cfiBlock148
// 2668 
// 2669 /*********************************************************************
// 2670  * @fn          ZDApp_InMsgCB
// 2671  *
// 2672  * @brief       This function is called to pass up any message that is
// 2673  *              not yet supported.  This allows for the developer to
// 2674  *              support features themselves..
// 2675  *
// 2676  * @return      none
// 2677  */

        RSEG BANKED_CODE:HUGECODE:NOROOT(0)
// 2678 void ZDApp_InMsgCB( zdoIncomingMsg_t *inMsg )
ZDApp_InMsgCB:
          CFI Block cfiBlock149 Using cfiCommon0
          CFI Function ZDApp_InMsgCB
        CODE
// 2679 {
        FUNCALL ZDApp_InMsgCB, ZDP_GenericRsp
        LOCFRAME ISTACK, 0, STACK
        LOCFRAME PSTACK, 0, STACK
        LOCFRAME XSTACK, 14, STACK
        LOCFRAME IOVERLAY, 0, STATIC
        LOCFRAME DOVERLAY, 0, STATIC
        ARGFRAME ISTACK, 0, STACK
        ARGFRAME PSTACK, 0, STACK
        ARGFRAME XSTACK, 14, STACK
        ARGFRAME IOVERLAY, 0, STATIC
        ARGFRAME DOVERLAY, 0, STATIC
        REQUIRE ?V0
        REQUIRE ?V1
        MOV     A,#-0xa
        LCALL   ?BANKED_ENTER_XDATA
          CFI DPH0 load(1, XDATA, add(CFA_XSP16, literal(-1)))
          CFI DPL0 load(1, XDATA, add(CFA_XSP16, literal(-2)))
          CFI ?BRET_EXT load(1, XDATA, add(CFA_XSP16, literal(-3)))
          CFI ?RET_HIGH load(1, XDATA, add(CFA_XSP16, literal(-4)))
          CFI ?RET_LOW load(1, XDATA, add(CFA_XSP16, literal(-5)))
          CFI R7 load(1, XDATA, add(CFA_XSP16, literal(-6)))
          CFI V1 load(1, XDATA, add(CFA_XSP16, literal(-7)))
          CFI V0 load(1, XDATA, add(CFA_XSP16, literal(-8)))
          CFI VB load(1, XDATA, add(CFA_XSP16, literal(-9)))
          CFI R6 load(1, XDATA, add(CFA_XSP16, literal(-10)))
          CFI CFA_SP SP+0
          CFI CFA_XSP16 add(XSP16, 10)
        ; Saved register size: 10
        ; Auto size: 0
        MOV     A,R2
        MOV     R6,A
        MOV     A,R3
        MOV     R7,A
// 2680   if ( inMsg->clusterID & ZDO_RESPONSE_BIT )
        LCALL   ?Subroutine32 & 0xFFFF
??CrossCallReturnLabel_42:
        INC     DPTR
        MOVX    A,@DPTR
        ANL     A,#0x80
        JNZ     ??ZDApp_InMsgCB_0
// 2681   {
// 2682     // Handle the response message
// 2683   }
// 2684   else
// 2685   {
// 2686     // Handle the request message by sending a generic "not supported".
// 2687     // Device Announce doesn't have a response.
// 2688     if ( !(inMsg->wasBroadcast) && inMsg->clusterID != Device_annce )
        LCALL   ?Subroutine22 & 0xFFFF
??CrossCallReturnLabel_25:
        JNZ     ??ZDApp_InMsgCB_0
        LCALL   ?Subroutine26 & 0xFFFF
??CrossCallReturnLabel_31:
        XRL     A,#0x13
        JNZ     ??ZDApp_InMsgCB_1
        INC     DPTR
        MOVX    A,@DPTR
??ZDApp_InMsgCB_1:
        JZ      ??ZDApp_InMsgCB_0
// 2689     {
// 2690       ZDP_GenericRsp( inMsg->TransSeq, &(inMsg->srcAddr), ZDP_NOT_SUPPORTED, 0,
// 2691                       (uint16)(inMsg->clusterID | ZDO_RESPONSE_BIT), inMsg->SecurityUse );
        ; Setup parameters for call to function ZDP_GenericRsp
        LCALL   ?Subroutine23 & 0xFFFF
// 2692     }
// 2693   }
??CrossCallReturnLabel_27:
        ORL     A,#0x80
        MOV     ?V1,A
        MOV     R0,#?V0
        LCALL   ?PUSH_XSTACK_I_TWO
          CFI CFA_XSP16 add(XSP16, 12)
        CLR     A
        MOV     ?V0,A
        MOV     ?V1,A
        MOV     R0,#?V0
        LCALL   ?PUSH_XSTACK_I_TWO
          CFI CFA_XSP16 add(XSP16, 14)
        MOV     A,R6
        ADD     A,#0xe
        MOV     DPL,A
        CLR     A
        ADDC    A,R7
        MOV     DPH,A
        MOVX    A,@DPTR
        MOV     R5,A
        MOV     R4,#-0x7c
        MOV     A,R6
        ADD     A,#0x2
        MOV     R2,A
        CLR     A
        ADDC    A,R7
        MOV     R3,A
        MOV     A,R6
        ADD     A,#0xf
        MOV     DPL,A
        CLR     A
        ADDC    A,R7
        MOV     DPH,A
        MOVX    A,@DPTR
        MOV     R1,A
        LCALL   `??ZDP_GenericRsp::?relay`; Banked call to: ZDP_GenericRsp
        MOV     A,#0x4
        LCALL   ?DEALLOC_XSTACK8
          CFI CFA_XSP16 add(XSP16, 10)
// 2694 }
??ZDApp_InMsgCB_0:
        LJMP    ??Subroutine35_0 & 0xFFFF
          CFI EndBlock cfiBlock149

        RSEG BANKED_CODE:HUGECODE:NOROOT(0)
?Subroutine26:
          CFI Block cfiCond150 Using cfiCommon0
          CFI Function ZDO_LeaveInd
          CFI Conditional ??CrossCallReturnLabel_30
          CFI R6 load(1, XDATA, add(CFA_XSP16, literal(-10)))
          CFI VB load(1, XDATA, add(CFA_XSP16, literal(-9)))
          CFI V0 load(1, XDATA, add(CFA_XSP16, literal(-8)))
          CFI V1 load(1, XDATA, add(CFA_XSP16, literal(-7)))
          CFI R7 load(1, XDATA, add(CFA_XSP16, literal(-6)))
          CFI ?RET_LOW load(1, XDATA, add(CFA_XSP16, literal(-5)))
          CFI ?RET_HIGH load(1, XDATA, add(CFA_XSP16, literal(-4)))
          CFI ?BRET_EXT load(1, XDATA, add(CFA_XSP16, literal(-3)))
          CFI DPL0 load(1, XDATA, add(CFA_XSP16, literal(-2)))
          CFI DPH0 load(1, XDATA, add(CFA_XSP16, literal(-1)))
          CFI CFA_SP SP+-2
          CFI CFA_XSP16 add(XSP16, 10)
          CFI Block cfiCond151 Using cfiCommon0
          CFI (cfiCond151) Function ZDApp_InMsgCB
          CFI (cfiCond151) Conditional ??CrossCallReturnLabel_31
          CFI (cfiCond151) R6 load(1, XDATA, add(CFA_XSP16, literal(-10)))
          CFI (cfiCond151) VB load(1, XDATA, add(CFA_XSP16, literal(-9)))
          CFI (cfiCond151) V0 load(1, XDATA, add(CFA_XSP16, literal(-8)))
          CFI (cfiCond151) V1 load(1, XDATA, add(CFA_XSP16, literal(-7)))
          CFI (cfiCond151) R7 load(1, XDATA, add(CFA_XSP16, literal(-6)))
          CFI (cfiCond151) ?RET_LOW load(1, XDATA, add(CFA_XSP16, literal(-5)))
          CFI (cfiCond151) ?RET_HIGH load(1, XDATA, add(CFA_XSP16, literal(-4)))
          CFI (cfiCond151) ?BRET_EXT load(1, XDATA, add(CFA_XSP16, literal(-3)))
          CFI (cfiCond151) DPL0 load(1, XDATA, add(CFA_XSP16, literal(-2)))
          CFI (cfiCond151) DPH0 load(1, XDATA, add(CFA_XSP16, literal(-1)))
          CFI (cfiCond151) CFA_SP SP+-2
          CFI (cfiCond151) CFA_XSP16 add(XSP16, 10)
          CFI Block cfiPicker152 Using cfiCommon1
          CFI (cfiPicker152) NoFunction
          CFI (cfiPicker152) Picker
        LCALL   ?Subroutine31 & 0xFFFF
??CrossCallReturnLabel_41:
        RET
          CFI EndBlock cfiCond150
          CFI EndBlock cfiCond151
          CFI EndBlock cfiPicker152

        RSEG BANKED_CODE:HUGECODE:NOROOT(0)
?Subroutine31:
          CFI Block cfiCond153 Using cfiCommon0
          CFI Function ZDO_LeaveInd
          CFI Conditional ??CrossCallReturnLabel_41, ??CrossCallReturnLabel_30
          CFI R6 load(1, XDATA, add(CFA_XSP16, literal(-10)))
          CFI VB load(1, XDATA, add(CFA_XSP16, literal(-9)))
          CFI V0 load(1, XDATA, add(CFA_XSP16, literal(-8)))
          CFI V1 load(1, XDATA, add(CFA_XSP16, literal(-7)))
          CFI R7 load(1, XDATA, add(CFA_XSP16, literal(-6)))
          CFI ?RET_LOW load(1, XDATA, add(CFA_XSP16, literal(-5)))
          CFI ?RET_HIGH load(1, XDATA, add(CFA_XSP16, literal(-4)))
          CFI ?BRET_EXT load(1, XDATA, add(CFA_XSP16, literal(-3)))
          CFI DPL0 load(1, XDATA, add(CFA_XSP16, literal(-2)))
          CFI DPH0 load(1, XDATA, add(CFA_XSP16, literal(-1)))
          CFI CFA_SP SP+-4
          CFI CFA_XSP16 add(XSP16, 10)
          CFI Block cfiCond154 Using cfiCommon0
          CFI (cfiCond154) Function ZDApp_InMsgCB
          CFI (cfiCond154) Conditional ??CrossCallReturnLabel_41, ??CrossCallReturnLabel_31
          CFI (cfiCond154) R6 load(1, XDATA, add(CFA_XSP16, literal(-10)))
          CFI (cfiCond154) VB load(1, XDATA, add(CFA_XSP16, literal(-9)))
          CFI (cfiCond154) V0 load(1, XDATA, add(CFA_XSP16, literal(-8)))
          CFI (cfiCond154) V1 load(1, XDATA, add(CFA_XSP16, literal(-7)))
          CFI (cfiCond154) R7 load(1, XDATA, add(CFA_XSP16, literal(-6)))
          CFI (cfiCond154) ?RET_LOW load(1, XDATA, add(CFA_XSP16, literal(-5)))
          CFI (cfiCond154) ?RET_HIGH load(1, XDATA, add(CFA_XSP16, literal(-4)))
          CFI (cfiCond154) ?BRET_EXT load(1, XDATA, add(CFA_XSP16, literal(-3)))
          CFI (cfiCond154) DPL0 load(1, XDATA, add(CFA_XSP16, literal(-2)))
          CFI (cfiCond154) DPH0 load(1, XDATA, add(CFA_XSP16, literal(-1)))
          CFI (cfiCond154) CFA_SP SP+-4
          CFI (cfiCond154) CFA_XSP16 add(XSP16, 10)
          CFI Block cfiCond155 Using cfiCommon0
          CFI (cfiCond155) Function ZDApp_ProcessMsgCBs
          CFI (cfiCond155) Conditional ??CrossCallReturnLabel_40, ??CrossCallReturnLabel_26
          CFI (cfiCond155) R6 load(1, XDATA, add(CFA_XSP16, literal(-10)))
          CFI (cfiCond155) VB load(1, XDATA, add(CFA_XSP16, literal(-9)))
          CFI (cfiCond155) V0 load(1, XDATA, add(CFA_XSP16, literal(-8)))
          CFI (cfiCond155) V1 load(1, XDATA, add(CFA_XSP16, literal(-7)))
          CFI (cfiCond155) R7 load(1, XDATA, add(CFA_XSP16, literal(-6)))
          CFI (cfiCond155) ?RET_LOW load(1, XDATA, add(CFA_XSP16, literal(-5)))
          CFI (cfiCond155) ?RET_HIGH load(1, XDATA, add(CFA_XSP16, literal(-4)))
          CFI (cfiCond155) ?BRET_EXT load(1, XDATA, add(CFA_XSP16, literal(-3)))
          CFI (cfiCond155) DPL0 load(1, XDATA, add(CFA_XSP16, literal(-2)))
          CFI (cfiCond155) DPH0 load(1, XDATA, add(CFA_XSP16, literal(-1)))
          CFI (cfiCond155) CFA_SP SP+-4
          CFI (cfiCond155) CFA_XSP16 add(XSP16, 31)
          CFI Block cfiCond156 Using cfiCommon0
          CFI (cfiCond156) Function ZDApp_InMsgCB
          CFI (cfiCond156) Conditional ??CrossCallReturnLabel_40, ??CrossCallReturnLabel_27
          CFI (cfiCond156) R6 load(1, XDATA, add(CFA_XSP16, literal(-10)))
          CFI (cfiCond156) VB load(1, XDATA, add(CFA_XSP16, literal(-9)))
          CFI (cfiCond156) V0 load(1, XDATA, add(CFA_XSP16, literal(-8)))
          CFI (cfiCond156) V1 load(1, XDATA, add(CFA_XSP16, literal(-7)))
          CFI (cfiCond156) R7 load(1, XDATA, add(CFA_XSP16, literal(-6)))
          CFI (cfiCond156) ?RET_LOW load(1, XDATA, add(CFA_XSP16, literal(-5)))
          CFI (cfiCond156) ?RET_HIGH load(1, XDATA, add(CFA_XSP16, literal(-4)))
          CFI (cfiCond156) ?BRET_EXT load(1, XDATA, add(CFA_XSP16, literal(-3)))
          CFI (cfiCond156) DPL0 load(1, XDATA, add(CFA_XSP16, literal(-2)))
          CFI (cfiCond156) DPH0 load(1, XDATA, add(CFA_XSP16, literal(-1)))
          CFI (cfiCond156) CFA_SP SP+-4
          CFI (cfiCond156) CFA_XSP16 add(XSP16, 10)
          CFI Block cfiPicker157 Using cfiCommon1
          CFI (cfiPicker157) NoFunction
          CFI (cfiPicker157) Picker
        LCALL   ?Subroutine32 & 0xFFFF
??CrossCallReturnLabel_43:
        MOVX    A,@DPTR
        RET
          CFI EndBlock cfiCond153
          CFI EndBlock cfiCond154
          CFI EndBlock cfiCond155
          CFI EndBlock cfiCond156
          CFI EndBlock cfiPicker157

        RSEG BANKED_CODE:HUGECODE:NOROOT(0)
?Subroutine32:
          CFI Block cfiCond158 Using cfiCommon0
          CFI Function ZDApp_InMsgCB
          CFI Conditional ??CrossCallReturnLabel_42
          CFI R6 load(1, XDATA, add(CFA_XSP16, literal(-10)))
          CFI VB load(1, XDATA, add(CFA_XSP16, literal(-9)))
          CFI V0 load(1, XDATA, add(CFA_XSP16, literal(-8)))
          CFI V1 load(1, XDATA, add(CFA_XSP16, literal(-7)))
          CFI R7 load(1, XDATA, add(CFA_XSP16, literal(-6)))
          CFI ?RET_LOW load(1, XDATA, add(CFA_XSP16, literal(-5)))
          CFI ?RET_HIGH load(1, XDATA, add(CFA_XSP16, literal(-4)))
          CFI ?BRET_EXT load(1, XDATA, add(CFA_XSP16, literal(-3)))
          CFI DPL0 load(1, XDATA, add(CFA_XSP16, literal(-2)))
          CFI DPH0 load(1, XDATA, add(CFA_XSP16, literal(-1)))
          CFI CFA_SP SP+-2
          CFI CFA_XSP16 add(XSP16, 10)
          CFI Block cfiCond159 Using cfiCommon0
          CFI (cfiCond159) Function ZDO_LeaveInd
          CFI (cfiCond159) Conditional ??CrossCallReturnLabel_43, ??CrossCallReturnLabel_41, ??CrossCallReturnLabel_30
          CFI (cfiCond159) R6 load(1, XDATA, add(CFA_XSP16, literal(-10)))
          CFI (cfiCond159) VB load(1, XDATA, add(CFA_XSP16, literal(-9)))
          CFI (cfiCond159) V0 load(1, XDATA, add(CFA_XSP16, literal(-8)))
          CFI (cfiCond159) V1 load(1, XDATA, add(CFA_XSP16, literal(-7)))
          CFI (cfiCond159) R7 load(1, XDATA, add(CFA_XSP16, literal(-6)))
          CFI (cfiCond159) ?RET_LOW load(1, XDATA, add(CFA_XSP16, literal(-5)))
          CFI (cfiCond159) ?RET_HIGH load(1, XDATA, add(CFA_XSP16, literal(-4)))
          CFI (cfiCond159) ?BRET_EXT load(1, XDATA, add(CFA_XSP16, literal(-3)))
          CFI (cfiCond159) DPL0 load(1, XDATA, add(CFA_XSP16, literal(-2)))
          CFI (cfiCond159) DPH0 load(1, XDATA, add(CFA_XSP16, literal(-1)))
          CFI (cfiCond159) CFA_SP SP+-6
          CFI (cfiCond159) CFA_XSP16 add(XSP16, 10)
          CFI Block cfiCond160 Using cfiCommon0
          CFI (cfiCond160) Function ZDApp_InMsgCB
          CFI (cfiCond160) Conditional ??CrossCallReturnLabel_43, ??CrossCallReturnLabel_41, ??CrossCallReturnLabel_31
          CFI (cfiCond160) R6 load(1, XDATA, add(CFA_XSP16, literal(-10)))
          CFI (cfiCond160) VB load(1, XDATA, add(CFA_XSP16, literal(-9)))
          CFI (cfiCond160) V0 load(1, XDATA, add(CFA_XSP16, literal(-8)))
          CFI (cfiCond160) V1 load(1, XDATA, add(CFA_XSP16, literal(-7)))
          CFI (cfiCond160) R7 load(1, XDATA, add(CFA_XSP16, literal(-6)))
          CFI (cfiCond160) ?RET_LOW load(1, XDATA, add(CFA_XSP16, literal(-5)))
          CFI (cfiCond160) ?RET_HIGH load(1, XDATA, add(CFA_XSP16, literal(-4)))
          CFI (cfiCond160) ?BRET_EXT load(1, XDATA, add(CFA_XSP16, literal(-3)))
          CFI (cfiCond160) DPL0 load(1, XDATA, add(CFA_XSP16, literal(-2)))
          CFI (cfiCond160) DPH0 load(1, XDATA, add(CFA_XSP16, literal(-1)))
          CFI (cfiCond160) CFA_SP SP+-6
          CFI (cfiCond160) CFA_XSP16 add(XSP16, 10)
          CFI Block cfiCond161 Using cfiCommon0
          CFI (cfiCond161) Function ZDApp_ProcessMsgCBs
          CFI (cfiCond161) Conditional ??CrossCallReturnLabel_43, ??CrossCallReturnLabel_40, ??CrossCallReturnLabel_26
          CFI (cfiCond161) R6 load(1, XDATA, add(CFA_XSP16, literal(-10)))
          CFI (cfiCond161) VB load(1, XDATA, add(CFA_XSP16, literal(-9)))
          CFI (cfiCond161) V0 load(1, XDATA, add(CFA_XSP16, literal(-8)))
          CFI (cfiCond161) V1 load(1, XDATA, add(CFA_XSP16, literal(-7)))
          CFI (cfiCond161) R7 load(1, XDATA, add(CFA_XSP16, literal(-6)))
          CFI (cfiCond161) ?RET_LOW load(1, XDATA, add(CFA_XSP16, literal(-5)))
          CFI (cfiCond161) ?RET_HIGH load(1, XDATA, add(CFA_XSP16, literal(-4)))
          CFI (cfiCond161) ?BRET_EXT load(1, XDATA, add(CFA_XSP16, literal(-3)))
          CFI (cfiCond161) DPL0 load(1, XDATA, add(CFA_XSP16, literal(-2)))
          CFI (cfiCond161) DPH0 load(1, XDATA, add(CFA_XSP16, literal(-1)))
          CFI (cfiCond161) CFA_SP SP+-6
          CFI (cfiCond161) CFA_XSP16 add(XSP16, 31)
          CFI Block cfiCond162 Using cfiCommon0
          CFI (cfiCond162) Function ZDApp_InMsgCB
          CFI (cfiCond162) Conditional ??CrossCallReturnLabel_43, ??CrossCallReturnLabel_40, ??CrossCallReturnLabel_27
          CFI (cfiCond162) R6 load(1, XDATA, add(CFA_XSP16, literal(-10)))
          CFI (cfiCond162) VB load(1, XDATA, add(CFA_XSP16, literal(-9)))
          CFI (cfiCond162) V0 load(1, XDATA, add(CFA_XSP16, literal(-8)))
          CFI (cfiCond162) V1 load(1, XDATA, add(CFA_XSP16, literal(-7)))
          CFI (cfiCond162) R7 load(1, XDATA, add(CFA_XSP16, literal(-6)))
          CFI (cfiCond162) ?RET_LOW load(1, XDATA, add(CFA_XSP16, literal(-5)))
          CFI (cfiCond162) ?RET_HIGH load(1, XDATA, add(CFA_XSP16, literal(-4)))
          CFI (cfiCond162) ?BRET_EXT load(1, XDATA, add(CFA_XSP16, literal(-3)))
          CFI (cfiCond162) DPL0 load(1, XDATA, add(CFA_XSP16, literal(-2)))
          CFI (cfiCond162) DPH0 load(1, XDATA, add(CFA_XSP16, literal(-1)))
          CFI (cfiCond162) CFA_SP SP+-6
          CFI (cfiCond162) CFA_XSP16 add(XSP16, 10)
          CFI Block cfiPicker163 Using cfiCommon1
          CFI (cfiPicker163) NoFunction
          CFI (cfiPicker163) Picker
        MOV     A,R6
        ADD     A,#0xc
        MOV     DPL,A
        CLR     A
        ADDC    A,R7
        MOV     DPH,A
        RET
          CFI EndBlock cfiCond158
          CFI EndBlock cfiCond159
          CFI EndBlock cfiCond160
          CFI EndBlock cfiCond161
          CFI EndBlock cfiCond162
          CFI EndBlock cfiPicker163

        RSEG BANKED_CODE:HUGECODE:NOROOT(0)
?Subroutine23:
          CFI Block cfiCond164 Using cfiCommon0
          CFI Function ZDApp_ProcessMsgCBs
          CFI Conditional ??CrossCallReturnLabel_26
          CFI R6 load(1, XDATA, add(CFA_XSP16, literal(-10)))
          CFI VB load(1, XDATA, add(CFA_XSP16, literal(-9)))
          CFI V0 load(1, XDATA, add(CFA_XSP16, literal(-8)))
          CFI V1 load(1, XDATA, add(CFA_XSP16, literal(-7)))
          CFI R7 load(1, XDATA, add(CFA_XSP16, literal(-6)))
          CFI ?RET_LOW load(1, XDATA, add(CFA_XSP16, literal(-5)))
          CFI ?RET_HIGH load(1, XDATA, add(CFA_XSP16, literal(-4)))
          CFI ?BRET_EXT load(1, XDATA, add(CFA_XSP16, literal(-3)))
          CFI DPL0 load(1, XDATA, add(CFA_XSP16, literal(-2)))
          CFI DPH0 load(1, XDATA, add(CFA_XSP16, literal(-1)))
          CFI CFA_SP SP+-2
          CFI CFA_XSP16 add(XSP16, 31)
          CFI Block cfiCond165 Using cfiCommon0
          CFI (cfiCond165) Function ZDApp_InMsgCB
          CFI (cfiCond165) Conditional ??CrossCallReturnLabel_27
          CFI (cfiCond165) R6 load(1, XDATA, add(CFA_XSP16, literal(-10)))
          CFI (cfiCond165) VB load(1, XDATA, add(CFA_XSP16, literal(-9)))
          CFI (cfiCond165) V0 load(1, XDATA, add(CFA_XSP16, literal(-8)))
          CFI (cfiCond165) V1 load(1, XDATA, add(CFA_XSP16, literal(-7)))
          CFI (cfiCond165) R7 load(1, XDATA, add(CFA_XSP16, literal(-6)))
          CFI (cfiCond165) ?RET_LOW load(1, XDATA, add(CFA_XSP16, literal(-5)))
          CFI (cfiCond165) ?RET_HIGH load(1, XDATA, add(CFA_XSP16, literal(-4)))
          CFI (cfiCond165) ?BRET_EXT load(1, XDATA, add(CFA_XSP16, literal(-3)))
          CFI (cfiCond165) DPL0 load(1, XDATA, add(CFA_XSP16, literal(-2)))
          CFI (cfiCond165) DPH0 load(1, XDATA, add(CFA_XSP16, literal(-1)))
          CFI (cfiCond165) CFA_SP SP+-2
          CFI (cfiCond165) CFA_XSP16 add(XSP16, 10)
          CFI Block cfiPicker166 Using cfiCommon1
          CFI (cfiPicker166) NoFunction
          CFI (cfiPicker166) Picker
        LCALL   ?Subroutine31 & 0xFFFF
??CrossCallReturnLabel_40:
        MOV     ?V0,A
        INC     DPTR
        MOVX    A,@DPTR
        RET
          CFI EndBlock cfiCond164
          CFI EndBlock cfiCond165
          CFI EndBlock cfiPicker166
// 2695 
// 2696 
// 2697 /*********************************************************************
// 2698  * @fn      ZDApp_ChangeMatchDescRespPermission()
// 2699  *
// 2700  * @brief   Changes the Match Descriptor Response permission.
// 2701  *
// 2702  * @param   endpoint - endpoint to allow responses
// 2703  * @param   action - true to allow responses, false to not
// 2704  *
// 2705  * @return  none
// 2706  */

        RSEG BANKED_CODE:HUGECODE:NOROOT(0)
// 2707 void ZDApp_ChangeMatchDescRespPermission( uint8 endpoint, uint8 action )
ZDApp_ChangeMatchDescRespPermission:
          CFI Block cfiBlock167 Using cfiCommon0
          CFI Function ZDApp_ChangeMatchDescRespPermission
        CODE
// 2708 {
        FUNCALL ZDApp_ChangeMatchDescRespPermission, afSetMatch
        LOCFRAME ISTACK, 0, STACK
        LOCFRAME PSTACK, 0, STACK
        LOCFRAME XSTACK, 9, STACK
        LOCFRAME IOVERLAY, 0, STATIC
        LOCFRAME DOVERLAY, 0, STATIC
        ARGFRAME ISTACK, 0, STACK
        ARGFRAME PSTACK, 0, STACK
        ARGFRAME XSTACK, 9, STACK
        ARGFRAME IOVERLAY, 0, STATIC
        ARGFRAME DOVERLAY, 0, STATIC
        MOV     A,#-0x9
        LCALL   ?BANKED_ENTER_XDATA
          CFI DPH0 load(1, XDATA, add(CFA_XSP16, literal(-1)))
          CFI DPL0 load(1, XDATA, add(CFA_XSP16, literal(-2)))
          CFI ?BRET_EXT load(1, XDATA, add(CFA_XSP16, literal(-3)))
          CFI ?RET_HIGH load(1, XDATA, add(CFA_XSP16, literal(-4)))
          CFI ?RET_LOW load(1, XDATA, add(CFA_XSP16, literal(-5)))
          CFI R7 load(1, XDATA, add(CFA_XSP16, literal(-6)))
          CFI V0 load(1, XDATA, add(CFA_XSP16, literal(-7)))
          CFI VB load(1, XDATA, add(CFA_XSP16, literal(-8)))
          CFI R6 load(1, XDATA, add(CFA_XSP16, literal(-9)))
          CFI CFA_SP SP+0
          CFI CFA_XSP16 add(XSP16, 9)
        ; Saved register size: 9
        ; Auto size: 0
// 2709   // Store the action
// 2710   afSetMatch( endpoint, action );
        ; Setup parameters for call to function afSetMatch
        LCALL   `??afSetMatch::?relay`; Banked call to: afSetMatch
// 2711 }
        LJMP    ??Subroutine38_0 & 0xFFFF
          CFI EndBlock cfiBlock167
// 2712 
// 2713 /*********************************************************************
// 2714  * @fn      ZDApp_NetworkInit()
// 2715  *
// 2716  * @brief   Used to start the network joining process
// 2717  *
// 2718  * @param   delay - mSec delay to wait before starting
// 2719  *
// 2720  * @return  none
// 2721  */

        RSEG BANKED_CODE:HUGECODE:NOROOT(0)
// 2722 void ZDApp_NetworkInit( uint16 delay )
ZDApp_NetworkInit:
          CFI Block cfiBlock168 Using cfiCommon0
          CFI Function ZDApp_NetworkInit
        CODE
// 2723 {
        FUNCALL ZDApp_NetworkInit, osal_start_timerEx
        LOCFRAME ISTACK, 2, STACK
        LOCFRAME PSTACK, 0, STACK
        LOCFRAME XSTACK, 0, STACK
        LOCFRAME IOVERLAY, 0, STATIC
        LOCFRAME DOVERLAY, 0, STATIC
        ARGFRAME ISTACK, 2, STACK
        ARGFRAME PSTACK, 0, STACK
        ARGFRAME XSTACK, 0, STACK
        ARGFRAME IOVERLAY, 0, STATIC
        ARGFRAME DOVERLAY, 0, STATIC
        FUNCALL ZDApp_NetworkInit, osal_set_event
        LOCFRAME ISTACK, 2, STACK
        LOCFRAME PSTACK, 0, STACK
        LOCFRAME XSTACK, 0, STACK
        LOCFRAME IOVERLAY, 0, STATIC
        LOCFRAME DOVERLAY, 0, STATIC
        ARGFRAME ISTACK, 2, STACK
        ARGFRAME PSTACK, 0, STACK
        ARGFRAME XSTACK, 0, STACK
        ARGFRAME IOVERLAY, 0, STATIC
        ARGFRAME DOVERLAY, 0, STATIC
        PUSH    DPL
          CFI DPL0 Frame(CFA_SP, 4)
          CFI CFA_SP SP+-4
        PUSH    DPH
          CFI DPH0 Frame(CFA_SP, 5)
          CFI CFA_SP SP+-5
        ; Saved register size: 2
        ; Auto size: 0
// 2724   if ( delay )
        MOV     A,R2
        ORL     A,R3
        JZ      ??ZDApp_NetworkInit_0
// 2725   {
// 2726     // Wait awhile before starting the device
// 2727     osal_start_timerEx( ZDAppTaskID, ZDO_NETWORK_INIT, delay );
        ; Setup parameters for call to function osal_start_timerEx
        MOV     A,R2
        MOV     R4,A
        MOV     A,R3
        MOV     R5,A
        MOV     R2,#0x1
        MOV     R3,#0x0
        MOV     DPTR,#ZDAppTaskID
        MOVX    A,@DPTR
        MOV     R1,A
        LCALL   `??osal_start_timerEx::?relay`; Banked call to: osal_start_timerEx
        SJMP    ??ZDApp_NetworkInit_1
// 2728   }
// 2729   else
// 2730   {
// 2731     osal_set_event( ZDAppTaskID, ZDO_NETWORK_INIT );
??ZDApp_NetworkInit_0:
        ; Setup parameters for call to function osal_set_event
        MOV     R2,#0x1
        MOV     R3,#0x0
        MOV     DPTR,#ZDAppTaskID
        MOVX    A,@DPTR
        MOV     R1,A
        LCALL   `??osal_set_event::?relay`; Banked call to: osal_set_event
// 2732   }
// 2733 }
??ZDApp_NetworkInit_1:
        LJMP    ?Subroutine3 & 0xFFFF
          CFI EndBlock cfiBlock168
// 2734 
// 2735 /*********************************************************************
// 2736  * @fn      ZDApp_NwkStateUpdateCB()
// 2737  *
// 2738  * @brief   This function notifies that this device's network 
// 2739  *          state info has been changed.
// 2740  *
// 2741  * @param   none
// 2742  *
// 2743  * @return  none
// 2744  */

        RSEG BANKED_CODE:HUGECODE:NOROOT(0)
// 2745 void ZDApp_NwkStateUpdateCB( void )
ZDApp_NwkStateUpdateCB:
          CFI Block cfiBlock169 Using cfiCommon0
          CFI Function ZDApp_NwkStateUpdateCB
        CODE
// 2746 {
        FUNCALL ZDApp_NwkStateUpdateCB, osal_get_timeoutEx
        LOCFRAME ISTACK, 2, STACK
        LOCFRAME PSTACK, 0, STACK
        LOCFRAME XSTACK, 0, STACK
        LOCFRAME IOVERLAY, 0, STATIC
        LOCFRAME DOVERLAY, 0, STATIC
        ARGFRAME ISTACK, 2, STACK
        ARGFRAME PSTACK, 0, STACK
        ARGFRAME XSTACK, 0, STACK
        ARGFRAME IOVERLAY, 0, STATIC
        ARGFRAME DOVERLAY, 0, STATIC
        PUSH    DPL
          CFI DPL0 Frame(CFA_SP, 4)
          CFI CFA_SP SP+-4
        PUSH    DPH
          CFI DPH0 Frame(CFA_SP, 5)
          CFI CFA_SP SP+-5
        ; Saved register size: 2
        ; Auto size: 0
// 2747   // Notify to save info into NV
// 2748   if ( !osal_get_timeoutEx( ZDAppTaskID, ZDO_NWK_UPDATE_NV ) )
        ; Setup parameters for call to function osal_get_timeoutEx
        MOV     R2,#0x0
        MOV     R3,#0x2
        MOV     DPTR,#ZDAppTaskID
        MOVX    A,@DPTR
        MOV     R1,A
        LCALL   `??osal_get_timeoutEx::?relay`; Banked call to: osal_get_timeoutEx
// 2749   {
// 2750     // Trigger to save info into NV
// 2751     ZDApp_NVUpdate();
// 2752   }
// 2753 }
        LJMP    ?Subroutine3 & 0xFFFF
          CFI EndBlock cfiBlock169
// 2754 
// 2755 /*********************************************************************
// 2756  * @fn      ZDApp_NodeProfileSync()
// 2757  *
// 2758  * @brief   Sync node with stack profile.
// 2759  *
// 2760  * @param   stackProfile - stack profile of the network to join
// 2761  *
// 2762  * @return  none
// 2763  */

        RSEG BANKED_CODE:HUGECODE:NOROOT(0)
// 2764 void ZDApp_NodeProfileSync( uint8 stackProfile )
ZDApp_NodeProfileSync:
          CFI Block cfiBlock170 Using cfiCommon0
          CFI Function ZDApp_NodeProfileSync
        CODE
// 2765 {
        FUNCALL ZDApp_NodeProfileSync, NLME_SetBroadcastFilter
        LOCFRAME ISTACK, 0, STACK
        LOCFRAME PSTACK, 0, STACK
        LOCFRAME XSTACK, 9, STACK
        LOCFRAME IOVERLAY, 0, STATIC
        LOCFRAME DOVERLAY, 0, STATIC
        ARGFRAME ISTACK, 0, STACK
        ARGFRAME PSTACK, 0, STACK
        ARGFRAME XSTACK, 9, STACK
        ARGFRAME IOVERLAY, 0, STATIC
        ARGFRAME DOVERLAY, 0, STATIC
        MOV     A,#-0x9
        LCALL   ?BANKED_ENTER_XDATA
          CFI DPH0 load(1, XDATA, add(CFA_XSP16, literal(-1)))
          CFI DPL0 load(1, XDATA, add(CFA_XSP16, literal(-2)))
          CFI ?BRET_EXT load(1, XDATA, add(CFA_XSP16, literal(-3)))
          CFI ?RET_HIGH load(1, XDATA, add(CFA_XSP16, literal(-4)))
          CFI ?RET_LOW load(1, XDATA, add(CFA_XSP16, literal(-5)))
          CFI R7 load(1, XDATA, add(CFA_XSP16, literal(-6)))
          CFI V0 load(1, XDATA, add(CFA_XSP16, literal(-7)))
          CFI VB load(1, XDATA, add(CFA_XSP16, literal(-8)))
          CFI R6 load(1, XDATA, add(CFA_XSP16, literal(-9)))
          CFI CFA_SP SP+0
          CFI CFA_XSP16 add(XSP16, 9)
        ; Saved register size: 9
        ; Auto size: 0
        MOV     A,R1
        MOV     R6,A
// 2766   if ( ZDO_Config_Node_Descriptor.CapabilityFlags & CAPINFO_DEVICETYPE_FFD  )
        MOV     DPTR,#ZDO_Config_Node_Descriptor + 2
        MOVX    A,@DPTR
        MOV     C,0xE0 /* A   */.1
        JNC     ??ZDApp_NodeProfileSync_0
// 2767   {
// 2768     if ( stackProfile != zgStackProfile )
        MOV     DPTR,#zgStackProfile
        MOVX    A,@DPTR
        XRL     A,R6
        JZ      ??ZDApp_NodeProfileSync_0
// 2769     {
// 2770       ZDO_Config_Node_Descriptor.LogicalType = NODETYPE_DEVICE;
        MOV     DPTR,#ZDO_Config_Node_Descriptor
        MOVX    A,@DPTR
        ANL     A,#0xf8
        MOVX    @DPTR,A
        ORL     A,#0x2
        MOVX    @DPTR,A
// 2771       ZDO_Config_Node_Descriptor.CapabilityFlags = CAPINFO_DEVICETYPE_RFD | CAPINFO_POWER_AC | CAPINFO_RCVR_ON_IDLE;
        MOV     DPTR,#ZDO_Config_Node_Descriptor + 2
        MOV     A,#0xc
        MOVX    @DPTR,A
// 2772       NLME_SetBroadcastFilter( ZDO_Config_Node_Descriptor.CapabilityFlags );
        ; Setup parameters for call to function NLME_SetBroadcastFilter
        MOV     R1,A
        LCALL   `??NLME_SetBroadcastFilter::?relay`; Banked call to: NLME_SetBroadcastFilter
// 2773     }
// 2774   }
// 2775 }
??ZDApp_NodeProfileSync_0:
        LJMP    ??Subroutine38_0 & 0xFFFF
          CFI EndBlock cfiBlock170
// 2776 
// 2777 /*********************************************************************
// 2778  * @fn      ZDApp_StartJoiningCycle()
// 2779  *
// 2780  * @brief   Starts the joining cycle of a device.  This will only 
// 2781  *          continue an already started (or stopped) joining cycle.
// 2782  *
// 2783  * @param   none
// 2784  *
// 2785  * @return  TRUE if joining stopped, FALSE if joining or rejoining
// 2786  */

        RSEG BANKED_CODE:HUGECODE:NOROOT(0)
// 2787 uint8 ZDApp_StartJoiningCycle( void )
ZDApp_StartJoiningCycle:
          CFI Block cfiBlock171 Using cfiCommon0
          CFI Function ZDApp_StartJoiningCycle
        CODE
// 2788 {
        FUNCALL ZDApp_StartJoiningCycle, ZDApp_NetworkInit
        LOCFRAME ISTACK, 2, STACK
        LOCFRAME PSTACK, 0, STACK
        LOCFRAME XSTACK, 0, STACK
        LOCFRAME IOVERLAY, 0, STATIC
        LOCFRAME DOVERLAY, 0, STATIC
        ARGFRAME ISTACK, 2, STACK
        ARGFRAME PSTACK, 0, STACK
        ARGFRAME XSTACK, 0, STACK
        ARGFRAME IOVERLAY, 0, STATIC
        ARGFRAME DOVERLAY, 0, STATIC
        PUSH    DPL
          CFI DPL0 Frame(CFA_SP, 4)
          CFI CFA_SP SP+-4
        PUSH    DPH
          CFI DPH0 Frame(CFA_SP, 5)
          CFI CFA_SP SP+-5
        ; Saved register size: 2
        ; Auto size: 0
// 2789   if ( devState == DEV_INIT || devState == DEV_NWK_DISC )
        MOV     DPTR,#devState
        MOVX    A,@DPTR
        XRL     A,#0x1
        JZ      ??ZDApp_StartJoiningCycle_0
        MOVX    A,@DPTR
        XRL     A,#0x2
        JNZ     ??ZDApp_StartJoiningCycle_1
// 2790   {
// 2791     continueJoining = TRUE;
??ZDApp_StartJoiningCycle_0:
        MOV     DPTR,#continueJoining
        MOV     A,#0x1
        MOVX    @DPTR,A
// 2792     ZDApp_NetworkInit( 0 );
        ; Setup parameters for call to function ZDApp_NetworkInit
        MOV     R2,#0x0
        MOV     R3,#0x0
        LCALL   `??ZDApp_NetworkInit::?relay`; Banked call to: ZDApp_NetworkInit
// 2793 
// 2794     return ( TRUE );
        MOV     R1,#0x1
        SJMP    ??ZDApp_StartJoiningCycle_2
// 2795   }
// 2796   else
// 2797     return ( FALSE );
??ZDApp_StartJoiningCycle_1:
        MOV     R1,#0x0
??ZDApp_StartJoiningCycle_2:
        LJMP    ?Subroutine3 & 0xFFFF
// 2798 }
          CFI EndBlock cfiBlock171
// 2799 
// 2800 /*********************************************************************
// 2801  * @fn      ZDApp_StopJoiningCycle()
// 2802  *
// 2803  * @brief   Stops the joining or rejoining process of a device.
// 2804  *
// 2805  * @param   none
// 2806  *
// 2807  * @return  TRUE if joining stopped, FALSE if joining or rejoining
// 2808  */

        RSEG BANKED_CODE:HUGECODE:NOROOT(0)
// 2809 uint8 ZDApp_StopJoiningCycle( void )
ZDApp_StopJoiningCycle:
          CFI Block cfiBlock172 Using cfiCommon0
          CFI Function ZDApp_StopJoiningCycle
        CODE
// 2810 {
        PUSH    DPL
          CFI DPL0 Frame(CFA_SP, 4)
          CFI CFA_SP SP+-4
        PUSH    DPH
          CFI DPH0 Frame(CFA_SP, 5)
          CFI CFA_SP SP+-5
        ; Saved register size: 2
        ; Auto size: 0
// 2811   if ( devState == DEV_INIT || devState == DEV_NWK_DISC )
        MOV     DPTR,#devState
        MOVX    A,@DPTR
        XRL     A,#0x1
        JZ      ??ZDApp_StopJoiningCycle_0
        MOVX    A,@DPTR
        XRL     A,#0x2
        JNZ     ??ZDApp_StopJoiningCycle_1
// 2812   {
// 2813     continueJoining = FALSE;
??ZDApp_StopJoiningCycle_0:
        MOV     DPTR,#continueJoining
        CLR     A
        MOVX    @DPTR,A
// 2814     return ( TRUE );
        MOV     R1,#0x1
        SJMP    ??ZDApp_StopJoiningCycle_2
// 2815   }
// 2816   else
// 2817     return ( FALSE );
??ZDApp_StopJoiningCycle_1:
        MOV     R1,#0x0
??ZDApp_StopJoiningCycle_2:
        LJMP    ?Subroutine3 & 0xFFFF
// 2818 }
          CFI EndBlock cfiBlock172
// 2819 
// 2820 /*********************************************************************
// 2821  * @fn      ZDApp_AnnounceNewAddress()
// 2822  *
// 2823  * @brief   Send Device Announce and hold all transmissions for 
// 2824  *          new address timeout.
// 2825  *
// 2826  * @param   none
// 2827  *
// 2828  * @return  none
// 2829  */

        RSEG BANKED_CODE:HUGECODE:NOROOT(0)
// 2830 void ZDApp_AnnounceNewAddress( void )
ZDApp_AnnounceNewAddress:
          CFI Block cfiBlock173 Using cfiCommon0
          CFI Function ZDApp_AnnounceNewAddress
        CODE
// 2831 {
        FUNCALL ZDApp_AnnounceNewAddress, NLME_GetExtAddr
        LOCFRAME ISTACK, 0, STACK
        LOCFRAME PSTACK, 0, STACK
        LOCFRAME XSTACK, 10, STACK
        LOCFRAME IOVERLAY, 0, STATIC
        LOCFRAME DOVERLAY, 0, STATIC
        ARGFRAME ISTACK, 0, STACK
        ARGFRAME PSTACK, 0, STACK
        ARGFRAME XSTACK, 10, STACK
        ARGFRAME IOVERLAY, 0, STATIC
        ARGFRAME DOVERLAY, 0, STATIC
        FUNCALL ZDApp_AnnounceNewAddress, NLME_GetShortAddr
        LOCFRAME ISTACK, 0, STACK
        LOCFRAME PSTACK, 0, STACK
        LOCFRAME XSTACK, 10, STACK
        LOCFRAME IOVERLAY, 0, STATIC
        LOCFRAME DOVERLAY, 0, STATIC
        ARGFRAME ISTACK, 0, STACK
        ARGFRAME PSTACK, 0, STACK
        ARGFRAME XSTACK, 10, STACK
        ARGFRAME IOVERLAY, 0, STATIC
        ARGFRAME DOVERLAY, 0, STATIC
        FUNCALL ZDApp_AnnounceNewAddress, ZDP_DeviceAnnce
        LOCFRAME ISTACK, 0, STACK
        LOCFRAME PSTACK, 0, STACK
        LOCFRAME XSTACK, 11, STACK
        LOCFRAME IOVERLAY, 0, STATIC
        LOCFRAME DOVERLAY, 0, STATIC
        ARGFRAME ISTACK, 0, STACK
        ARGFRAME PSTACK, 0, STACK
        ARGFRAME XSTACK, 11, STACK
        ARGFRAME IOVERLAY, 0, STATIC
        ARGFRAME DOVERLAY, 0, STATIC
        REQUIRE ?V0
        REQUIRE ?V1
        MOV     A,#-0xa
        LCALL   ?BANKED_ENTER_XDATA
          CFI DPH0 load(1, XDATA, add(CFA_XSP16, literal(-1)))
          CFI DPL0 load(1, XDATA, add(CFA_XSP16, literal(-2)))
          CFI ?BRET_EXT load(1, XDATA, add(CFA_XSP16, literal(-3)))
          CFI ?RET_HIGH load(1, XDATA, add(CFA_XSP16, literal(-4)))
          CFI ?RET_LOW load(1, XDATA, add(CFA_XSP16, literal(-5)))
          CFI R7 load(1, XDATA, add(CFA_XSP16, literal(-6)))
          CFI V1 load(1, XDATA, add(CFA_XSP16, literal(-7)))
          CFI V0 load(1, XDATA, add(CFA_XSP16, literal(-8)))
          CFI VB load(1, XDATA, add(CFA_XSP16, literal(-9)))
          CFI R6 load(1, XDATA, add(CFA_XSP16, literal(-10)))
          CFI CFA_SP SP+0
          CFI CFA_XSP16 add(XSP16, 10)
        ; Saved register size: 10
        ; Auto size: 0
// 2832 #if defined ( ZIGBEE_NWK_UNIQUE_ADDR_CHECK )
// 2833   // Turn off data request hold
// 2834   APSME_HoldDataRequests( 0 );
// 2835 #endif
// 2836   
// 2837   ZDP_DeviceAnnce( NLME_GetShortAddr(), NLME_GetExtAddr(),
// 2838                      ZDO_Config_Node_Descriptor.CapabilityFlags, 0 );
        ; Setup parameters for call to function NLME_GetExtAddr
        LCALL   `??NLME_GetExtAddr::?relay`; Banked call to: NLME_GetExtAddr
        MOV     ?V0,R2
        MOV     ?V1,R3
        MOV     R6,?V0
        ; Setup parameters for call to function NLME_GetShortAddr
        LCALL   `??NLME_GetShortAddr::?relay`; Banked call to: NLME_GetShortAddr
        ; Setup parameters for call to function ZDP_DeviceAnnce
        MOV     ?V0,#0x0
        MOV     R0,#?V0
        LCALL   ?PUSH_XSTACK_I_ONE
          CFI CFA_XSP16 add(XSP16, 11)
        MOV     DPTR,#ZDO_Config_Node_Descriptor + 2
        MOVX    A,@DPTR
        MOV     R1,A
        MOV     A,R6
        MOV     R4,A
        MOV     R5,?V1
        LCALL   `??ZDP_DeviceAnnce::?relay`; Banked call to: ZDP_DeviceAnnce
        LJMP    ?Subroutine7 & 0xFFFF
// 2839   
// 2840 #if defined ( ZIGBEE_NWK_UNIQUE_ADDR_CHECK )
// 2841   // Setup the timeout
// 2842   APSME_HoldDataRequests( ZDAPP_HOLD_DATA_REQUESTS_TIMEOUT );
// 2843 #endif  
// 2844 }
          CFI EndBlock cfiBlock173
// 2845 
// 2846 /*********************************************************************
// 2847  * @fn          ZDApp_NVUpdate
// 2848  *
// 2849  * @brief       Set the NV Update Timer.
// 2850  *
// 2851  * @param       none
// 2852  *
// 2853  * @return      none
// 2854  */

        RSEG BANKED_CODE:HUGECODE:NOROOT(0)
// 2855 void ZDApp_NVUpdate( void )
ZDApp_NVUpdate:
          CFI Block cfiBlock174 Using cfiCommon0
          CFI Function ZDApp_NVUpdate
        CODE
// 2856 {
        ; Saved register size: 0
        ; Auto size: 0
// 2857 #if defined ( NV_RESTORE )
// 2858   osal_start_timerEx( ZDAppTaskID, ZDO_NWK_UPDATE_NV, ZDAPP_UPDATE_NWK_NV_TIME );
// 2859 #endif
// 2860 }
        LJMP    ?BRET
          CFI EndBlock cfiBlock174
// 2861 
// 2862 /*********************************************************************
// 2863  * @fn      ZDApp_CoordStartPANIDConflictCB()
// 2864  *
// 2865  * @brief   Returns a PAN ID for the network layer to use during
// 2866  *          a coordinator start and there is another network with 
// 2867  *          the intended PANID.
// 2868  *
// 2869  * @param   panid - the intended PAN ID
// 2870  *
// 2871  * @return  PANID to try
// 2872  */

        RSEG BANKED_CODE:HUGECODE:NOROOT(0)
// 2873 uint16 ZDApp_CoordStartPANIDConflictCB( uint16 panid )
ZDApp_CoordStartPANIDConflictCB:
          CFI Block cfiBlock175 Using cfiCommon0
          CFI Function ZDApp_CoordStartPANIDConflictCB
        CODE
// 2874 {
        ; Saved register size: 0
        ; Auto size: 0
// 2875   return ( panid + 1 );
        MOV     A,R2
        ADD     A,#0x1
        INC     R2
        JNC     ??ZDApp_CoordStartPANIDConflictCB_0
        INC     R3
??ZDApp_CoordStartPANIDConflictCB_0:
        LJMP    ?BRET
// 2876 }
          CFI EndBlock cfiBlock175
// 2877 
// 2878 /*********************************************************************
// 2879  * @fn          ZDO_SrcRtgIndCB
// 2880  *
// 2881  * @brief       This function notifies the ZDO available src route record received.
// 2882  *
// 2883  * @param       srcAddr - source address of the source route
// 2884  * @param       relayCnt - number of devices in the relay list
// 2885  * @param       relayList - relay list of the source route
// 2886  *
// 2887  * @return      none
// 2888  */

        RSEG BANKED_CODE:HUGECODE:NOROOT(0)
// 2889 void ZDO_SrcRtgIndCB (uint16 srcAddr, uint8 relayCnt, uint16* pRelayList )
ZDO_SrcRtgIndCB:
          CFI Block cfiBlock176 Using cfiCommon0
          CFI Function ZDO_SrcRtgIndCB
        CODE
// 2890 {
        MOV     A,#-0x9
        LCALL   ?BANKED_ENTER_XDATA
          CFI DPH0 load(1, XDATA, add(CFA_XSP16, literal(-1)))
          CFI DPL0 load(1, XDATA, add(CFA_XSP16, literal(-2)))
          CFI ?BRET_EXT load(1, XDATA, add(CFA_XSP16, literal(-3)))
          CFI ?RET_HIGH load(1, XDATA, add(CFA_XSP16, literal(-4)))
          CFI ?RET_LOW load(1, XDATA, add(CFA_XSP16, literal(-5)))
          CFI R7 load(1, XDATA, add(CFA_XSP16, literal(-6)))
          CFI V0 load(1, XDATA, add(CFA_XSP16, literal(-7)))
          CFI VB load(1, XDATA, add(CFA_XSP16, literal(-8)))
          CFI R6 load(1, XDATA, add(CFA_XSP16, literal(-9)))
          CFI CFA_SP SP+0
          CFI CFA_XSP16 add(XSP16, 9)
        ; Saved register size: 9
        ; Auto size: 5
        MOV     A,#-0x5
        LCALL   ?ALLOC_XSTACK8
          CFI CFA_XSP16 add(XSP16, 14)
// 2891   zdoSrcRtg_t srcRtg;
// 2892   
// 2893   srcRtg.srcAddr = srcAddr;
        LCALL   ?Subroutine11 & 0xFFFF
// 2894   srcRtg.relayCnt = relayCnt;
??CrossCallReturnLabel_70:
        MOV     A,#0x2
        LCALL   ?XSTACK_DISP0_8
        MOV     A,R1
        MOVX    @DPTR,A
// 2895   srcRtg.pRelayList = pRelayList;
        MOV     A,#0x3
        LCALL   ?XSTACK_DISP0_8
        MOV     A,R4
        MOVX    @DPTR,A
        INC     DPTR
        MOV     A,R5
        MOVX    @DPTR,A
// 2896   
// 2897   if( zdoCBFunc[ZDO_SRC_RTG_IND_CBID] != NULL )
        MOV     DPTR,#zdoCBFunc
        LCALL   ?Subroutine15 & 0xFFFF
??CrossCallReturnLabel_16:
        JZ      ??ZDO_SrcRtgIndCB_0
// 2898   {
// 2899     zdoCBFunc[ZDO_SRC_RTG_IND_CBID]( (void*)&srcRtg );
        ; Setup parameters for indirect call
        LCALL   ?Subroutine18 & 0xFFFF
// 2900   }
??CrossCallReturnLabel_51:
        LCALL   ?CALL_IND
// 2901 }
??ZDO_SrcRtgIndCB_0:
        LJMP    ?Subroutine6 & 0xFFFF
          CFI EndBlock cfiBlock176
// 2902 
// 2903 /*********************************************************************
// 2904  * @fn          ZDApp_InitZdoCBFunc
// 2905  *
// 2906  * @brief       Call this function to initialize zdoCBFunc[]
// 2907  *
// 2908  * @param       none
// 2909  *
// 2910  * @return      none
// 2911  */

        RSEG BANKED_CODE:HUGECODE:NOROOT(0)
// 2912 void ZDApp_InitZdoCBFunc( void )
ZDApp_InitZdoCBFunc:
          CFI Block cfiBlock177 Using cfiCommon0
          CFI Function ZDApp_InitZdoCBFunc
        CODE
// 2913 {
        PUSH    DPL
          CFI DPL0 Frame(CFA_SP, 4)
          CFI CFA_SP SP+-4
        PUSH    DPH
          CFI DPH0 Frame(CFA_SP, 5)
          CFI CFA_SP SP+-5
        ; Saved register size: 2
        ; Auto size: 0
// 2914   uint8 i;
// 2915   
// 2916   for ( i=0; i< MAX_ZDO_CB_FUNC; i++ )
        MOV     R2,#0x0
// 2917   {
// 2918     zdoCBFunc[i] = NULL;
??ZDApp_InitZdoCBFunc_0:
        MOV     A,R2
        ADD     A,0xE0 /* A   */
        LCALL   ?Subroutine29 & 0xFFFF
// 2919   }
??CrossCallReturnLabel_36:
        CLR     A
        MOVX    @DPTR,A
        INC     DPTR
        MOVX    @DPTR,A
        INC     R2
        MOV     A,R2
        CLR     C
        SUBB    A,#0x5
        JC      ??ZDApp_InitZdoCBFunc_0
// 2920 }
        LJMP    ?Subroutine3 & 0xFFFF
          CFI EndBlock cfiBlock177
// 2921 
// 2922 /*********************************************************************
// 2923  * @fn          ZDO_RegisterForZdoCB
// 2924  *
// 2925  * @brief       Call this function to register the higher layer (for 
// 2926  *              example, the Application layer or MT layer) with ZDO 
// 2927  *              callbacks to get notified of some ZDO indication like
// 2928  *              existence of a concentrator or receipt of a source 
// 2929  *              route record.
// 2930  *
// 2931  * @param       indID - ZDO Indication ID
// 2932  * @param       pFn   - Callback function pointer
// 2933  *
// 2934  * @return      ZSuccess - successful, ZInvalidParameter if not
// 2935  */

        RSEG BANKED_CODE:HUGECODE:NOROOT(0)
// 2936 ZStatus_t ZDO_RegisterForZdoCB( uint8 indID, pfnZdoCb pFn )
ZDO_RegisterForZdoCB:
          CFI Block cfiBlock178 Using cfiCommon0
          CFI Function ZDO_RegisterForZdoCB
        CODE
// 2937 {
        PUSH    DPL
          CFI DPL0 Frame(CFA_SP, 4)
          CFI CFA_SP SP+-4
        PUSH    DPH
          CFI DPH0 Frame(CFA_SP, 5)
          CFI CFA_SP SP+-5
        ; Saved register size: 2
        ; Auto size: 0
        MOV     A,R1
        MOV     R4,A
// 2938   // Check the range of the indication ID
// 2939   if ( indID < MAX_ZDO_CB_FUNC )
        CLR     C
        SUBB    A,#0x5
        JNC     ??ZDO_RegisterForZdoCB_0
// 2940   {
// 2941     zdoCBFunc[indID] = pFn;
        MOV     A,R4
        LCALL   ?Subroutine21 & 0xFFFF
??CrossCallReturnLabel_21:
        LCALL   ??Subroutine42_0 & 0xFFFF
// 2942     return ZSuccess;
??CrossCallReturnLabel_67:
        MOV     R1,#0x0
        SJMP    ??ZDO_RegisterForZdoCB_1
// 2943   }
// 2944   
// 2945   return ZInvalidParameter;
??ZDO_RegisterForZdoCB_0:
        MOV     R1,#0x2
??ZDO_RegisterForZdoCB_1:
        LJMP    ?Subroutine3 & 0xFFFF
// 2946 }
          CFI EndBlock cfiBlock178

        RSEG BANKED_CODE:HUGECODE:NOROOT(0)
?Subroutine11:
          CFI Block cfiCond179 Using cfiCommon0
          CFI Function ZDOInitDevice
          CFI Conditional ??CrossCallReturnLabel_68
          CFI R6 load(1, XDATA, add(CFA_XSP16, literal(-10)))
          CFI VB load(1, XDATA, add(CFA_XSP16, literal(-9)))
          CFI V0 load(1, XDATA, add(CFA_XSP16, literal(-8)))
          CFI V1 load(1, XDATA, add(CFA_XSP16, literal(-7)))
          CFI R7 load(1, XDATA, add(CFA_XSP16, literal(-6)))
          CFI ?RET_LOW load(1, XDATA, add(CFA_XSP16, literal(-5)))
          CFI ?RET_HIGH load(1, XDATA, add(CFA_XSP16, literal(-4)))
          CFI ?BRET_EXT load(1, XDATA, add(CFA_XSP16, literal(-3)))
          CFI DPL0 load(1, XDATA, add(CFA_XSP16, literal(-2)))
          CFI DPH0 load(1, XDATA, add(CFA_XSP16, literal(-1)))
          CFI CFA_SP SP+-2
          CFI CFA_XSP16 add(XSP16, 12)
          CFI Block cfiCond180 Using cfiCommon0
          CFI (cfiCond180) Function ZDO_ConcentratorIndicationCB
          CFI (cfiCond180) Conditional ??CrossCallReturnLabel_69
          CFI (cfiCond180) R6 load(1, XDATA, add(CFA_XSP16, literal(-9)))
          CFI (cfiCond180) VB load(1, XDATA, add(CFA_XSP16, literal(-8)))
          CFI (cfiCond180) V0 load(1, XDATA, add(CFA_XSP16, literal(-7)))
          CFI (cfiCond180) R7 load(1, XDATA, add(CFA_XSP16, literal(-6)))
          CFI (cfiCond180) ?RET_LOW load(1, XDATA, add(CFA_XSP16, literal(-5)))
          CFI (cfiCond180) ?RET_HIGH load(1, XDATA, add(CFA_XSP16, literal(-4)))
          CFI (cfiCond180) ?BRET_EXT load(1, XDATA, add(CFA_XSP16, literal(-3)))
          CFI (cfiCond180) DPL0 load(1, XDATA, add(CFA_XSP16, literal(-2)))
          CFI (cfiCond180) DPH0 load(1, XDATA, add(CFA_XSP16, literal(-1)))
          CFI (cfiCond180) CFA_SP SP+-2
          CFI (cfiCond180) CFA_XSP16 add(XSP16, 14)
          CFI Block cfiCond181 Using cfiCommon0
          CFI (cfiCond181) Function ZDO_SrcRtgIndCB
          CFI (cfiCond181) Conditional ??CrossCallReturnLabel_70
          CFI (cfiCond181) R6 load(1, XDATA, add(CFA_XSP16, literal(-9)))
          CFI (cfiCond181) VB load(1, XDATA, add(CFA_XSP16, literal(-8)))
          CFI (cfiCond181) V0 load(1, XDATA, add(CFA_XSP16, literal(-7)))
          CFI (cfiCond181) R7 load(1, XDATA, add(CFA_XSP16, literal(-6)))
          CFI (cfiCond181) ?RET_LOW load(1, XDATA, add(CFA_XSP16, literal(-5)))
          CFI (cfiCond181) ?RET_HIGH load(1, XDATA, add(CFA_XSP16, literal(-4)))
          CFI (cfiCond181) ?BRET_EXT load(1, XDATA, add(CFA_XSP16, literal(-3)))
          CFI (cfiCond181) DPL0 load(1, XDATA, add(CFA_XSP16, literal(-2)))
          CFI (cfiCond181) DPH0 load(1, XDATA, add(CFA_XSP16, literal(-1)))
          CFI (cfiCond181) CFA_SP SP+-2
          CFI (cfiCond181) CFA_XSP16 add(XSP16, 14)
          CFI Block cfiPicker182 Using cfiCommon1
          CFI (cfiPicker182) NoFunction
          CFI (cfiPicker182) Picker
        MOV     DPL,?XSP + 0
        MOV     DPH,?XSP + 1
          CFI EndBlock cfiCond179
          CFI EndBlock cfiCond180
          CFI EndBlock cfiCond181
          CFI EndBlock cfiPicker182
        REQUIRE ??Subroutine42_0
        ; // Fall through to label ??Subroutine42_0

        RSEG BANKED_CODE:HUGECODE:NOROOT(0)
??Subroutine42_0:
          CFI Block cfiCond183 Using cfiCommon0
          CFI Function ZDApp_ProcessSecEvent
          CFI Conditional ??CrossCallReturnLabel_63
          CFI R6 load(1, XDATA, add(CFA_XSP16, literal(-9)))
          CFI VB load(1, XDATA, add(CFA_XSP16, literal(-8)))
          CFI V0 load(1, XDATA, add(CFA_XSP16, literal(-7)))
          CFI R7 load(1, XDATA, add(CFA_XSP16, literal(-6)))
          CFI ?RET_LOW load(1, XDATA, add(CFA_XSP16, literal(-5)))
          CFI ?RET_HIGH load(1, XDATA, add(CFA_XSP16, literal(-4)))
          CFI ?BRET_EXT load(1, XDATA, add(CFA_XSP16, literal(-3)))
          CFI DPL0 load(1, XDATA, add(CFA_XSP16, literal(-2)))
          CFI DPH0 load(1, XDATA, add(CFA_XSP16, literal(-1)))
          CFI CFA_SP SP+-2
          CFI CFA_XSP16 add(XSP16, 9)
          CFI Block cfiCond184 Using cfiCommon0
          CFI (cfiCond184) Function ZDApp_RestoreNetworkState
          CFI (cfiCond184) Conditional ??CrossCallReturnLabel_64
          CFI (cfiCond184) R6 load(1, XDATA, add(CFA_XSP16, literal(-9)))
          CFI (cfiCond184) VB load(1, XDATA, add(CFA_XSP16, literal(-8)))
          CFI (cfiCond184) V0 load(1, XDATA, add(CFA_XSP16, literal(-7)))
          CFI (cfiCond184) R7 load(1, XDATA, add(CFA_XSP16, literal(-6)))
          CFI (cfiCond184) ?RET_LOW load(1, XDATA, add(CFA_XSP16, literal(-5)))
          CFI (cfiCond184) ?RET_HIGH load(1, XDATA, add(CFA_XSP16, literal(-4)))
          CFI (cfiCond184) ?BRET_EXT load(1, XDATA, add(CFA_XSP16, literal(-3)))
          CFI (cfiCond184) DPL0 load(1, XDATA, add(CFA_XSP16, literal(-2)))
          CFI (cfiCond184) DPH0 load(1, XDATA, add(CFA_XSP16, literal(-1)))
          CFI (cfiCond184) CFA_SP SP+-2
          CFI (cfiCond184) CFA_XSP16 add(XSP16, 9)
          CFI Block cfiCond185 Using cfiCommon0
          CFI (cfiCond185) Function ZDApp_ProcessOSALMsg
          CFI (cfiCond185) Conditional ??CrossCallReturnLabel_65
          CFI (cfiCond185) R6 load(1, XDATA, add(CFA_XSP16, literal(-10)))
          CFI (cfiCond185) VB load(1, XDATA, add(CFA_XSP16, literal(-9)))
          CFI (cfiCond185) V0 load(1, XDATA, add(CFA_XSP16, literal(-8)))
          CFI (cfiCond185) V1 load(1, XDATA, add(CFA_XSP16, literal(-7)))
          CFI (cfiCond185) R7 load(1, XDATA, add(CFA_XSP16, literal(-6)))
          CFI (cfiCond185) ?RET_LOW load(1, XDATA, add(CFA_XSP16, literal(-5)))
          CFI (cfiCond185) ?RET_HIGH load(1, XDATA, add(CFA_XSP16, literal(-4)))
          CFI (cfiCond185) ?BRET_EXT load(1, XDATA, add(CFA_XSP16, literal(-3)))
          CFI (cfiCond185) DPL0 load(1, XDATA, add(CFA_XSP16, literal(-2)))
          CFI (cfiCond185) DPH0 load(1, XDATA, add(CFA_XSP16, literal(-1)))
          CFI (cfiCond185) CFA_SP SP+-2
          CFI (cfiCond185) CFA_XSP16 add(XSP16, 11)
          CFI Block cfiCond186 Using cfiCommon0
          CFI (cfiCond186) Function ZDO_beaconNotifyIndCB
          CFI (cfiCond186) Conditional ??CrossCallReturnLabel_66
          CFI (cfiCond186) R6 load(1, XDATA, add(CFA_XSP16, literal(-14)))
          CFI (cfiCond186) VB load(1, XDATA, add(CFA_XSP16, literal(-13)))
          CFI (cfiCond186) V0 load(1, XDATA, add(CFA_XSP16, literal(-12)))
          CFI (cfiCond186) V1 load(1, XDATA, add(CFA_XSP16, literal(-11)))
          CFI (cfiCond186) V2 load(1, XDATA, add(CFA_XSP16, literal(-10)))
          CFI (cfiCond186) V3 load(1, XDATA, add(CFA_XSP16, literal(-9)))
          CFI (cfiCond186) V4 load(1, XDATA, add(CFA_XSP16, literal(-8)))
          CFI (cfiCond186) V5 load(1, XDATA, add(CFA_XSP16, literal(-7)))
          CFI (cfiCond186) R7 load(1, XDATA, add(CFA_XSP16, literal(-6)))
          CFI (cfiCond186) ?RET_LOW load(1, XDATA, add(CFA_XSP16, literal(-5)))
          CFI (cfiCond186) ?RET_HIGH load(1, XDATA, add(CFA_XSP16, literal(-4)))
          CFI (cfiCond186) ?BRET_EXT load(1, XDATA, add(CFA_XSP16, literal(-3)))
          CFI (cfiCond186) DPL0 load(1, XDATA, add(CFA_XSP16, literal(-2)))
          CFI (cfiCond186) DPH0 load(1, XDATA, add(CFA_XSP16, literal(-1)))
          CFI (cfiCond186) CFA_SP SP+-2
          CFI (cfiCond186) CFA_XSP16 add(XSP16, 14)
          CFI Block cfiCond187 Using cfiCommon0
          CFI (cfiCond187) Function ZDO_RegisterForZdoCB
          CFI (cfiCond187) Conditional ??CrossCallReturnLabel_67
          CFI (cfiCond187) DPL0 Frame(CFA_SP, 4)
          CFI (cfiCond187) DPH0 Frame(CFA_SP, 5)
          CFI (cfiCond187) CFA_SP SP+-7
          CFI Block cfiCond188 Using cfiCommon0
          CFI (cfiCond188) Function ZDOInitDevice
          CFI (cfiCond188) Conditional ??CrossCallReturnLabel_68
          CFI (cfiCond188) R6 load(1, XDATA, add(CFA_XSP16, literal(-10)))
          CFI (cfiCond188) VB load(1, XDATA, add(CFA_XSP16, literal(-9)))
          CFI (cfiCond188) V0 load(1, XDATA, add(CFA_XSP16, literal(-8)))
          CFI (cfiCond188) V1 load(1, XDATA, add(CFA_XSP16, literal(-7)))
          CFI (cfiCond188) R7 load(1, XDATA, add(CFA_XSP16, literal(-6)))
          CFI (cfiCond188) ?RET_LOW load(1, XDATA, add(CFA_XSP16, literal(-5)))
          CFI (cfiCond188) ?RET_HIGH load(1, XDATA, add(CFA_XSP16, literal(-4)))
          CFI (cfiCond188) ?BRET_EXT load(1, XDATA, add(CFA_XSP16, literal(-3)))
          CFI (cfiCond188) DPL0 load(1, XDATA, add(CFA_XSP16, literal(-2)))
          CFI (cfiCond188) DPH0 load(1, XDATA, add(CFA_XSP16, literal(-1)))
          CFI (cfiCond188) CFA_SP SP+-2
          CFI (cfiCond188) CFA_XSP16 add(XSP16, 12)
          CFI Block cfiCond189 Using cfiCommon0
          CFI (cfiCond189) Function ZDO_ConcentratorIndicationCB
          CFI (cfiCond189) Conditional ??CrossCallReturnLabel_69
          CFI (cfiCond189) R6 load(1, XDATA, add(CFA_XSP16, literal(-9)))
          CFI (cfiCond189) VB load(1, XDATA, add(CFA_XSP16, literal(-8)))
          CFI (cfiCond189) V0 load(1, XDATA, add(CFA_XSP16, literal(-7)))
          CFI (cfiCond189) R7 load(1, XDATA, add(CFA_XSP16, literal(-6)))
          CFI (cfiCond189) ?RET_LOW load(1, XDATA, add(CFA_XSP16, literal(-5)))
          CFI (cfiCond189) ?RET_HIGH load(1, XDATA, add(CFA_XSP16, literal(-4)))
          CFI (cfiCond189) ?BRET_EXT load(1, XDATA, add(CFA_XSP16, literal(-3)))
          CFI (cfiCond189) DPL0 load(1, XDATA, add(CFA_XSP16, literal(-2)))
          CFI (cfiCond189) DPH0 load(1, XDATA, add(CFA_XSP16, literal(-1)))
          CFI (cfiCond189) CFA_SP SP+-2
          CFI (cfiCond189) CFA_XSP16 add(XSP16, 14)
          CFI Block cfiCond190 Using cfiCommon0
          CFI (cfiCond190) Function ZDO_SrcRtgIndCB
          CFI (cfiCond190) Conditional ??CrossCallReturnLabel_70
          CFI (cfiCond190) R6 load(1, XDATA, add(CFA_XSP16, literal(-9)))
          CFI (cfiCond190) VB load(1, XDATA, add(CFA_XSP16, literal(-8)))
          CFI (cfiCond190) V0 load(1, XDATA, add(CFA_XSP16, literal(-7)))
          CFI (cfiCond190) R7 load(1, XDATA, add(CFA_XSP16, literal(-6)))
          CFI (cfiCond190) ?RET_LOW load(1, XDATA, add(CFA_XSP16, literal(-5)))
          CFI (cfiCond190) ?RET_HIGH load(1, XDATA, add(CFA_XSP16, literal(-4)))
          CFI (cfiCond190) ?BRET_EXT load(1, XDATA, add(CFA_XSP16, literal(-3)))
          CFI (cfiCond190) DPL0 load(1, XDATA, add(CFA_XSP16, literal(-2)))
          CFI (cfiCond190) DPH0 load(1, XDATA, add(CFA_XSP16, literal(-1)))
          CFI (cfiCond190) CFA_SP SP+-2
          CFI (cfiCond190) CFA_XSP16 add(XSP16, 14)
          CFI Block cfiPicker191 Using cfiCommon1
          CFI (cfiPicker191) NoFunction
          CFI (cfiPicker191) Picker
        MOV     A,R2
        MOVX    @DPTR,A
        INC     DPTR
        MOV     A,R3
        MOVX    @DPTR,A
        RET
          CFI EndBlock cfiCond183
          CFI EndBlock cfiCond184
          CFI EndBlock cfiCond185
          CFI EndBlock cfiCond186
          CFI EndBlock cfiCond187
          CFI EndBlock cfiCond188
          CFI EndBlock cfiCond189
          CFI EndBlock cfiCond190
          CFI EndBlock cfiPicker191
// 2947 
// 2948 /*********************************************************************
// 2949  * @fn          ZDO_DeregisterForZdoCB
// 2950  *
// 2951  * @brief       Call this function to de-register the higher layer (for 
// 2952  *              example, the Application layer or MT layer) with ZDO 
// 2953  *              callbacks to get notified of some ZDO indication like
// 2954  *              existence of a concentrator or receipt of a source 
// 2955  *              route record.
// 2956  *
// 2957  * @param       indID - ZDO Indication ID
// 2958  *
// 2959  * @return      ZSuccess - successful, ZInvalidParameter if not
// 2960  */

        RSEG BANKED_CODE:HUGECODE:NOROOT(0)
// 2961 ZStatus_t ZDO_DeregisterForZdoCB( uint8 indID )
ZDO_DeregisterForZdoCB:
          CFI Block cfiBlock192 Using cfiCommon0
          CFI Function ZDO_DeregisterForZdoCB
        CODE
// 2962 {
        PUSH    DPL
          CFI DPL0 Frame(CFA_SP, 4)
          CFI CFA_SP SP+-4
        PUSH    DPH
          CFI DPH0 Frame(CFA_SP, 5)
          CFI CFA_SP SP+-5
        ; Saved register size: 2
        ; Auto size: 0
        MOV     A,R1
        MOV     R2,A
// 2963   // Check the range of the indication ID
// 2964   if ( indID < MAX_ZDO_CB_FUNC )
        CLR     C
        SUBB    A,#0x5
        JNC     ??ZDO_DeregisterForZdoCB_0
// 2965   {
// 2966     zdoCBFunc[indID] = NULL;
        MOV     A,R2
        LCALL   ?Subroutine21 & 0xFFFF
??CrossCallReturnLabel_22:
        CLR     A
        MOVX    @DPTR,A
        INC     DPTR
        MOVX    @DPTR,A
// 2967     return ZSuccess;
        MOV     R1,A
        SJMP    ??ZDO_DeregisterForZdoCB_1
// 2968   }
// 2969   
// 2970   return ZInvalidParameter;
??ZDO_DeregisterForZdoCB_0:
        MOV     R1,#0x2
??ZDO_DeregisterForZdoCB_1:
        LJMP    ?Subroutine3 & 0xFFFF
// 2971 }
          CFI EndBlock cfiBlock192

        RSEG BANKED_CODE:HUGECODE:NOROOT(0)
?Subroutine21:
          CFI Block cfiCond193 Using cfiCommon0
          CFI Function ZDO_RegisterForZdoCB
          CFI Conditional ??CrossCallReturnLabel_21
          CFI DPL0 Frame(CFA_SP, 4)
          CFI DPH0 Frame(CFA_SP, 5)
          CFI CFA_SP SP+-7
          CFI Block cfiCond194 Using cfiCommon0
          CFI (cfiCond194) Function ZDO_DeregisterForZdoCB
          CFI (cfiCond194) Conditional ??CrossCallReturnLabel_22
          CFI (cfiCond194) DPL0 Frame(CFA_SP, 4)
          CFI (cfiCond194) DPH0 Frame(CFA_SP, 5)
          CFI (cfiCond194) CFA_SP SP+-7
          CFI Block cfiPicker195 Using cfiCommon1
          CFI (cfiPicker195) NoFunction
          CFI (cfiPicker195) Picker
        ADD     A,R1
        LCALL   ?Subroutine29 & 0xFFFF
??CrossCallReturnLabel_37:
        RET
          CFI EndBlock cfiCond193
          CFI EndBlock cfiCond194
          CFI EndBlock cfiPicker195

        RSEG BANKED_CODE:HUGECODE:NOROOT(0)
?Subroutine29:
          CFI Block cfiCond196 Using cfiCommon0
          CFI Function ZDApp_InitZdoCBFunc
          CFI Conditional ??CrossCallReturnLabel_36
          CFI DPL0 Frame(CFA_SP, 4)
          CFI DPH0 Frame(CFA_SP, 5)
          CFI CFA_SP SP+-7
          CFI Block cfiCond197 Using cfiCommon0
          CFI (cfiCond197) Function ZDO_RegisterForZdoCB
          CFI (cfiCond197) Conditional ??CrossCallReturnLabel_37, ??CrossCallReturnLabel_21
          CFI (cfiCond197) DPL0 Frame(CFA_SP, 4)
          CFI (cfiCond197) DPH0 Frame(CFA_SP, 5)
          CFI (cfiCond197) CFA_SP SP+-9
          CFI Block cfiCond198 Using cfiCommon0
          CFI (cfiCond198) Function ZDO_DeregisterForZdoCB
          CFI (cfiCond198) Conditional ??CrossCallReturnLabel_37, ??CrossCallReturnLabel_22
          CFI (cfiCond198) DPL0 Frame(CFA_SP, 4)
          CFI (cfiCond198) DPH0 Frame(CFA_SP, 5)
          CFI (cfiCond198) CFA_SP SP+-9
          CFI Block cfiPicker199 Using cfiCommon1
          CFI (cfiPicker199) NoFunction
          CFI (cfiPicker199) Picker
        MOV     R0,A
        CLR     A
        RLC     A
        MOV     R1,A
        MOV     A,#zdoCBFunc & 0xff
        ADD     A,R0
        MOV     DPL,A
        MOV     A,#(zdoCBFunc >> 8) & 0xff
        ADDC    A,R1
        MOV     DPH,A
        RET
          CFI EndBlock cfiCond196
          CFI EndBlock cfiCond197
          CFI EndBlock cfiCond198
          CFI EndBlock cfiPicker199

        RSEG XDATA_ID:CODE:NOROOT(0)
`?<Initializer for zdoDiscCounter>`:
        DATA8
        DB 1

        RSEG XDATA_ID:CODE:NOROOT(0)
`?<Initializer for continueJoining>`:
        DATA8
        DB 1

        RSEG XDATA_ID:CODE:NOROOT(0)
`?<Initializer for ZDApp_epDesc>`:
        DATA8
        DB 0
        DATA16
        DW ZDAppTaskID
        DW 0H
        DATA8
        DB 0

        RSEG XDATA_ID:CODE:NOROOT(0)
`?<Initializer for ZDApp_SavedPollRate>`:
        DATA16
        DW 1000

        RSEG XDATA_ROM_C:CONST:REORDER:NOROOT(0)
        DATA32
__Constant_1:
        DD 1

        RSEG XDATA_ROM_C:CONST:REORDER:NOROOT(0)
        DATA32
__Constant_3e8:
        DD 1000

        RSEG BANK_RELAYS:CODE:REORDER:NOROOT(0)
`??ZDApp_Init::?relay`:
        CODE
        LCALL   ?BDISPATCH
        DATA24
        DC24    ZDApp_Init

        RSEG BANK_RELAYS:CODE:REORDER:NOROOT(0)
`??ZDApp_SecInit::?relay`:
        CODE
        LCALL   ?BDISPATCH
        DATA24
        DC24    ZDApp_SecInit

        RSEG BANK_RELAYS:CODE:REORDER:NOROOT(0)
`??ZDApp_event_loop::?relay`:
        CODE
        LCALL   ?BDISPATCH
        DATA24
        DC24    ZDApp_event_loop

        RSEG BANK_RELAYS:CODE:REORDER:NOROOT(0)
`??ZDApp_ProcessSecEvent::?relay`:
        CODE
        LCALL   ?BDISPATCH
        DATA24
        DC24    ZDApp_ProcessSecEvent

        RSEG BANK_RELAYS:CODE:REORDER:NOROOT(0)
`??ZDOInitDevice::?relay`:
        CODE
        LCALL   ?BDISPATCH
        DATA24
        DC24    ZDOInitDevice

        RSEG BANK_RELAYS:CODE:REORDER:NOROOT(0)
`??ZDApp_ReadNetworkRestoreState::?relay`:
        CODE
        LCALL   ?BDISPATCH
        DATA24
        DC24    ZDApp_ReadNetworkRestoreState

        RSEG BANK_RELAYS:CODE:REORDER:NOROOT(0)
`??ZDAppDetermineDeviceType::?relay`:
        CODE
        LCALL   ?BDISPATCH
        DATA24
        DC24    ZDAppDetermineDeviceType

        RSEG BANK_RELAYS:CODE:REORDER:NOROOT(0)
`??ZDApp_NetworkStartEvt::?relay`:
        CODE
        LCALL   ?BDISPATCH
        DATA24
        DC24    ZDApp_NetworkStartEvt

        RSEG BANK_RELAYS:CODE:REORDER:NOROOT(0)
`??ZDApp_DeviceAuthEvt::?relay`:
        CODE
        LCALL   ?BDISPATCH
        DATA24
        DC24    ZDApp_DeviceAuthEvt

        RSEG BANK_RELAYS:CODE:REORDER:NOROOT(0)
`??ZDApp_SaveNetworkStateEvt::?relay`:
        CODE
        LCALL   ?BDISPATCH
        DATA24
        DC24    ZDApp_SaveNetworkStateEvt

        RSEG BANK_RELAYS:CODE:REORDER:NOROOT(0)
`??ZDApp_RestoreNetworkState::?relay`:
        CODE
        LCALL   ?BDISPATCH
        DATA24
        DC24    ZDApp_RestoreNetworkState

        RSEG BANK_RELAYS:CODE:REORDER:NOROOT(0)
`??ZDApp_InitUserDesc::?relay`:
        CODE
        LCALL   ?BDISPATCH
        DATA24
        DC24    ZDApp_InitUserDesc

        RSEG BANK_RELAYS:CODE:REORDER:NOROOT(0)
`??ZDAppCheckForHoldKey::?relay`:
        CODE
        LCALL   ?BDISPATCH
        DATA24
        DC24    ZDAppCheckForHoldKey

        RSEG BANK_RELAYS:CODE:REORDER:NOROOT(0)
`??ZDApp_ProcessOSALMsg::?relay`:
        CODE
        LCALL   ?BDISPATCH
        DATA24
        DC24    ZDApp_ProcessOSALMsg

        RSEG BANK_RELAYS:CODE:REORDER:NOROOT(0)
`??ZDApp_ProcessMsgCBs::?relay`:
        CODE
        LCALL   ?BDISPATCH
        DATA24
        DC24    ZDApp_ProcessMsgCBs

        RSEG BANK_RELAYS:CODE:REORDER:NOROOT(0)
`??ZDApp_RegisterCBs::?relay`:
        CODE
        LCALL   ?BDISPATCH
        DATA24
        DC24    ZDApp_RegisterCBs

        RSEG BANK_RELAYS:CODE:REORDER:NOROOT(0)
`??ZDApp_ProcessSecMsg::?relay`:
        CODE
        LCALL   ?BDISPATCH
        DATA24
        DC24    ZDApp_ProcessSecMsg

        RSEG BANK_RELAYS:CODE:REORDER:NOROOT(0)
`??ZDApp_ProcessNetworkJoin::?relay`:
        CODE
        LCALL   ?BDISPATCH
        DATA24
        DC24    ZDApp_ProcessNetworkJoin

        RSEG BANK_RELAYS:CODE:REORDER:NOROOT(0)
`??ZDApp_SaveNwkKey::?relay`:
        CODE
        LCALL   ?BDISPATCH
        DATA24
        DC24    ZDApp_SaveNwkKey

        RSEG BANK_RELAYS:CODE:REORDER:NOROOT(0)
`??ZDApp_ResetNwkKey::?relay`:
        CODE
        LCALL   ?BDISPATCH
        DATA24
        DC24    ZDApp_ResetNwkKey

        RSEG BANK_RELAYS:CODE:REORDER:NOROOT(0)
`??ZDApp_RestoreNwkKey::?relay`:
        CODE
        LCALL   ?BDISPATCH
        DATA24
        DC24    ZDApp_RestoreNwkKey

        RSEG BANK_RELAYS:CODE:REORDER:NOROOT(0)
`??ZDApp_ResetTimerStart::?relay`:
        CODE
        LCALL   ?BDISPATCH
        DATA24
        DC24    ZDApp_ResetTimerStart

        RSEG BANK_RELAYS:CODE:REORDER:NOROOT(0)
`??ZDApp_ResetTimerCancel::?relay`:
        CODE
        LCALL   ?BDISPATCH
        DATA24
        DC24    ZDApp_ResetTimerCancel

        RSEG BANK_RELAYS:CODE:REORDER:NOROOT(0)
`??ZDApp_LeaveCtrlInit::?relay`:
        CODE
        LCALL   ?BDISPATCH
        DATA24
        DC24    ZDApp_LeaveCtrlInit

        RSEG BANK_RELAYS:CODE:REORDER:NOROOT(0)
`??ZDApp_LeaveCtrlSet::?relay`:
        CODE
        LCALL   ?BDISPATCH
        DATA24
        DC24    ZDApp_LeaveCtrlSet

        RSEG BANK_RELAYS:CODE:REORDER:NOROOT(0)
`??ZDApp_LeaveCtrlBypass::?relay`:
        CODE
        LCALL   ?BDISPATCH
        DATA24
        DC24    ZDApp_LeaveCtrlBypass

        RSEG BANK_RELAYS:CODE:REORDER:NOROOT(0)
`??ZDApp_LeaveCtrlStartup::?relay`:
        CODE
        LCALL   ?BDISPATCH
        DATA24
        DC24    ZDApp_LeaveCtrlStartup

        RSEG BANK_RELAYS:CODE:REORDER:NOROOT(0)
`??ZDApp_LeaveReset::?relay`:
        CODE
        LCALL   ?BDISPATCH
        DATA24
        DC24    ZDApp_LeaveReset

        RSEG BANK_RELAYS:CODE:REORDER:NOROOT(0)
`??ZDApp_LeaveUpdate::?relay`:
        CODE
        LCALL   ?BDISPATCH
        DATA24
        DC24    ZDApp_LeaveUpdate

        RSEG BANK_RELAYS:CODE:REORDER:NOROOT(0)
`??ZDApp_NetworkDiscoveryReq::?relay`:
        CODE
        LCALL   ?BDISPATCH
        DATA24
        DC24    ZDApp_NetworkDiscoveryReq

        RSEG BANK_RELAYS:CODE:REORDER:NOROOT(0)
`??ZDApp_JoinReq::?relay`:
        CODE
        LCALL   ?BDISPATCH
        DATA24
        DC24    ZDApp_JoinReq

        RSEG BANK_RELAYS:CODE:REORDER:NOROOT(0)
`??ZDApp_SendEventMsg::?relay`:
        CODE
        LCALL   ?BDISPATCH
        DATA24
        DC24    ZDApp_SendEventMsg

        RSEG BANK_RELAYS:CODE:REORDER:NOROOT(0)
`??ZDApp_SendMsg::?relay`:
        CODE
        LCALL   ?BDISPATCH
        DATA24
        DC24    ZDApp_SendMsg

        RSEG BANK_RELAYS:CODE:REORDER:NOROOT(0)
`??ZDO_NetworkDiscoveryConfirmCB::?relay`:
        CODE
        LCALL   ?BDISPATCH
        DATA24
        DC24    ZDO_NetworkDiscoveryConfirmCB

        RSEG BANK_RELAYS:CODE:REORDER:NOROOT(0)
`??ZDApp_NwkDescListProcessing::?relay`:
        CODE
        LCALL   ?BDISPATCH
        DATA24
        DC24    ZDApp_NwkDescListProcessing

        RSEG BANK_RELAYS:CODE:REORDER:NOROOT(0)
`??ZDO_NetworkFormationConfirmCB::?relay`:
        CODE
        LCALL   ?BDISPATCH
        DATA24
        DC24    ZDO_NetworkFormationConfirmCB

        RSEG BANK_RELAYS:CODE:REORDER:NOROOT(0)
`??ZDO_beaconNotifyIndCB::?relay`:
        CODE
        LCALL   ?BDISPATCH
        DATA24
        DC24    ZDO_beaconNotifyIndCB

        RSEG BANK_RELAYS:CODE:REORDER:NOROOT(0)
`??ZDO_StartRouterConfirmCB::?relay`:
        CODE
        LCALL   ?BDISPATCH
        DATA24
        DC24    ZDO_StartRouterConfirmCB

        RSEG BANK_RELAYS:CODE:REORDER:NOROOT(0)
`??ZDO_JoinConfirmCB::?relay`:
        CODE
        LCALL   ?BDISPATCH
        DATA24
        DC24    ZDO_JoinConfirmCB

        RSEG BANK_RELAYS:CODE:REORDER:NOROOT(0)
`??ZDO_AddrChangeIndicationCB::?relay`:
        CODE
        LCALL   ?BDISPATCH
        DATA24
        DC24    ZDO_AddrChangeIndicationCB

        RSEG BANK_RELAYS:CODE:REORDER:NOROOT(0)
`??ZDO_JoinIndicationCB::?relay`:
        CODE
        LCALL   ?BDISPATCH
        DATA24
        DC24    ZDO_JoinIndicationCB

        RSEG BANK_RELAYS:CODE:REORDER:NOROOT(0)
`??ZDO_ConcentratorIndicationCB::?relay`:
        CODE
        LCALL   ?BDISPATCH
        DATA24
        DC24    ZDO_ConcentratorIndicationCB

        RSEG BANK_RELAYS:CODE:REORDER:NOROOT(0)
`??ZDO_LeaveCnf::?relay`:
        CODE
        LCALL   ?BDISPATCH
        DATA24
        DC24    ZDO_LeaveCnf

        RSEG BANK_RELAYS:CODE:REORDER:NOROOT(0)
`??ZDO_LeaveInd::?relay`:
        CODE
        LCALL   ?BDISPATCH
        DATA24
        DC24    ZDO_LeaveInd

        RSEG BANK_RELAYS:CODE:REORDER:NOROOT(0)
`??ZDO_SyncIndicationCB::?relay`:
        CODE
        LCALL   ?BDISPATCH
        DATA24
        DC24    ZDO_SyncIndicationCB

        RSEG BANK_RELAYS:CODE:REORDER:NOROOT(0)
`??ZDO_ManytoOneFailureIndicationCB::?relay`:
        CODE
        LCALL   ?BDISPATCH
        DATA24
        DC24    ZDO_ManytoOneFailureIndicationCB

        RSEG BANK_RELAYS:CODE:REORDER:NOROOT(0)
`??ZDO_PollConfirmCB::?relay`:
        CODE
        LCALL   ?BDISPATCH
        DATA24
        DC24    ZDO_PollConfirmCB

        RSEG BANK_RELAYS:CODE:REORDER:NOROOT(0)
`??AddrMgrWriteNVRequest::?relay`:
        CODE
        LCALL   ?BDISPATCH
        DATA24
        DC24    AddrMgrWriteNVRequest

        RSEG BANK_RELAYS:CODE:REORDER:NOROOT(0)
`??ZDO_UpdateDeviceIndication::?relay`:
        CODE
        LCALL   ?BDISPATCH
        DATA24
        DC24    ZDO_UpdateDeviceIndication

        RSEG BANK_RELAYS:CODE:REORDER:NOROOT(0)
`??ZDApp_InMsgCB::?relay`:
        CODE
        LCALL   ?BDISPATCH
        DATA24
        DC24    ZDApp_InMsgCB

        RSEG BANK_RELAYS:CODE:REORDER:NOROOT(0)
`??ZDApp_ChangeMatchDescRespPermission::?relay`:
        CODE
        LCALL   ?BDISPATCH
        DATA24
        DC24    ZDApp_ChangeMatchDescRespPermission

        RSEG BANK_RELAYS:CODE:REORDER:NOROOT(0)
`??ZDApp_NetworkInit::?relay`:
        CODE
        LCALL   ?BDISPATCH
        DATA24
        DC24    ZDApp_NetworkInit

        RSEG BANK_RELAYS:CODE:REORDER:NOROOT(0)
`??ZDApp_NwkStateUpdateCB::?relay`:
        CODE
        LCALL   ?BDISPATCH
        DATA24
        DC24    ZDApp_NwkStateUpdateCB

        RSEG BANK_RELAYS:CODE:REORDER:NOROOT(0)
`??ZDApp_NodeProfileSync::?relay`:
        CODE
        LCALL   ?BDISPATCH
        DATA24
        DC24    ZDApp_NodeProfileSync

        RSEG BANK_RELAYS:CODE:REORDER:NOROOT(0)
`??ZDApp_StartJoiningCycle::?relay`:
        CODE
        LCALL   ?BDISPATCH
        DATA24
        DC24    ZDApp_StartJoiningCycle

        RSEG BANK_RELAYS:CODE:REORDER:NOROOT(0)
`??ZDApp_StopJoiningCycle::?relay`:
        CODE
        LCALL   ?BDISPATCH
        DATA24
        DC24    ZDApp_StopJoiningCycle

        RSEG BANK_RELAYS:CODE:REORDER:NOROOT(0)
`??ZDApp_AnnounceNewAddress::?relay`:
        CODE
        LCALL   ?BDISPATCH
        DATA24
        DC24    ZDApp_AnnounceNewAddress

        RSEG BANK_RELAYS:CODE:REORDER:NOROOT(0)
`??ZDApp_NVUpdate::?relay`:
        CODE
        LCALL   ?BDISPATCH
        DATA24
        DC24    ZDApp_NVUpdate

        RSEG BANK_RELAYS:CODE:REORDER:NOROOT(0)
`??ZDApp_CoordStartPANIDConflictCB::?relay`:
        CODE
        LCALL   ?BDISPATCH
        DATA24
        DC24    ZDApp_CoordStartPANIDConflictCB

        RSEG BANK_RELAYS:CODE:REORDER:NOROOT(0)
`??ZDO_SrcRtgIndCB::?relay`:
        CODE
        LCALL   ?BDISPATCH
        DATA24
        DC24    ZDO_SrcRtgIndCB

        RSEG BANK_RELAYS:CODE:REORDER:NOROOT(0)
`??ZDApp_InitZdoCBFunc::?relay`:
        CODE
        LCALL   ?BDISPATCH
        DATA24
        DC24    ZDApp_InitZdoCBFunc

        RSEG BANK_RELAYS:CODE:REORDER:NOROOT(0)
`??ZDO_RegisterForZdoCB::?relay`:
        CODE
        LCALL   ?BDISPATCH
        DATA24
        DC24    ZDO_RegisterForZdoCB

        RSEG BANK_RELAYS:CODE:REORDER:NOROOT(0)
`??ZDO_DeregisterForZdoCB::?relay`:
        CODE
        LCALL   ?BDISPATCH
        DATA24
        DC24    ZDO_DeregisterForZdoCB

        END
// 2972 
// 2973 /*********************************************************************
// 2974 *********************************************************************/
// 
// 4 888 bytes in segment BANKED_CODE
//   378 bytes in segment BANK_RELAYS
//    10 bytes in segment XDATA_I
//    10 bytes in segment XDATA_ID
//     8 bytes in segment XDATA_ROM_C
//    51 bytes in segment XDATA_Z
// 
//   388 bytes of CODE     memory
//     0 bytes of CONST    memory (+ 8 bytes shared)
// 4 888 bytes of HUGECODE memory
//    61 bytes of XDATA    memory
//
//Errors: none
//Warnings: none
