///////////////////////////////////////////////////////////////////////////////
//
// IAR C/C++ Compiler V9.30.3.3983 for 8051               25/Apr/2017  12:05:44
// Copyright 2004-2016 IAR Systems AB.
// Standalone license - IAR Embedded Workbench for 8051
//
//    Core               =  plain
//    Code model         =  banked
//    Data model         =  large
//    Calling convention =  xdata reentrant
//    Constant location  =  data_rom
//    Dptr setup         =  1,16
//                          
//    Source file        =  
//        C:\Texas
//        Instruments\ZStack-CC2530-2.4.0-1.4.0\Components\mt\MT_TASK.c
//    Command line       =  
//        -f "C:\Texas
//        Instruments\ZStack-CC2530-2.4.0-1.4.0\Projects\zstack\Samples\NetworkTopology-Star\CC2530DB\..\..\..\Tools\CC2530DB\f8wCoord.cfg"
//        (-DCPU32MHZ -DROOT=__near_func -DMAC_CFG_APP_PENDING_QUEUE=TRUE
//        -DMAC_CFG_TX_DATA_MAX=5 -DMAC_CFG_TX_MAX=8 -DMAC_CFG_RX_MAX=5
//        -DZDO_COORDINATOR -DRTR_NWK) -f "C:\Texas
//        Instruments\ZStack-CC2530-2.4.0-1.4.0\Projects\zstack\Samples\NetworkTopology-Star\CC2530DB\..\..\..\Tools\CC2530DB\f8wConfig-top.cfg"
//        (-DSECURE=0 -DZG_SECURE_DYNAMIC=0 -DREFLECTOR
//        -DDEFAULT_CHANLIST=0x00000800 -DZDAPP_CONFIG_PAN_ID=0x2100
//        -DNWK_START_DELAY=100 -DEXTENDED_JOINING_RANDOM_MASK=0x007F
//        -DBEACON_REQUEST_DELAY=100 -DBEACON_REQ_DELAY_MASK=0x00FF
//        -DLINK_STATUS_JITTER_MASK=0x007F -DROUTE_EXPIRY_TIME=30
//        -DAPSC_ACK_WAIT_DURATION_POLLED=3000 -DNWK_INDIRECT_MSG_TIMEOUT=7
//        -DMAX_RREQ_ENTRIES=8 -DAPSC_MAX_FRAME_RETRIES=3
//        -DNWK_MAX_DATA_RETRIES=2 -DMAX_POLL_FAILURE_RETRIES=2 -DMAX_BCAST=9
//        -DAPS_MAX_GROUPS=16 -DMAX_RTG_ENTRIES=40 -DNWK_MAX_BINDING_ENTRIES=4
//        -DMAX_BINDING_CLUSTER_IDS=4 "-DDEFAULT_KEY={0x01, 0x03, 0x05, 0x07,
//        0x09, 0x0B, 0x0D, 0x0F, 0x00, 0x02, 0x04, 0x06, 0x08, 0x0A, 0x0C,
//        0x0D}" -DMAC_MAX_FRAME_SIZE=116 -DZDNWKMGR_MIN_TRANSMISSIONS=20
//        "-DCONST=const __code" -DGENERIC=__generic -DRFD_RCVC_ALWAYS_ON=TRUE
//        -DPOLL_RATE=1000 -DQUEUED_POLL_RATE=100 -DRESPONSE_POLL_RATE=100)
//        -DREJOIN_POLL_RATE=440 "C:\Texas
//        Instruments\ZStack-CC2530-2.4.0-1.4.0\Components\mt\MT_TASK.c" -D
//        HOLD_AUTO_START -D BUILD_ALL_DEVICES -D REFLECTOR -D NV_INIT -D
//        xNV_RESTORE -D ZTOOL_P1 -D MT_TASK -D MT_SYS_FUNC -D xMT_SAPI_FUNC -D
//        xMT_SAPI_CB_FUNC -D STARTEST -D LCD_USE -lC "C:\Texas
//        Instruments\ZStack-CC2530-2.4.0-1.4.0\Projects\zstack\Samples\NetworkTopology-Star\CC2530DB\MPCoordinator\List"
//        -lA "C:\Texas
//        Instruments\ZStack-CC2530-2.4.0-1.4.0\Projects\zstack\Samples\NetworkTopology-Star\CC2530DB\MPCoordinator\List"
//        --diag_suppress Pe001,Pa010 -o "C:\Texas
//        Instruments\ZStack-CC2530-2.4.0-1.4.0\Projects\zstack\Samples\NetworkTopology-Star\CC2530DB\MPCoordinator\Obj"
//        -e --no_code_motion --debug --core=plain --dptr=16,1
//        --data_model=large --code_model=banked
//        --calling_convention=xdata_reentrant --place_constants=data_rom
//        --nr_virtual_regs 8 -I "C:\Texas
//        Instruments\ZStack-CC2530-2.4.0-1.4.0\Projects\zstack\Samples\NetworkTopology-Star\CC2530DB\"
//        -I "C:\Texas
//        Instruments\ZStack-CC2530-2.4.0-1.4.0\Projects\zstack\Samples\NetworkTopology-Star\CC2530DB\..\Source\"
//        -I "C:\Texas
//        Instruments\ZStack-CC2530-2.4.0-1.4.0\Projects\zstack\Samples\NetworkTopology-Star\CC2530DB\..\..\..\ZMain\TI2530DB\"
//        -I "C:\Texas
//        Instruments\ZStack-CC2530-2.4.0-1.4.0\Projects\zstack\Samples\NetworkTopology-Star\CC2530DB\..\..\..\..\..\Components\hal\include\"
//        -I "C:\Texas
//        Instruments\ZStack-CC2530-2.4.0-1.4.0\Projects\zstack\Samples\NetworkTopology-Star\CC2530DB\..\..\..\..\..\Components\hal\target\CC2530EB\"
//        -I "C:\Texas
//        Instruments\ZStack-CC2530-2.4.0-1.4.0\Projects\zstack\Samples\NetworkTopology-Star\CC2530DB\..\..\..\..\..\Components\mac\include\"
//        -I "C:\Texas
//        Instruments\ZStack-CC2530-2.4.0-1.4.0\Projects\zstack\Samples\NetworkTopology-Star\CC2530DB\..\..\..\..\..\Components\mac\high_level\"
//        -I "C:\Texas
//        Instruments\ZStack-CC2530-2.4.0-1.4.0\Projects\zstack\Samples\NetworkTopology-Star\CC2530DB\..\..\..\..\..\Components\mac\low_level\srf04\"
//        -I "C:\Texas
//        Instruments\ZStack-CC2530-2.4.0-1.4.0\Projects\zstack\Samples\NetworkTopology-Star\CC2530DB\..\..\..\..\..\Components\mac\low_level\srf04\single_chip\"
//        -I "C:\Texas
//        Instruments\ZStack-CC2530-2.4.0-1.4.0\Projects\zstack\Samples\NetworkTopology-Star\CC2530DB\..\..\..\..\..\Components\mt\"
//        -I "C:\Texas
//        Instruments\ZStack-CC2530-2.4.0-1.4.0\Projects\zstack\Samples\NetworkTopology-Star\CC2530DB\..\..\..\..\..\Components\osal\include\"
//        -I "C:\Texas
//        Instruments\ZStack-CC2530-2.4.0-1.4.0\Projects\zstack\Samples\NetworkTopology-Star\CC2530DB\..\..\..\..\..\Components\osal\mcu\ccsoc\"
//        -I "C:\Texas
//        Instruments\ZStack-CC2530-2.4.0-1.4.0\Projects\zstack\Samples\NetworkTopology-Star\CC2530DB\..\..\..\..\..\Components\services\saddr\"
//        -I "C:\Texas
//        Instruments\ZStack-CC2530-2.4.0-1.4.0\Projects\zstack\Samples\NetworkTopology-Star\CC2530DB\..\..\..\..\..\Components\services\sdata\"
//        -I "C:\Texas
//        Instruments\ZStack-CC2530-2.4.0-1.4.0\Projects\zstack\Samples\NetworkTopology-Star\CC2530DB\..\..\..\..\..\Components\stack\af\"
//        -I "C:\Texas
//        Instruments\ZStack-CC2530-2.4.0-1.4.0\Projects\zstack\Samples\NetworkTopology-Star\CC2530DB\..\..\..\..\..\Components\stack\nwk\"
//        -I "C:\Texas
//        Instruments\ZStack-CC2530-2.4.0-1.4.0\Projects\zstack\Samples\NetworkTopology-Star\CC2530DB\..\..\..\..\..\Components\stack\sapi\"
//        -I "C:\Texas
//        Instruments\ZStack-CC2530-2.4.0-1.4.0\Projects\zstack\Samples\NetworkTopology-Star\CC2530DB\..\..\..\..\..\Components\stack\sec\"
//        -I "C:\Texas
//        Instruments\ZStack-CC2530-2.4.0-1.4.0\Projects\zstack\Samples\NetworkTopology-Star\CC2530DB\..\..\..\..\..\Components\stack\sys\"
//        -I "C:\Texas
//        Instruments\ZStack-CC2530-2.4.0-1.4.0\Projects\zstack\Samples\NetworkTopology-Star\CC2530DB\..\..\..\..\..\Components\stack\zdo\"
//        -I "C:\Texas
//        Instruments\ZStack-CC2530-2.4.0-1.4.0\Projects\zstack\Samples\NetworkTopology-Star\CC2530DB\..\..\..\..\..\Components\zmac\"
//        -I "C:\Texas
//        Instruments\ZStack-CC2530-2.4.0-1.4.0\Projects\zstack\Samples\NetworkTopology-Star\CC2530DB\..\..\..\..\..\Components\zmac\f8w\"
//        -Ohz --require_prototypes
//    List file          =  
//        C:\Texas
//        Instruments\ZStack-CC2530-2.4.0-1.4.0\Projects\zstack\Samples\NetworkTopology-Star\CC2530DB\MPCoordinator\List\MT_TASK.s51
//
///////////////////////////////////////////////////////////////////////////////

        NAME MT_TASK

        RTMODEL "__SystemLibrary", "CLib"
        RTMODEL "__calling_convention", "xdata_reentrant"
        RTMODEL "__code_model", "banked"
        RTMODEL "__core", "plain"
        RTMODEL "__data_model", "large"
        RTMODEL "__dptr_size", "16"
        RTMODEL "__extended_stack", "disabled"
        RTMODEL "__location_for_constants", "data"
        RTMODEL "__number_of_dptrs", "1"
        RTMODEL "__rt_version", "1"

        RSEG DOVERLAY:DATA:NOROOT(0)
        RSEG IOVERLAY:IDATA:NOROOT(0)
        RSEG ISTACK:IDATA:NOROOT(0)
        RSEG PSTACK:XDATA:NOROOT(0)
        RSEG XSTACK:XDATA:NOROOT(0)

        EXTERN ?V0
        EXTERN ?V1
        EXTERN ?V2
        EXTERN ?BANKED_ENTER_XDATA
        EXTERN ?BANKED_LEAVE_XDATA
        EXTERN ?BDISPATCH

        PUBLIC `??MT_ProcessEvent::?relay`
        FUNCTION `??MT_ProcessEvent::?relay`,0203H
        PUBLIC `??MT_ProcessIncomingCommand::?relay`
        FUNCTION `??MT_ProcessIncomingCommand::?relay`,0203H
        PUBLIC `??MT_TaskInit::?relay`
        FUNCTION `??MT_TaskInit::?relay`,0203H
        PUBLIC `??MT_TransportAlloc::?relay`
        FUNCTION `??MT_TransportAlloc::?relay`,0203H
        PUBLIC `??MT_TransportSend::?relay`
        FUNCTION `??MT_TransportSend::?relay`,0203H
        PUBLIC MT_ProcessEvent
        FUNCTION MT_ProcessEvent,0a1203H
        ARGFRAME XSTACK, 0, STACK
        LOCFRAME XSTACK, 10, STACK
        PUBLIC MT_ProcessIncomingCommand
        FUNCTION MT_ProcessIncomingCommand,0a1203H
        ARGFRAME XSTACK, 10, STACK
        ARGFRAME IOVERLAY, 0, STATIC
        ARGFRAME DOVERLAY, 0, STATIC
        LOCFRAME ISTACK, 1, STACK
        LOCFRAME XSTACK, 11, STACK
        PUBLIC MT_TaskInit
        FUNCTION MT_TaskInit,021203H
        ARGFRAME XSTACK, 0, STACK
        LOCFRAME XSTACK, 9, STACK
        PUBLIC MT_TransportAlloc
        FUNCTION MT_TransportAlloc,0a1203H
        ARGFRAME XSTACK, 0, STACK
        LOCFRAME XSTACK, 10, STACK
        PUBLIC MT_TransportSend
        FUNCTION MT_TransportSend,0a1203H
        ARGFRAME XSTACK, 0, STACK
        LOCFRAME ISTACK, 1, STACK
        LOCFRAME XSTACK, 10, STACK
        
          CFI Names cfiNames0
          CFI StackFrame CFA_SP SP IDATA
          CFI StackFrame CFA_PSP16 PSP16 XDATA
          CFI StackFrame CFA_XSP16 XSP16 XDATA
          CFI StaticOverlayFrame CFA_IOVERLAY IOVERLAY
          CFI StaticOverlayFrame CFA_DOVERLAY DOVERLAY
          CFI Resource `PSW.CY`:1, `B.BR0`:1, `B.BR1`:1, `B.BR2`:1, `B.BR3`:1
          CFI Resource `B.BR4`:1, `B.BR5`:1, `B.BR6`:1, `B.BR7`:1, `VB.BR8`:1
          CFI Resource `VB.BR9`:1, `VB.BR10`:1, `VB.BR11`:1, `VB.BR12`:1
          CFI Resource `VB.BR13`:1, `VB.BR14`:1, `VB.BR15`:1, VB:8, B:8, A:8
          CFI Resource PSW:8, DPL0:8, DPH0:8, R0:8, R1:8, R2:8, R3:8, R4:8, R5:8
          CFI Resource R6:8, R7:8, V0:8, V1:8, V2:8, V3:8, V4:8, V5:8, V6:8, V7:8
          CFI Resource SP:8, PSPH:8, PSPL:8, PSP16:16, XSPH:8, XSPL:8, XSP16:16
          CFI VirtualResource ?RET:24
          CFI Resource ?BRET_EXT:8
          CFI VirtualResource ?RET_HIGH:8, ?RET_LOW:8
          CFI ResourceParts PSP16 PSPH, PSPL
          CFI ResourceParts XSP16 XSPH, XSPL
          CFI ResourceParts ?RET ?BRET_EXT, ?RET_HIGH, ?RET_LOW
          CFI EndNames cfiNames0
        
          CFI Common cfiCommon0 Using cfiNames0
          CFI CodeAlign 1
          CFI DataAlign -1
          CFI ReturnAddress ?RET CODE
          CFI CFA_DOVERLAY Used
          CFI CFA_IOVERLAY Used
          CFI CFA_SP SP+-3
          CFI CFA_PSP16 PSP16+0
          CFI CFA_XSP16 XSP16+0
          CFI `PSW.CY` SameValue
          CFI `B.BR0` SameValue
          CFI `B.BR1` SameValue
          CFI `B.BR2` SameValue
          CFI `B.BR3` SameValue
          CFI `B.BR4` SameValue
          CFI `B.BR5` SameValue
          CFI `B.BR6` SameValue
          CFI `B.BR7` SameValue
          CFI `VB.BR8` SameValue
          CFI `VB.BR9` SameValue
          CFI `VB.BR10` SameValue
          CFI `VB.BR11` SameValue
          CFI `VB.BR12` SameValue
          CFI `VB.BR13` SameValue
          CFI `VB.BR14` SameValue
          CFI `VB.BR15` SameValue
          CFI VB SameValue
          CFI B Undefined
          CFI A Undefined
          CFI PSW SameValue
          CFI DPL0 SameValue
          CFI DPH0 SameValue
          CFI R0 Undefined
          CFI R1 Undefined
          CFI R2 Undefined
          CFI R3 Undefined
          CFI R4 Undefined
          CFI R5 Undefined
          CFI R6 SameValue
          CFI R7 SameValue
          CFI V0 SameValue
          CFI V1 SameValue
          CFI V2 SameValue
          CFI V3 SameValue
          CFI V4 SameValue
          CFI V5 SameValue
          CFI V6 SameValue
          CFI V7 SameValue
          CFI PSPH Undefined
          CFI PSPL Undefined
          CFI XSPH Undefined
          CFI XSPL Undefined
          CFI ?RET Concat
          CFI ?BRET_EXT Frame(CFA_SP, 3)
          CFI ?RET_HIGH Frame(CFA_SP, 2)
          CFI ?RET_LOW Frame(CFA_SP, 1)
          CFI EndCommon cfiCommon0
        
HalUARTWrite        SYMBOL "HalUARTWrite"
`??HalUARTWrite::?relay` SYMBOL "?relay", HalUARTWrite
MTProcessAppRspMsg  SYMBOL "MTProcessAppRspMsg"
`??MTProcessAppRspMsg::?relay` SYMBOL "?relay", MTProcessAppRspMsg
MT_AfExec           SYMBOL "MT_AfExec"
`??MT_AfExec::?relay` SYMBOL "?relay", MT_AfExec
MT_Init             SYMBOL "MT_Init"
`??MT_Init::?relay` SYMBOL "?relay", MT_Init
MT_ProcessDebugMsg  SYMBOL "MT_ProcessDebugMsg"
`??MT_ProcessDebugMsg::?relay` SYMBOL "?relay", MT_ProcessDebugMsg
MT_ProcessDebugStr  SYMBOL "MT_ProcessDebugStr"
`??MT_ProcessDebugStr::?relay` SYMBOL "?relay", MT_ProcessDebugStr
MT_ProcessIncoming  SYMBOL "MT_ProcessIncoming"
`??MT_ProcessIncoming::?relay` SYMBOL "?relay", MT_ProcessIncoming
MT_SysOsalTimerExpired SYMBOL "MT_SysOsalTimerExpired"
`??MT_SysOsalTimerExpired::?relay` SYMBOL "?relay", MT_SysOsalTimerExpired
MT_UartCalcFCS      SYMBOL "MT_UartCalcFCS"
`??MT_UartCalcFCS::?relay` SYMBOL "?relay", MT_UartCalcFCS
MT_UartInit         SYMBOL "MT_UartInit"
`??MT_UartInit::?relay` SYMBOL "?relay", MT_UartInit
MT_UartRegisterTaskID SYMBOL "MT_UartRegisterTaskID"
`??MT_UartRegisterTaskID::?relay` SYMBOL "?relay", MT_UartRegisterTaskID
osal_msg_allocate   SYMBOL "osal_msg_allocate"
`??osal_msg_allocate::?relay` SYMBOL "?relay", osal_msg_allocate
osal_msg_deallocate SYMBOL "osal_msg_deallocate"
`??osal_msg_deallocate::?relay` SYMBOL "?relay", osal_msg_deallocate
osal_msg_receive    SYMBOL "osal_msg_receive"
`??osal_msg_receive::?relay` SYMBOL "?relay", osal_msg_receive
MT_ProcessEvent     SYMBOL "MT_ProcessEvent"
`??MT_ProcessEvent::?relay` SYMBOL "?relay", MT_ProcessEvent
MT_ProcessIncomingCommand SYMBOL "MT_ProcessIncomingCommand"
`??MT_ProcessIncomingCommand::?relay` SYMBOL "?relay", MT_ProcessIncomingCommand
MT_TaskInit         SYMBOL "MT_TaskInit"
`??MT_TaskInit::?relay` SYMBOL "?relay", MT_TaskInit
MT_TransportAlloc   SYMBOL "MT_TransportAlloc"
`??MT_TransportAlloc::?relay` SYMBOL "?relay", MT_TransportAlloc
MT_TransportSend    SYMBOL "MT_TransportSend"
`??MT_TransportSend::?relay` SYMBOL "?relay", MT_TransportSend

        EXTERN `??HalUARTWrite::?relay`
        FUNCTION `??HalUARTWrite::?relay`,00H
        EXTERN `??MTProcessAppRspMsg::?relay`
        FUNCTION `??MTProcessAppRspMsg::?relay`,00H
        EXTERN `??MT_AfExec::?relay`
        FUNCTION `??MT_AfExec::?relay`,00H
        EXTERN `??MT_Init::?relay`
        FUNCTION `??MT_Init::?relay`,00H
        EXTERN `??MT_ProcessDebugMsg::?relay`
        FUNCTION `??MT_ProcessDebugMsg::?relay`,00H
        EXTERN `??MT_ProcessDebugStr::?relay`
        FUNCTION `??MT_ProcessDebugStr::?relay`,00H
        EXTERN `??MT_ProcessIncoming::?relay`
        FUNCTION `??MT_ProcessIncoming::?relay`,00H
        EXTERN `??MT_SysOsalTimerExpired::?relay`
        FUNCTION `??MT_SysOsalTimerExpired::?relay`,00H
        EXTERN `??MT_UartCalcFCS::?relay`
        FUNCTION `??MT_UartCalcFCS::?relay`,00H
        EXTERN `??MT_UartInit::?relay`
        FUNCTION `??MT_UartInit::?relay`,00H
        EXTERN `??MT_UartRegisterTaskID::?relay`
        FUNCTION `??MT_UartRegisterTaskID::?relay`,00H
        EXTERN `??osal_msg_allocate::?relay`
        FUNCTION `??osal_msg_allocate::?relay`,00H
        EXTERN `??osal_msg_deallocate::?relay`
        FUNCTION `??osal_msg_deallocate::?relay`,00H
        EXTERN `??osal_msg_receive::?relay`
        FUNCTION `??osal_msg_receive::?relay`,00H
        EXTERN HalUARTWrite
        FUNCTION HalUARTWrite,0202H
        ARGFRAME ISTACK, 0, STACK
        ARGFRAME PSTACK, 0, STACK
        ARGFRAME XSTACK, 11, STACK
        ARGFRAME IOVERLAY, 0, STATIC
        ARGFRAME DOVERLAY, 0, STATIC
        EXTERN MTProcessAppRspMsg
        FUNCTION MTProcessAppRspMsg,0202H
        ARGFRAME ISTACK, 0, STACK
        ARGFRAME PSTACK, 0, STACK
        ARGFRAME XSTACK, 11, STACK
        ARGFRAME IOVERLAY, 0, STATIC
        ARGFRAME DOVERLAY, 0, STATIC
        EXTERN MT_AfExec
        FUNCTION MT_AfExec,0202H
        ARGFRAME ISTACK, 0, STACK
        ARGFRAME PSTACK, 0, STACK
        ARGFRAME XSTACK, 10, STACK
        ARGFRAME IOVERLAY, 0, STATIC
        ARGFRAME DOVERLAY, 0, STATIC
        EXTERN MT_Init
        FUNCTION MT_Init,0202H
        ARGFRAME ISTACK, 0, STACK
        ARGFRAME PSTACK, 0, STACK
        ARGFRAME XSTACK, 9, STACK
        ARGFRAME IOVERLAY, 0, STATIC
        ARGFRAME DOVERLAY, 0, STATIC
        EXTERN MT_ProcessDebugMsg
        FUNCTION MT_ProcessDebugMsg,0202H
        ARGFRAME ISTACK, 0, STACK
        ARGFRAME PSTACK, 0, STACK
        ARGFRAME XSTACK, 11, STACK
        ARGFRAME IOVERLAY, 0, STATIC
        ARGFRAME DOVERLAY, 0, STATIC
        EXTERN MT_ProcessDebugStr
        FUNCTION MT_ProcessDebugStr,0202H
        ARGFRAME ISTACK, 0, STACK
        ARGFRAME PSTACK, 0, STACK
        ARGFRAME XSTACK, 11, STACK
        ARGFRAME IOVERLAY, 0, STATIC
        ARGFRAME DOVERLAY, 0, STATIC
        EXTERN MT_ProcessIncoming
        FUNCTION MT_ProcessIncoming,0202H
        ARGFRAME ISTACK, 0, STACK
        ARGFRAME PSTACK, 0, STACK
        ARGFRAME XSTACK, 11, STACK
        ARGFRAME IOVERLAY, 0, STATIC
        ARGFRAME DOVERLAY, 0, STATIC
        EXTERN MT_SysOsalTimerExpired
        FUNCTION MT_SysOsalTimerExpired,0202H
        ARGFRAME ISTACK, 0, STACK
        ARGFRAME PSTACK, 0, STACK
        ARGFRAME XSTACK, 10, STACK
        ARGFRAME IOVERLAY, 0, STATIC
        ARGFRAME DOVERLAY, 0, STATIC
        EXTERN MT_TaskID
        EXTERN MT_UartCalcFCS
        FUNCTION MT_UartCalcFCS,0202H
        ARGFRAME ISTACK, 0, STACK
        ARGFRAME PSTACK, 0, STACK
        ARGFRAME XSTACK, 11, STACK
        ARGFRAME IOVERLAY, 0, STATIC
        ARGFRAME DOVERLAY, 0, STATIC
        EXTERN MT_UartInit
        FUNCTION MT_UartInit,0202H
        ARGFRAME ISTACK, 0, STACK
        ARGFRAME PSTACK, 0, STACK
        ARGFRAME XSTACK, 9, STACK
        ARGFRAME IOVERLAY, 0, STATIC
        ARGFRAME DOVERLAY, 0, STATIC
        EXTERN MT_UartRegisterTaskID
        FUNCTION MT_UartRegisterTaskID,0202H
        ARGFRAME ISTACK, 0, STACK
        ARGFRAME PSTACK, 0, STACK
        ARGFRAME XSTACK, 9, STACK
        ARGFRAME IOVERLAY, 0, STATIC
        ARGFRAME DOVERLAY, 0, STATIC
        EXTERN osal_msg_allocate
        FUNCTION osal_msg_allocate,0202H
        ARGFRAME ISTACK, 0, STACK
        ARGFRAME PSTACK, 0, STACK
        ARGFRAME XSTACK, 10, STACK
        ARGFRAME IOVERLAY, 0, STATIC
        ARGFRAME DOVERLAY, 0, STATIC
        EXTERN osal_msg_deallocate
        FUNCTION osal_msg_deallocate,0202H
        ARGFRAME ISTACK, 0, STACK
        ARGFRAME PSTACK, 0, STACK
        ARGFRAME XSTACK, 11, STACK
        ARGFRAME IOVERLAY, 0, STATIC
        ARGFRAME DOVERLAY, 0, STATIC
        EXTERN osal_msg_receive
        FUNCTION osal_msg_receive,0202H
        ARGFRAME ISTACK, 0, STACK
        ARGFRAME PSTACK, 0, STACK
        ARGFRAME XSTACK, 10, STACK
        ARGFRAME IOVERLAY, 0, STATIC
        ARGFRAME DOVERLAY, 0, STATIC

// C:\Texas Instruments\ZStack-CC2530-2.4.0-1.4.0\Components\mt\MT_TASK.c
//    1 /***************************************************************************************************
//    2   Filename:       MT_TASK.c
//    3   Revised:        $Date: 2010-07-20 19:48:51 -0700 (Tue, 20 Jul 2010) $
//    4   Revision:       $Revision: 23075 $
//    5 
//    6   Description:    MonitorTest Task handling routines
//    7 
//    8   Copyright 2007-2010 Texas Instruments Incorporated. All rights reserved.
//    9 
//   10   IMPORTANT: Your use of this Software is limited to those specific rights
//   11   granted under the terms of a software license agreement between the user
//   12   who downloaded the software, his/her employer (which must be your employer)
//   13   and Texas Instruments Incorporated (the "License").  You may not use this
//   14   Software unless you agree to abide by the terms of the License. The License
//   15   limits your use, and you acknowledge, that the Software may not be modified,
//   16   copied or distributed unless embedded on a Texas Instruments microcontroller
//   17   or used solely and exclusively in conjunction with a Texas Instruments radio
//   18   frequency transceiver, which is integrated into your product.  Other than for
//   19   the foregoing purpose, you may not use, reproduce, copy, prepare derivative
//   20   works of, modify, distribute, perform, display or sell this Software and/or
//   21   its documentation for any purpose.
//   22 
//   23   YOU FURTHER ACKNOWLEDGE AND AGREE THAT THE SOFTWARE AND DOCUMENTATION ARE
//   24   PROVIDED “AS IS?WITHOUT WARRANTY OF ANY KIND, EITHER EXPRESS OR IMPLIED,
//   25   INCLUDING WITHOUT LIMITATION, ANY WARRANTY OF MERCHANTABILITY, TITLE,
//   26   NON-INFRINGEMENT AND FITNESS FOR A PARTICULAR PURPOSE. IN NO EVENT SHALL
//   27   TEXAS INSTRUMENTS OR ITS LICENSORS BE LIABLE OR OBLIGATED UNDER CONTRACT,
//   28   NEGLIGENCE, STRICT LIABILITY, CONTRIBUTION, BREACH OF WARRANTY, OR OTHER
//   29   LEGAL EQUITABLE THEORY ANY DIRECT OR INDIRECT DAMAGES OR EXPENSES
//   30   INCLUDING BUT NOT LIMITED TO ANY INCIDENTAL, SPECIAL, INDIRECT, PUNITIVE
//   31   OR CONSEQUENTIAL DAMAGES, LOST PROFITS OR LOST DATA, COST OF PROCUREMENT
//   32   OF SUBSTITUTE GOODS, TECHNOLOGY, SERVICES, OR ANY CLAIMS BY THIRD PARTIES
//   33   (INCLUDING BUT NOT LIMITED TO ANY DEFENSE THEREOF), OR OTHER SIMILAR COSTS.
//   34 
//   35   Should you have any questions regarding your right to use this Software,
//   36   contact Texas Instruments Incorporated at www.TI.com.
//   37 
//   38  ***************************************************************************************************/
//   39 
//   40 /***************************************************************************************************
//   41  * INCLUDES
//   42  ***************************************************************************************************/
//   43 #include "ZComDef.h"
//   44 #include "MT_TASK.h"
//   45 #include "MT.h"
//   46 #include "MT_DEBUG.h"
//   47 #include "MT_UART.h"
//   48 #include "MT_UTIL.h"
//   49 #include "MT_SYS.h"
//   50 
//   51 
//   52 #if !defined( NONWK )
//   53 #include "MT_ZDO.h"
//   54 #include "MT_AF.h"
//   55 #endif  /* NONWK */
//   56 
//   57 #include "hal_uart.h"
//   58 #include "OSAL_Memory.h"
//   59 
//   60 /***************************************************************************************************
//   61  * LOCAL FUNCTIONS
//   62  ***************************************************************************************************/
//   63 void MT_ProcessIncomingCommand( mtOSALSerialData_t *msg );
//   64 
//   65 /***************************************************************************************************
//   66  * GLOBALS
//   67  ***************************************************************************************************/
//   68 
//   69 /***************************************************************************************************
//   70  * @fn      MT_TaskInit
//   71  *
//   72  * @brief  MonitorTest Task Initialization.  This function is put into the
//   73  *         task table.
//   74  *
//   75  * @param   byte task_id - task ID of the MT Task
//   76  *
//   77  * @return  void
//   78  ***************************************************************************************************/

        RSEG BANKED_CODE:HUGECODE:NOROOT(0)
//   79 void MT_TaskInit(uint8 task_id)
MT_TaskInit:
          CFI Block cfiBlock0 Using cfiCommon0
          CFI Function MT_TaskInit
        CODE
//   80 {
        FUNCALL MT_TaskInit, MT_UartInit
        LOCFRAME ISTACK, 0, STACK
        LOCFRAME PSTACK, 0, STACK
        LOCFRAME XSTACK, 9, STACK
        LOCFRAME IOVERLAY, 0, STATIC
        LOCFRAME DOVERLAY, 0, STATIC
        ARGFRAME ISTACK, 0, STACK
        ARGFRAME PSTACK, 0, STACK
        ARGFRAME XSTACK, 9, STACK
        ARGFRAME IOVERLAY, 0, STATIC
        ARGFRAME DOVERLAY, 0, STATIC
        FUNCALL MT_TaskInit, MT_UartRegisterTaskID
        LOCFRAME ISTACK, 0, STACK
        LOCFRAME PSTACK, 0, STACK
        LOCFRAME XSTACK, 9, STACK
        LOCFRAME IOVERLAY, 0, STATIC
        LOCFRAME DOVERLAY, 0, STATIC
        ARGFRAME ISTACK, 0, STACK
        ARGFRAME PSTACK, 0, STACK
        ARGFRAME XSTACK, 9, STACK
        ARGFRAME IOVERLAY, 0, STATIC
        ARGFRAME DOVERLAY, 0, STATIC
        FUNCALL MT_TaskInit, MT_Init
        LOCFRAME ISTACK, 0, STACK
        LOCFRAME PSTACK, 0, STACK
        LOCFRAME XSTACK, 9, STACK
        LOCFRAME IOVERLAY, 0, STATIC
        LOCFRAME DOVERLAY, 0, STATIC
        ARGFRAME ISTACK, 0, STACK
        ARGFRAME PSTACK, 0, STACK
        ARGFRAME XSTACK, 9, STACK
        ARGFRAME IOVERLAY, 0, STATIC
        ARGFRAME DOVERLAY, 0, STATIC
        MOV     A,#-0x9
        LCALL   ?BANKED_ENTER_XDATA
          CFI DPH0 load(1, XDATA, add(CFA_XSP16, literal(-1)))
          CFI DPL0 load(1, XDATA, add(CFA_XSP16, literal(-2)))
          CFI ?BRET_EXT load(1, XDATA, add(CFA_XSP16, literal(-3)))
          CFI ?RET_HIGH load(1, XDATA, add(CFA_XSP16, literal(-4)))
          CFI ?RET_LOW load(1, XDATA, add(CFA_XSP16, literal(-5)))
          CFI R7 load(1, XDATA, add(CFA_XSP16, literal(-6)))
          CFI V0 load(1, XDATA, add(CFA_XSP16, literal(-7)))
          CFI VB load(1, XDATA, add(CFA_XSP16, literal(-8)))
          CFI R6 load(1, XDATA, add(CFA_XSP16, literal(-9)))
          CFI CFA_SP SP+0
          CFI CFA_XSP16 add(XSP16, 9)
        ; Saved register size: 9
        ; Auto size: 0
        MOV     A,R1
        MOV     R6,A
//   81   /* Initialize the Serial port */
//   82   MT_UartInit();
        ; Setup parameters for call to function MT_UartInit
        LCALL   `??MT_UartInit::?relay`; Banked call to: MT_UartInit
//   83 
//   84   /* Register taskID - Do this after UartInit() because it will reset the taskID */
//   85   MT_UartRegisterTaskID(task_id);
        ; Setup parameters for call to function MT_UartRegisterTaskID
        MOV     A,R6
        MOV     R1,A
        LCALL   `??MT_UartRegisterTaskID::?relay`; Banked call to: MT_UartRegisterTaskID
//   86 
//   87   /* Initialize MT */
//   88   MT_Init(task_id);
        ; Setup parameters for call to function MT_Init
        MOV     A,R6
        MOV     R1,A
        LCALL   `??MT_Init::?relay`  ; Banked call to: MT_Init
//   89 }
        MOV     R7,#0x1
        LJMP    ?BANKED_LEAVE_XDATA
          CFI EndBlock cfiBlock0
//   90 
//   91 /***************************************************************************************************
//   92  * @fn      MT_ProcessEvent
//   93  *
//   94  * @brief MonitorTest Task Event Processor.  This task is put into the task table.
//   95  *
//   96  * @param   byte task_id - task ID of the MT Task
//   97  * @param   UINT16 events - event(s) for the MT Task
//   98  *
//   99  * @return  void
//  100  ***************************************************************************************************/

        RSEG BANKED_CODE:HUGECODE:NOROOT(0)
//  101 UINT16 MT_ProcessEvent(uint8 task_id, uint16 events)
MT_ProcessEvent:
          CFI Block cfiBlock1 Using cfiCommon0
          CFI Function MT_ProcessEvent
        CODE
//  102 {
        FUNCALL MT_ProcessEvent, MT_ProcessIncomingCommand
        LOCFRAME ISTACK, 0, STACK
        LOCFRAME PSTACK, 0, STACK
        LOCFRAME XSTACK, 10, STACK
        LOCFRAME IOVERLAY, 0, STATIC
        LOCFRAME DOVERLAY, 0, STATIC
        ARGFRAME ISTACK, 0, STACK
        ARGFRAME PSTACK, 0, STACK
        ARGFRAME XSTACK, 10, STACK
        ARGFRAME IOVERLAY, 0, STATIC
        ARGFRAME DOVERLAY, 0, STATIC
        FUNCALL MT_ProcessEvent, osal_msg_receive
        LOCFRAME ISTACK, 0, STACK
        LOCFRAME PSTACK, 0, STACK
        LOCFRAME XSTACK, 10, STACK
        LOCFRAME IOVERLAY, 0, STATIC
        LOCFRAME DOVERLAY, 0, STATIC
        ARGFRAME ISTACK, 0, STACK
        ARGFRAME PSTACK, 0, STACK
        ARGFRAME XSTACK, 10, STACK
        ARGFRAME IOVERLAY, 0, STATIC
        ARGFRAME DOVERLAY, 0, STATIC
        FUNCALL MT_ProcessEvent, MT_AfExec
        LOCFRAME ISTACK, 0, STACK
        LOCFRAME PSTACK, 0, STACK
        LOCFRAME XSTACK, 10, STACK
        LOCFRAME IOVERLAY, 0, STATIC
        LOCFRAME DOVERLAY, 0, STATIC
        ARGFRAME ISTACK, 0, STACK
        ARGFRAME PSTACK, 0, STACK
        ARGFRAME XSTACK, 10, STACK
        ARGFRAME IOVERLAY, 0, STATIC
        ARGFRAME DOVERLAY, 0, STATIC
        FUNCALL MT_ProcessEvent, MT_SysOsalTimerExpired
        LOCFRAME ISTACK, 0, STACK
        LOCFRAME PSTACK, 0, STACK
        LOCFRAME XSTACK, 10, STACK
        LOCFRAME IOVERLAY, 0, STATIC
        LOCFRAME DOVERLAY, 0, STATIC
        ARGFRAME ISTACK, 0, STACK
        ARGFRAME PSTACK, 0, STACK
        ARGFRAME XSTACK, 10, STACK
        ARGFRAME IOVERLAY, 0, STATIC
        ARGFRAME DOVERLAY, 0, STATIC
        FUNCALL MT_ProcessEvent, MT_SysOsalTimerExpired
        LOCFRAME ISTACK, 0, STACK
        LOCFRAME PSTACK, 0, STACK
        LOCFRAME XSTACK, 10, STACK
        LOCFRAME IOVERLAY, 0, STATIC
        LOCFRAME DOVERLAY, 0, STATIC
        ARGFRAME ISTACK, 0, STACK
        ARGFRAME PSTACK, 0, STACK
        ARGFRAME XSTACK, 10, STACK
        ARGFRAME IOVERLAY, 0, STATIC
        ARGFRAME DOVERLAY, 0, STATIC
        FUNCALL MT_ProcessEvent, MT_SysOsalTimerExpired
        LOCFRAME ISTACK, 0, STACK
        LOCFRAME PSTACK, 0, STACK
        LOCFRAME XSTACK, 10, STACK
        LOCFRAME IOVERLAY, 0, STATIC
        LOCFRAME DOVERLAY, 0, STATIC
        ARGFRAME ISTACK, 0, STACK
        ARGFRAME PSTACK, 0, STACK
        ARGFRAME XSTACK, 10, STACK
        ARGFRAME IOVERLAY, 0, STATIC
        ARGFRAME DOVERLAY, 0, STATIC
        FUNCALL MT_ProcessEvent, MT_SysOsalTimerExpired
        LOCFRAME ISTACK, 0, STACK
        LOCFRAME PSTACK, 0, STACK
        LOCFRAME XSTACK, 10, STACK
        LOCFRAME IOVERLAY, 0, STATIC
        LOCFRAME DOVERLAY, 0, STATIC
        ARGFRAME ISTACK, 0, STACK
        ARGFRAME PSTACK, 0, STACK
        ARGFRAME XSTACK, 10, STACK
        ARGFRAME IOVERLAY, 0, STATIC
        ARGFRAME DOVERLAY, 0, STATIC
        REQUIRE ?V0
        REQUIRE ?V1
        MOV     A,#-0xa
        LCALL   ?BANKED_ENTER_XDATA
          CFI DPH0 load(1, XDATA, add(CFA_XSP16, literal(-1)))
          CFI DPL0 load(1, XDATA, add(CFA_XSP16, literal(-2)))
          CFI ?BRET_EXT load(1, XDATA, add(CFA_XSP16, literal(-3)))
          CFI ?RET_HIGH load(1, XDATA, add(CFA_XSP16, literal(-4)))
          CFI ?RET_LOW load(1, XDATA, add(CFA_XSP16, literal(-5)))
          CFI R7 load(1, XDATA, add(CFA_XSP16, literal(-6)))
          CFI V1 load(1, XDATA, add(CFA_XSP16, literal(-7)))
          CFI V0 load(1, XDATA, add(CFA_XSP16, literal(-8)))
          CFI VB load(1, XDATA, add(CFA_XSP16, literal(-9)))
          CFI R6 load(1, XDATA, add(CFA_XSP16, literal(-10)))
          CFI CFA_SP SP+0
          CFI CFA_XSP16 add(XSP16, 10)
        ; Saved register size: 10
        ; Auto size: 0
        MOV     A,R2
        MOV     R6,A
        MOV     A,R3
        MOV     R7,A
//  103   uint8 *msg_ptr;
//  104 
//  105   (void)task_id;  // Intentionally unreferenced parameter
//  106 
//  107   /* Could be multiple events, so switch won't work */
//  108   if ( events & SYS_EVENT_MSG )
        ANL     A,#0x80
        JNZ     ??MT_ProcessEvent_0
//  109   {
//  110     while ( (msg_ptr = osal_msg_receive( MT_TaskID )) )
//  111     {
//  112       MT_ProcessIncomingCommand((mtOSALSerialData_t *)msg_ptr);
//  113     }
//  114 
//  115     /* Return unproccessed events */
//  116     return (events ^ SYS_EVENT_MSG);
//  117   }
//  118 
//  119   if ( events & MT_ZTOOL_SERIAL_RCV_BUFFER_FULL )
        MOV     A,R6
        ANL     A,#0x2
        JZ      ??MT_ProcessEvent_1
//  120   {
//  121     /* Return unproccessed events */
//  122     return (events ^ MT_ZTOOL_SERIAL_RCV_BUFFER_FULL);
        MOV     A,R6
        XRL     A,#0x2
        MOV     R2,A
        SJMP    ??MT_ProcessEvent_2
//  123   }
??MT_ProcessEvent_3:
        ; Setup parameters for call to function MT_ProcessIncomingCommand
        LCALL   `??MT_ProcessIncomingCommand::?relay`; Banked call to: MT_ProcessIncomingCommand
??MT_ProcessEvent_0:
        ; Setup parameters for call to function osal_msg_receive
        MOV     DPTR,#MT_TaskID
        MOVX    A,@DPTR
        MOV     R1,A
        LCALL   `??osal_msg_receive::?relay`; Banked call to: osal_msg_receive
        MOV     A,R2
        ORL     A,R3
        JNZ     ??MT_ProcessEvent_3
        MOV     A,R6
        MOV     R2,A
        MOV     A,R7
        XRL     A,#0x80
        SJMP    ??MT_ProcessEvent_4
//  124 
//  125 #if !defined( NONWK )
//  126   if ( events & MT_AF_EXEC_EVT )
??MT_ProcessEvent_1:
        MOV     A,R6
        ANL     A,#0x8
        JZ      ??MT_ProcessEvent_5
//  127   {
//  128     MT_AfExec();
        ; Setup parameters for call to function MT_AfExec
        LCALL   `??MT_AfExec::?relay`; Banked call to: MT_AfExec
//  129     return (events ^ MT_AF_EXEC_EVT);
        MOV     A,R6
        XRL     A,#0x8
        SJMP    ??MT_ProcessEvent_6
//  130   }
//  131 #endif  /* NONWK */
//  132 
//  133   /* Handle MT_SYS_OSAL_START_TIMER callbacks */
//  134 #if defined MT_SYS_FUNC
//  135   if ( events & (MT_SYS_OSAL_EVENT_MASK))
??MT_ProcessEvent_5:
        MOV     A,R7
        ANL     A,#0xf
        JZ      ??MT_ProcessEvent_7
//  136   {
//  137     if (events & MT_SYS_OSAL_EVENT_0)
        MOV     A,R7
        ANL     A,#0x8
        JZ      ??MT_ProcessEvent_8
//  138     {
//  139       MT_SysOsalTimerExpired(0x00);
        ; Setup parameters for call to function MT_SysOsalTimerExpired
        MOV     R1,#0x0
        LCALL   `??MT_SysOsalTimerExpired::?relay`; Banked call to: MT_SysOsalTimerExpired
//  140       events ^= MT_SYS_OSAL_EVENT_0;
        MOV     A,#0x8
        XRL     A,R7
        MOV     R7,A
//  141     }
//  142 
//  143     if (events & MT_SYS_OSAL_EVENT_1)
??MT_ProcessEvent_8:
        MOV     A,R7
        ANL     A,#0x4
        JZ      ??MT_ProcessEvent_9
//  144     {
//  145       MT_SysOsalTimerExpired(0x01);
        ; Setup parameters for call to function MT_SysOsalTimerExpired
        MOV     R1,#0x1
        LCALL   `??MT_SysOsalTimerExpired::?relay`; Banked call to: MT_SysOsalTimerExpired
//  146       events ^= MT_SYS_OSAL_EVENT_1;
        MOV     A,#0x4
        XRL     A,R7
        MOV     R7,A
//  147     }
//  148 
//  149     if (events & MT_SYS_OSAL_EVENT_2)
??MT_ProcessEvent_9:
        MOV     A,R7
        ANL     A,#0x2
        JZ      ??MT_ProcessEvent_10
//  150     {
//  151       MT_SysOsalTimerExpired(0x02);
        ; Setup parameters for call to function MT_SysOsalTimerExpired
        MOV     R1,#0x2
        LCALL   `??MT_SysOsalTimerExpired::?relay`; Banked call to: MT_SysOsalTimerExpired
//  152       events ^= MT_SYS_OSAL_EVENT_2;
        MOV     A,#0x2
        XRL     A,R7
        MOV     R7,A
//  153     }
//  154 
//  155     if (events & MT_SYS_OSAL_EVENT_3)
??MT_ProcessEvent_10:
        MOV     A,R7
        ANL     A,#0x1
        JZ      ??MT_ProcessEvent_11
//  156     {
//  157       MT_SysOsalTimerExpired(0x03);
        ; Setup parameters for call to function MT_SysOsalTimerExpired
        MOV     R1,#0x3
        LCALL   `??MT_SysOsalTimerExpired::?relay`; Banked call to: MT_SysOsalTimerExpired
//  158       events ^= MT_SYS_OSAL_EVENT_3;
        MOV     A,#0x1
        XRL     A,R7
        MOV     R7,A
//  159     }
//  160 
//  161     return events;
??MT_ProcessEvent_11:
        MOV     A,R6
??MT_ProcessEvent_6:
        MOV     R2,A
        MOV     A,R7
??MT_ProcessEvent_4:
        MOV     R3,A
        SJMP    ??MT_ProcessEvent_2
//  162   }
//  163 #endif
//  164 
//  165   /* Discard or make more handlers */
//  166   return 0;
??MT_ProcessEvent_7:
        MOV     R2,#0x0
        MOV     R3,#0x0
??MT_ProcessEvent_2:
          CFI EndBlock cfiBlock1
        REQUIRE ?Subroutine0
        ; // Fall through to label ?Subroutine0
//  167 
//  168 } /* MT_ProcessEvent() */

        RSEG BANKED_CODE:HUGECODE:NOROOT(0)
?Subroutine0:
          CFI Block cfiBlock2 Using cfiCommon0
          CFI NoFunction
          CFI CFA_SP SP+0
          CFI CFA_XSP16 add(XSP16, 10)
          CFI VB load(1, XDATA, add(CFA_XSP16, literal(-9)))
          CFI DPL0 load(1, XDATA, add(CFA_XSP16, literal(-2)))
          CFI DPH0 load(1, XDATA, add(CFA_XSP16, literal(-1)))
          CFI R6 load(1, XDATA, add(CFA_XSP16, literal(-10)))
          CFI R7 load(1, XDATA, add(CFA_XSP16, literal(-6)))
          CFI V0 load(1, XDATA, add(CFA_XSP16, literal(-8)))
          CFI V1 load(1, XDATA, add(CFA_XSP16, literal(-7)))
          CFI ?BRET_EXT load(1, XDATA, add(CFA_XSP16, literal(-3)))
          CFI ?RET_HIGH load(1, XDATA, add(CFA_XSP16, literal(-4)))
          CFI ?RET_LOW load(1, XDATA, add(CFA_XSP16, literal(-5)))
        MOV     R7,#0x2
        LJMP    ?BANKED_LEAVE_XDATA
          CFI EndBlock cfiBlock2
//  169 
//  170 /***************************************************************************************************
//  171  * @fn      MT_ProcessIncomingCommand
//  172  *
//  173  * @brief
//  174  *
//  175  *   Process Event Messages.
//  176  *
//  177  * @param   byte *msg - pointer to event message
//  178  *
//  179  * @return
//  180  ***************************************************************************************************/

        RSEG BANKED_CODE:HUGECODE:NOROOT(0)
//  181 void MT_ProcessIncomingCommand( mtOSALSerialData_t *msg )
MT_ProcessIncomingCommand:
          CFI Block cfiBlock3 Using cfiCommon0
          CFI Function MT_ProcessIncomingCommand
        CODE
//  182 {
        FUNCALL MT_ProcessIncomingCommand, MT_ProcessIncoming
        LOCFRAME ISTACK, 0, STACK
        LOCFRAME PSTACK, 0, STACK
        LOCFRAME XSTACK, 11, STACK
        LOCFRAME IOVERLAY, 0, STATIC
        LOCFRAME DOVERLAY, 0, STATIC
        ARGFRAME ISTACK, 0, STACK
        ARGFRAME PSTACK, 0, STACK
        ARGFRAME XSTACK, 11, STACK
        ARGFRAME IOVERLAY, 0, STATIC
        ARGFRAME DOVERLAY, 0, STATIC
        FUNCALL MT_ProcessIncomingCommand, MT_ProcessDebugMsg
        LOCFRAME ISTACK, 0, STACK
        LOCFRAME PSTACK, 0, STACK
        LOCFRAME XSTACK, 11, STACK
        LOCFRAME IOVERLAY, 0, STATIC
        LOCFRAME DOVERLAY, 0, STATIC
        ARGFRAME ISTACK, 0, STACK
        ARGFRAME PSTACK, 0, STACK
        ARGFRAME XSTACK, 11, STACK
        ARGFRAME IOVERLAY, 0, STATIC
        ARGFRAME DOVERLAY, 0, STATIC
        FUNCALL MT_ProcessIncomingCommand, MT_UartCalcFCS
        LOCFRAME ISTACK, 0, STACK
        LOCFRAME PSTACK, 0, STACK
        LOCFRAME XSTACK, 11, STACK
        LOCFRAME IOVERLAY, 0, STATIC
        LOCFRAME DOVERLAY, 0, STATIC
        ARGFRAME ISTACK, 0, STACK
        ARGFRAME PSTACK, 0, STACK
        ARGFRAME XSTACK, 11, STACK
        ARGFRAME IOVERLAY, 0, STATIC
        ARGFRAME DOVERLAY, 0, STATIC
        FUNCALL MT_ProcessIncomingCommand, HalUARTWrite
        LOCFRAME ISTACK, 0, STACK
        LOCFRAME PSTACK, 0, STACK
        LOCFRAME XSTACK, 11, STACK
        LOCFRAME IOVERLAY, 0, STATIC
        LOCFRAME DOVERLAY, 0, STATIC
        ARGFRAME ISTACK, 0, STACK
        ARGFRAME PSTACK, 0, STACK
        ARGFRAME XSTACK, 11, STACK
        ARGFRAME IOVERLAY, 0, STATIC
        ARGFRAME DOVERLAY, 0, STATIC
        FUNCALL MT_ProcessIncomingCommand, MT_ProcessDebugStr
        LOCFRAME ISTACK, 0, STACK
        LOCFRAME PSTACK, 0, STACK
        LOCFRAME XSTACK, 11, STACK
        LOCFRAME IOVERLAY, 0, STATIC
        LOCFRAME DOVERLAY, 0, STATIC
        ARGFRAME ISTACK, 0, STACK
        ARGFRAME PSTACK, 0, STACK
        ARGFRAME XSTACK, 11, STACK
        ARGFRAME IOVERLAY, 0, STATIC
        ARGFRAME DOVERLAY, 0, STATIC
        FUNCALL MT_ProcessIncomingCommand, MTProcessAppRspMsg
        LOCFRAME ISTACK, 0, STACK
        LOCFRAME PSTACK, 0, STACK
        LOCFRAME XSTACK, 11, STACK
        LOCFRAME IOVERLAY, 0, STATIC
        LOCFRAME DOVERLAY, 0, STATIC
        ARGFRAME ISTACK, 0, STACK
        ARGFRAME PSTACK, 0, STACK
        ARGFRAME XSTACK, 11, STACK
        ARGFRAME IOVERLAY, 0, STATIC
        ARGFRAME DOVERLAY, 0, STATIC
        FUNCALL MT_ProcessIncomingCommand, osal_msg_deallocate
        LOCFRAME ISTACK, 0, STACK
        LOCFRAME PSTACK, 0, STACK
        LOCFRAME XSTACK, 11, STACK
        LOCFRAME IOVERLAY, 0, STATIC
        LOCFRAME DOVERLAY, 0, STATIC
        ARGFRAME ISTACK, 0, STACK
        ARGFRAME PSTACK, 0, STACK
        ARGFRAME XSTACK, 11, STACK
        ARGFRAME IOVERLAY, 0, STATIC
        ARGFRAME DOVERLAY, 0, STATIC
        REQUIRE ?V0
        REQUIRE ?V1
        REQUIRE ?V2
        MOV     A,#-0xb
        LCALL   ?BANKED_ENTER_XDATA
          CFI DPH0 load(1, XDATA, add(CFA_XSP16, literal(-1)))
          CFI DPL0 load(1, XDATA, add(CFA_XSP16, literal(-2)))
          CFI ?BRET_EXT load(1, XDATA, add(CFA_XSP16, literal(-3)))
          CFI ?RET_HIGH load(1, XDATA, add(CFA_XSP16, literal(-4)))
          CFI ?RET_LOW load(1, XDATA, add(CFA_XSP16, literal(-5)))
          CFI R7 load(1, XDATA, add(CFA_XSP16, literal(-6)))
          CFI V2 load(1, XDATA, add(CFA_XSP16, literal(-7)))
          CFI V1 load(1, XDATA, add(CFA_XSP16, literal(-8)))
          CFI V0 load(1, XDATA, add(CFA_XSP16, literal(-9)))
          CFI VB load(1, XDATA, add(CFA_XSP16, literal(-10)))
          CFI R6 load(1, XDATA, add(CFA_XSP16, literal(-11)))
          CFI CFA_SP SP+0
          CFI CFA_XSP16 add(XSP16, 11)
        ; Saved register size: 11
        ; Auto size: 0
        MOV     A,R2
        MOV     R6,A
        MOV     A,R3
        MOV     R7,A
//  183   byte deallocate;
//  184   byte *msg_ptr;
//  185   byte len;
//  186 
//  187   /* A little setup for AF, CB_FUNC and MT_SYS_APP_RSP_MSG */
//  188   msg_ptr = msg->msg;
        MOV     DPL,R6
        MOV     DPH,R7
        INC     DPTR
        INC     DPTR
        MOVX    A,@DPTR
        MOV     ?V0,A
        INC     DPTR
        MOVX    A,@DPTR
        MOV     ?V1,A
//  189 
//  190   deallocate = true;
//  191 
//  192   /* Use the first byte of the message as the command ID */
//  193   switch ( msg->hdr.event )
        MOV     DPL,R6
        MOV     DPH,R7
        MOVX    A,@DPTR
        DEC     A
        JZ      ??MT_ProcessIncomingCommand_0
        DEC     A
        JZ      ??MT_ProcessIncomingCommand_1
        ADD     A,#-0x2
        JZ      ??MT_ProcessIncomingCommand_2
        ADD     A,#-0x2
        JZ      ??MT_ProcessIncomingCommand_3
        ADD     A,#-0x1e
        JZ      ??MT_ProcessIncomingCommand_4
        SJMP    ??MT_ProcessIncomingCommand_5
//  194   {
//  195     case CMD_SERIAL_MSG:
//  196       MT_ProcessIncoming(msg->msg);
??MT_ProcessIncomingCommand_0:
        ; Setup parameters for call to function MT_ProcessIncoming
        INC     DPTR
        INC     DPTR
        MOVX    A,@DPTR
        MOV     R2,A
        INC     DPTR
        MOVX    A,@DPTR
        MOV     R3,A
        LCALL   `??MT_ProcessIncoming::?relay`; Banked call to: MT_ProcessIncoming
//  197       break;
        SJMP    ??MT_ProcessIncomingCommand_5
//  198 
//  199     case CMD_DEBUG_MSG:
//  200       MT_ProcessDebugMsg( (mtDebugMsg_t *)msg );
??MT_ProcessIncomingCommand_1:
        ; Setup parameters for call to function MT_ProcessDebugMsg
        LCALL   `??MT_ProcessDebugMsg::?relay`; Banked call to: MT_ProcessDebugMsg
//  201       break;
        SJMP    ??MT_ProcessIncomingCommand_5
//  202 
//  203     case CB_FUNC:
//  204       /*
//  205         Build SPI message here instead of redundantly calling MT_BuildSPIMsg
//  206         because we have copied data already in the allocated message
//  207       */
//  208 
//  209       /* msg_ptr is the beginning of the intended SPI message */
//  210       len = SPI_0DATA_MSG_LEN + msg_ptr[DATALEN_FIELD];
??MT_ProcessIncomingCommand_2:
        MOV     DPL,?V0
        MOV     DPH,?V1
        INC     DPTR
        INC     DPTR
        INC     DPTR
        MOVX    A,@DPTR
        ADD     A,#0x5
        MOV     ?V2,A
//  211 
//  212       /*
//  213         FCS goes to the last byte in the message and is calculated over all
//  214         the bytes except FCS and SOP
//  215       */
//  216       msg_ptr[len-1] = MT_UartCalcFCS(msg_ptr + 1, (byte)(len-2));
        ; Setup parameters for call to function MT_UartCalcFCS
        MOV     A,#-0x2
        ADD     A,?V2
        MOV     R1,A
        MOV     DPL,?V0
        MOV     DPH,?V1
        INC     DPTR
        MOV     R2,DPL
        MOV     R3,DPH
        LCALL   `??MT_UartCalcFCS::?relay`; Banked call to: MT_UartCalcFCS
        MOV     A,R1
        PUSH    A
          CFI CFA_SP SP+-1
        MOV     R0,?V2
        MOV     A,?V0
        ADD     A,R0
        MOV     R0,A
        CLR     A
        ADDC    A,?V1
        MOV     R1,A
        MOV     A,R0
        ADD     A,#-0x1
        MOV     DPL,A
        MOV     A,R1
        ADDC    A,#-0x1
        MOV     DPH,A
        POP     A
          CFI CFA_SP SP+0
        MOVX    @DPTR,A
//  217 
//  218 #ifdef MT_UART_DEFAULT_PORT
//  219       HalUARTWrite ( MT_UART_DEFAULT_PORT, msg_ptr, len );
        ; Setup parameters for call to function HalUARTWrite
        MOV     R4,?V2
        MOV     R5,#0x0
        MOV     R2,?V0
        MOV     R3,?V1
        MOV     R1,#0x0
        LCALL   `??HalUARTWrite::?relay`; Banked call to: HalUARTWrite
//  220 #endif
//  221       break;
        SJMP    ??MT_ProcessIncomingCommand_5
//  222 
//  223     case CMD_DEBUG_STR:
//  224       MT_ProcessDebugStr( (mtDebugStr_t *)msg );
??MT_ProcessIncomingCommand_3:
        ; Setup parameters for call to function MT_ProcessDebugStr
        LCALL   `??MT_ProcessDebugStr::?relay`; Banked call to: MT_ProcessDebugStr
//  225       break;
        SJMP    ??MT_ProcessIncomingCommand_5
//  226 
//  227 #if !defined ( NONWK )
//  228     case MT_SYS_APP_RSP_MSG:
//  229       //len = SPI_0DATA_MSG_LEN + msg_ptr[DATALEN_FIELD]; //del by liren
//  230       len = msg->hdr.status;          // add by liren
//  231       MTProcessAppRspMsg( msg_ptr, len );
??MT_ProcessIncomingCommand_4:
        ; Setup parameters for call to function MTProcessAppRspMsg
        INC     DPTR
        MOVX    A,@DPTR
        MOV     R1,A
        MOV     R2,?V0
        MOV     R3,?V1
        LCALL   `??MTProcessAppRspMsg::?relay`; Banked call to: MTProcessAppRspMsg
//  232       break;
//  233 #endif  // NONWK
//  234 
//  235 #if defined (MT_UTIL_FUNC)
//  236 #if defined ZCL_KEY_ESTABLISH
//  237     case ZCL_KEY_ESTABLISH_IND:
//  238       MT_UtilKeyEstablishInd((keyEstablishmentInd_t *)msg);
//  239       break;
//  240 #endif
//  241 #endif
//  242 #ifdef MT_ZDO_CB_FUNC
//  243     case ZDO_STATE_CHANGE:
//  244       MT_ZdoStateChangeCB((osal_event_hdr_t *)msg);
//  245       break;
//  246 #endif
//  247 
//  248     default:
//  249       break;
//  250   }
//  251 
//  252   if ( deallocate )
//  253   {
//  254     osal_msg_deallocate( (uint8 *)msg );
??MT_ProcessIncomingCommand_5:
        ; Setup parameters for call to function osal_msg_deallocate
        MOV     A,R6
        MOV     R2,A
        MOV     A,R7
        MOV     R3,A
        LCALL   `??osal_msg_deallocate::?relay`; Banked call to: osal_msg_deallocate
//  255   }
//  256 }
        MOV     R7,#0x3
        LJMP    ?BANKED_LEAVE_XDATA
          CFI EndBlock cfiBlock3
//  257 
//  258 #ifdef MT_TASK
//  259 /***************************************************************************************************
//  260  * @fn      MT_TransportAlloc
//  261  *
//  262  * @brief   Allocate memory for transport msg
//  263  *
//  264  * @param   uint8 cmd0 - The first byte of the MT command id containing the command type and subsystem.
//  265  *          uint8 len - length
//  266  *
//  267  * @return  pointer the allocated memory or NULL if fail to allocate the memory
//  268  ***************************************************************************************************/

        RSEG BANKED_CODE:HUGECODE:NOROOT(0)
//  269 uint8 *MT_TransportAlloc(uint8 cmd0, uint8 len)
MT_TransportAlloc:
          CFI Block cfiBlock4 Using cfiCommon0
          CFI Function MT_TransportAlloc
        CODE
//  270 {
        FUNCALL MT_TransportAlloc, osal_msg_allocate
        LOCFRAME ISTACK, 0, STACK
        LOCFRAME PSTACK, 0, STACK
        LOCFRAME XSTACK, 10, STACK
        LOCFRAME IOVERLAY, 0, STATIC
        LOCFRAME DOVERLAY, 0, STATIC
        ARGFRAME ISTACK, 0, STACK
        ARGFRAME PSTACK, 0, STACK
        ARGFRAME XSTACK, 10, STACK
        ARGFRAME IOVERLAY, 0, STATIC
        ARGFRAME DOVERLAY, 0, STATIC
        REQUIRE ?V0
        REQUIRE ?V1
        MOV     A,#-0xa
        LCALL   ?BANKED_ENTER_XDATA
          CFI DPH0 load(1, XDATA, add(CFA_XSP16, literal(-1)))
          CFI DPL0 load(1, XDATA, add(CFA_XSP16, literal(-2)))
          CFI ?BRET_EXT load(1, XDATA, add(CFA_XSP16, literal(-3)))
          CFI ?RET_HIGH load(1, XDATA, add(CFA_XSP16, literal(-4)))
          CFI ?RET_LOW load(1, XDATA, add(CFA_XSP16, literal(-5)))
          CFI R7 load(1, XDATA, add(CFA_XSP16, literal(-6)))
          CFI V1 load(1, XDATA, add(CFA_XSP16, literal(-7)))
          CFI V0 load(1, XDATA, add(CFA_XSP16, literal(-8)))
          CFI VB load(1, XDATA, add(CFA_XSP16, literal(-9)))
          CFI R6 load(1, XDATA, add(CFA_XSP16, literal(-10)))
          CFI CFA_SP SP+0
          CFI CFA_XSP16 add(XSP16, 10)
        ; Saved register size: 10
        ; Auto size: 0
        MOV     A,R2
//  271   uint8 *p;
//  272 
//  273   (void)cmd0;  // Intentionally unreferenced parameter
//  274 
//  275   /* Allocate a buffer of data length + SOP+CMD+FCS (5bytes) */
//  276   p = osal_msg_allocate(len + SPI_0DATA_MSG_LEN);
        ; Setup parameters for call to function osal_msg_allocate
        ADD     A,#0x5
        MOV     R2,A
        CLR     A
        ADDC    A,#0x0
        MOV     R3,A
        LCALL   `??osal_msg_allocate::?relay`; Banked call to: osal_msg_allocate
        MOV     DPL,R2
        MOV     DPH,R3
//  277 
//  278   if (p)
        MOV     A,DPL
        ORL     A,DPH
        JZ      ??MT_TransportAlloc_0
//  279   {
//  280     p++; /* Save space for SOP_VALUE, msg structure */
//  281     return p;
        INC     DPTR
        MOV     R2,DPL
        MOV     R3,DPH
        SJMP    ??MT_TransportAlloc_1
//  282   }
//  283   else
//  284   {
//  285     return NULL;
??MT_TransportAlloc_0:
        MOV     R2,#0x0
        MOV     R3,#0x0
//  286   }
??MT_TransportAlloc_1:
        LJMP    ?Subroutine0 & 0xFFFF
//  287 }
          CFI EndBlock cfiBlock4
//  288 
//  289 /***************************************************************************************************
//  290  * @fn      MT_TransportSend
//  291  *
//  292  * @brief   Fill in SOP and FCS then send out the msg
//  293  *
//  294  * @param   uint8 *pBuf - pointer to the message that contains CMD, length, data and FCS
//  295  *
//  296  * @return  None
//  297  ***************************************************************************************************/

        RSEG BANKED_CODE:HUGECODE:NOROOT(0)
//  298 void MT_TransportSend(uint8 *pBuf)
MT_TransportSend:
          CFI Block cfiBlock5 Using cfiCommon0
          CFI Function MT_TransportSend
        CODE
//  299 {
        FUNCALL MT_TransportSend, MT_UartCalcFCS
        LOCFRAME ISTACK, 0, STACK
        LOCFRAME PSTACK, 0, STACK
        LOCFRAME XSTACK, 10, STACK
        LOCFRAME IOVERLAY, 0, STATIC
        LOCFRAME DOVERLAY, 0, STATIC
        ARGFRAME ISTACK, 0, STACK
        ARGFRAME PSTACK, 0, STACK
        ARGFRAME XSTACK, 10, STACK
        ARGFRAME IOVERLAY, 0, STATIC
        ARGFRAME DOVERLAY, 0, STATIC
        FUNCALL MT_TransportSend, HalUARTWrite
        LOCFRAME ISTACK, 0, STACK
        LOCFRAME PSTACK, 0, STACK
        LOCFRAME XSTACK, 10, STACK
        LOCFRAME IOVERLAY, 0, STATIC
        LOCFRAME DOVERLAY, 0, STATIC
        ARGFRAME ISTACK, 0, STACK
        ARGFRAME PSTACK, 0, STACK
        ARGFRAME XSTACK, 10, STACK
        ARGFRAME IOVERLAY, 0, STATIC
        ARGFRAME DOVERLAY, 0, STATIC
        FUNCALL MT_TransportSend, osal_msg_deallocate
        LOCFRAME ISTACK, 0, STACK
        LOCFRAME PSTACK, 0, STACK
        LOCFRAME XSTACK, 10, STACK
        LOCFRAME IOVERLAY, 0, STATIC
        LOCFRAME DOVERLAY, 0, STATIC
        ARGFRAME ISTACK, 0, STACK
        ARGFRAME PSTACK, 0, STACK
        ARGFRAME XSTACK, 10, STACK
        ARGFRAME IOVERLAY, 0, STATIC
        ARGFRAME DOVERLAY, 0, STATIC
        REQUIRE ?V0
        REQUIRE ?V1
        MOV     A,#-0xa
        LCALL   ?BANKED_ENTER_XDATA
          CFI DPH0 load(1, XDATA, add(CFA_XSP16, literal(-1)))
          CFI DPL0 load(1, XDATA, add(CFA_XSP16, literal(-2)))
          CFI ?BRET_EXT load(1, XDATA, add(CFA_XSP16, literal(-3)))
          CFI ?RET_HIGH load(1, XDATA, add(CFA_XSP16, literal(-4)))
          CFI ?RET_LOW load(1, XDATA, add(CFA_XSP16, literal(-5)))
          CFI R7 load(1, XDATA, add(CFA_XSP16, literal(-6)))
          CFI V1 load(1, XDATA, add(CFA_XSP16, literal(-7)))
          CFI V0 load(1, XDATA, add(CFA_XSP16, literal(-8)))
          CFI VB load(1, XDATA, add(CFA_XSP16, literal(-9)))
          CFI R6 load(1, XDATA, add(CFA_XSP16, literal(-10)))
          CFI CFA_SP SP+0
          CFI CFA_XSP16 add(XSP16, 10)
        ; Saved register size: 10
        ; Auto size: 0
//  300   uint8 *msgPtr;
//  301   uint8 dataLen = pBuf[0]; /* Data length is on byte #1 from the pointer */
        MOV     DPL,R2
        MOV     DPH,R3
        MOVX    A,@DPTR
        MOV     R0,A
//  302 
//  303   /* Move back to the SOP */
//  304   msgPtr = pBuf-1;
        MOV     A,R2
        ADD     A,#-0x1
        MOV     ?V0,A
        MOV     A,R3
        ADDC    A,#-0x1
        MOV     ?V1,A
//  305 
//  306   /* Insert SOP */
//  307   msgPtr[0] = MT_UART_SOF;
        MOV     DPL,?V0
        MOV     DPH,A
        MOV     A,#-0x2
        MOVX    @DPTR,A
//  308 
//  309   /* Insert FCS */
//  310   msgPtr[SPI_0DATA_MSG_LEN - 1 + dataLen] = MT_UartCalcFCS (pBuf, (3 + dataLen));
        MOV     A,R0
        MOV     R6,A
        ; Setup parameters for call to function MT_UartCalcFCS
        MOV     A,#0x3
        ADD     A,R0
        MOV     R1,A
        LCALL   `??MT_UartCalcFCS::?relay`; Banked call to: MT_UartCalcFCS
        MOV     A,?V0
        ADD     A,R6
        MOV     DPL,A
        CLR     A
        ADDC    A,?V1
        MOV     DPH,A
        INC     DPTR
        INC     DPTR
        INC     DPTR
        INC     DPTR
        MOV     A,R1
        MOVX    @DPTR,A
//  311 
//  312   /* Send to UART */
//  313 #ifdef MT_UART_DEFAULT_PORT
//  314   HalUARTWrite(MT_UART_DEFAULT_PORT, msgPtr, dataLen + SPI_0DATA_MSG_LEN);
        ; Setup parameters for call to function HalUARTWrite
        MOV     A,R6
        ADD     A,#0x5
        MOV     R4,A
        CLR     A
        ADDC    A,#0x0
        MOV     R5,A
        MOV     R2,?V0
        MOV     R3,?V1
        MOV     R1,#0x0
        LCALL   `??HalUARTWrite::?relay`; Banked call to: HalUARTWrite
//  315 #endif
//  316 
//  317   /* Deallocate */
//  318   osal_msg_deallocate(msgPtr);
        ; Setup parameters for call to function osal_msg_deallocate
        MOV     R2,?V0
        MOV     R3,?V1
        LCALL   `??osal_msg_deallocate::?relay`; Banked call to: osal_msg_deallocate
//  319 }
        LJMP    ?Subroutine0 & 0xFFFF
          CFI EndBlock cfiBlock5

        RSEG BANK_RELAYS:CODE:REORDER:NOROOT(0)
`??MT_TaskInit::?relay`:
        CODE
        LCALL   ?BDISPATCH
        DATA24
        DC24    MT_TaskInit

        RSEG BANK_RELAYS:CODE:REORDER:NOROOT(0)
`??MT_ProcessEvent::?relay`:
        CODE
        LCALL   ?BDISPATCH
        DATA24
        DC24    MT_ProcessEvent

        RSEG BANK_RELAYS:CODE:REORDER:NOROOT(0)
`??MT_ProcessIncomingCommand::?relay`:
        CODE
        LCALL   ?BDISPATCH
        DATA24
        DC24    MT_ProcessIncomingCommand

        RSEG BANK_RELAYS:CODE:REORDER:NOROOT(0)
`??MT_TransportAlloc::?relay`:
        CODE
        LCALL   ?BDISPATCH
        DATA24
        DC24    MT_TransportAlloc

        RSEG BANK_RELAYS:CODE:REORDER:NOROOT(0)
`??MT_TransportSend::?relay`:
        CODE
        LCALL   ?BDISPATCH
        DATA24
        DC24    MT_TransportSend

        END
//  320 #endif /* MT_TASK */
//  321 /***************************************************************************************************
//  322  ***************************************************************************************************/
// 
// 446 bytes in segment BANKED_CODE
//  30 bytes in segment BANK_RELAYS
// 
//  30 bytes of CODE     memory
// 446 bytes of HUGECODE memory
//
//Errors: none
//Warnings: none
