///////////////////////////////////////////////////////////////////////////////
//
// IAR C/C++ Compiler V9.30.3.3983 for 8051               25/Apr/2017  12:05:44
// Copyright 2004-2016 IAR Systems AB.
// Standalone license - IAR Embedded Workbench for 8051
//
//    Core               =  plain
//    Code model         =  banked
//    Data model         =  large
//    Calling convention =  xdata reentrant
//    Constant location  =  data_rom
//    Dptr setup         =  1,16
//                          
//    Source file        =  
//        C:\Texas
//        Instruments\ZStack-CC2530-2.4.0-1.4.0\Components\stack\nwk\nwk_globals.c
//    Command line       =  
//        -f "C:\Texas
//        Instruments\ZStack-CC2530-2.4.0-1.4.0\Projects\zstack\Samples\NetworkTopology-Star\CC2530DB\..\..\..\Tools\CC2530DB\f8wCoord.cfg"
//        (-DCPU32MHZ -DROOT=__near_func -DMAC_CFG_APP_PENDING_QUEUE=TRUE
//        -DMAC_CFG_TX_DATA_MAX=5 -DMAC_CFG_TX_MAX=8 -DMAC_CFG_RX_MAX=5
//        -DZDO_COORDINATOR -DRTR_NWK) -f "C:\Texas
//        Instruments\ZStack-CC2530-2.4.0-1.4.0\Projects\zstack\Samples\NetworkTopology-Star\CC2530DB\..\..\..\Tools\CC2530DB\f8wConfig-top.cfg"
//        (-DSECURE=0 -DZG_SECURE_DYNAMIC=0 -DREFLECTOR
//        -DDEFAULT_CHANLIST=0x00000800 -DZDAPP_CONFIG_PAN_ID=0x2100
//        -DNWK_START_DELAY=100 -DEXTENDED_JOINING_RANDOM_MASK=0x007F
//        -DBEACON_REQUEST_DELAY=100 -DBEACON_REQ_DELAY_MASK=0x00FF
//        -DLINK_STATUS_JITTER_MASK=0x007F -DROUTE_EXPIRY_TIME=30
//        -DAPSC_ACK_WAIT_DURATION_POLLED=3000 -DNWK_INDIRECT_MSG_TIMEOUT=7
//        -DMAX_RREQ_ENTRIES=8 -DAPSC_MAX_FRAME_RETRIES=3
//        -DNWK_MAX_DATA_RETRIES=2 -DMAX_POLL_FAILURE_RETRIES=2 -DMAX_BCAST=9
//        -DAPS_MAX_GROUPS=16 -DMAX_RTG_ENTRIES=40 -DNWK_MAX_BINDING_ENTRIES=4
//        -DMAX_BINDING_CLUSTER_IDS=4 "-DDEFAULT_KEY={0x01, 0x03, 0x05, 0x07,
//        0x09, 0x0B, 0x0D, 0x0F, 0x00, 0x02, 0x04, 0x06, 0x08, 0x0A, 0x0C,
//        0x0D}" -DMAC_MAX_FRAME_SIZE=116 -DZDNWKMGR_MIN_TRANSMISSIONS=20
//        "-DCONST=const __code" -DGENERIC=__generic -DRFD_RCVC_ALWAYS_ON=TRUE
//        -DPOLL_RATE=1000 -DQUEUED_POLL_RATE=100 -DRESPONSE_POLL_RATE=100)
//        -DREJOIN_POLL_RATE=440 "C:\Texas
//        Instruments\ZStack-CC2530-2.4.0-1.4.0\Components\stack\nwk\nwk_globals.c"
//        -D HOLD_AUTO_START -D BUILD_ALL_DEVICES -D REFLECTOR -D NV_INIT -D
//        xNV_RESTORE -D ZTOOL_P1 -D MT_TASK -D MT_SYS_FUNC -D xMT_SAPI_FUNC -D
//        xMT_SAPI_CB_FUNC -D STARTEST -D LCD_USE -lC "C:\Texas
//        Instruments\ZStack-CC2530-2.4.0-1.4.0\Projects\zstack\Samples\NetworkTopology-Star\CC2530DB\MPCoordinator\List"
//        -lA "C:\Texas
//        Instruments\ZStack-CC2530-2.4.0-1.4.0\Projects\zstack\Samples\NetworkTopology-Star\CC2530DB\MPCoordinator\List"
//        --diag_suppress Pe001,Pa010 -o "C:\Texas
//        Instruments\ZStack-CC2530-2.4.0-1.4.0\Projects\zstack\Samples\NetworkTopology-Star\CC2530DB\MPCoordinator\Obj"
//        -e --no_code_motion --debug --core=plain --dptr=16,1
//        --data_model=large --code_model=banked
//        --calling_convention=xdata_reentrant --place_constants=data_rom
//        --nr_virtual_regs 8 -I "C:\Texas
//        Instruments\ZStack-CC2530-2.4.0-1.4.0\Projects\zstack\Samples\NetworkTopology-Star\CC2530DB\"
//        -I "C:\Texas
//        Instruments\ZStack-CC2530-2.4.0-1.4.0\Projects\zstack\Samples\NetworkTopology-Star\CC2530DB\..\Source\"
//        -I "C:\Texas
//        Instruments\ZStack-CC2530-2.4.0-1.4.0\Projects\zstack\Samples\NetworkTopology-Star\CC2530DB\..\..\..\ZMain\TI2530DB\"
//        -I "C:\Texas
//        Instruments\ZStack-CC2530-2.4.0-1.4.0\Projects\zstack\Samples\NetworkTopology-Star\CC2530DB\..\..\..\..\..\Components\hal\include\"
//        -I "C:\Texas
//        Instruments\ZStack-CC2530-2.4.0-1.4.0\Projects\zstack\Samples\NetworkTopology-Star\CC2530DB\..\..\..\..\..\Components\hal\target\CC2530EB\"
//        -I "C:\Texas
//        Instruments\ZStack-CC2530-2.4.0-1.4.0\Projects\zstack\Samples\NetworkTopology-Star\CC2530DB\..\..\..\..\..\Components\mac\include\"
//        -I "C:\Texas
//        Instruments\ZStack-CC2530-2.4.0-1.4.0\Projects\zstack\Samples\NetworkTopology-Star\CC2530DB\..\..\..\..\..\Components\mac\high_level\"
//        -I "C:\Texas
//        Instruments\ZStack-CC2530-2.4.0-1.4.0\Projects\zstack\Samples\NetworkTopology-Star\CC2530DB\..\..\..\..\..\Components\mac\low_level\srf04\"
//        -I "C:\Texas
//        Instruments\ZStack-CC2530-2.4.0-1.4.0\Projects\zstack\Samples\NetworkTopology-Star\CC2530DB\..\..\..\..\..\Components\mac\low_level\srf04\single_chip\"
//        -I "C:\Texas
//        Instruments\ZStack-CC2530-2.4.0-1.4.0\Projects\zstack\Samples\NetworkTopology-Star\CC2530DB\..\..\..\..\..\Components\mt\"
//        -I "C:\Texas
//        Instruments\ZStack-CC2530-2.4.0-1.4.0\Projects\zstack\Samples\NetworkTopology-Star\CC2530DB\..\..\..\..\..\Components\osal\include\"
//        -I "C:\Texas
//        Instruments\ZStack-CC2530-2.4.0-1.4.0\Projects\zstack\Samples\NetworkTopology-Star\CC2530DB\..\..\..\..\..\Components\osal\mcu\ccsoc\"
//        -I "C:\Texas
//        Instruments\ZStack-CC2530-2.4.0-1.4.0\Projects\zstack\Samples\NetworkTopology-Star\CC2530DB\..\..\..\..\..\Components\services\saddr\"
//        -I "C:\Texas
//        Instruments\ZStack-CC2530-2.4.0-1.4.0\Projects\zstack\Samples\NetworkTopology-Star\CC2530DB\..\..\..\..\..\Components\services\sdata\"
//        -I "C:\Texas
//        Instruments\ZStack-CC2530-2.4.0-1.4.0\Projects\zstack\Samples\NetworkTopology-Star\CC2530DB\..\..\..\..\..\Components\stack\af\"
//        -I "C:\Texas
//        Instruments\ZStack-CC2530-2.4.0-1.4.0\Projects\zstack\Samples\NetworkTopology-Star\CC2530DB\..\..\..\..\..\Components\stack\nwk\"
//        -I "C:\Texas
//        Instruments\ZStack-CC2530-2.4.0-1.4.0\Projects\zstack\Samples\NetworkTopology-Star\CC2530DB\..\..\..\..\..\Components\stack\sapi\"
//        -I "C:\Texas
//        Instruments\ZStack-CC2530-2.4.0-1.4.0\Projects\zstack\Samples\NetworkTopology-Star\CC2530DB\..\..\..\..\..\Components\stack\sec\"
//        -I "C:\Texas
//        Instruments\ZStack-CC2530-2.4.0-1.4.0\Projects\zstack\Samples\NetworkTopology-Star\CC2530DB\..\..\..\..\..\Components\stack\sys\"
//        -I "C:\Texas
//        Instruments\ZStack-CC2530-2.4.0-1.4.0\Projects\zstack\Samples\NetworkTopology-Star\CC2530DB\..\..\..\..\..\Components\stack\zdo\"
//        -I "C:\Texas
//        Instruments\ZStack-CC2530-2.4.0-1.4.0\Projects\zstack\Samples\NetworkTopology-Star\CC2530DB\..\..\..\..\..\Components\zmac\"
//        -I "C:\Texas
//        Instruments\ZStack-CC2530-2.4.0-1.4.0\Projects\zstack\Samples\NetworkTopology-Star\CC2530DB\..\..\..\..\..\Components\zmac\f8w\"
//        -Ohz --require_prototypes
//    List file          =  
//        C:\Texas
//        Instruments\ZStack-CC2530-2.4.0-1.4.0\Projects\zstack\Samples\NetworkTopology-Star\CC2530DB\MPCoordinator\List\nwk_globals.s51
//
///////////////////////////////////////////////////////////////////////////////

        NAME nwk_globals

        RTMODEL "__SystemLibrary", "CLib"
        RTMODEL "__calling_convention", "xdata_reentrant"
        RTMODEL "__code_model", "banked"
        RTMODEL "__core", "plain"
        RTMODEL "__data_model", "large"
        RTMODEL "__dptr_size", "16"
        RTMODEL "__extended_stack", "disabled"
        RTMODEL "__location_for_constants", "data"
        RTMODEL "__number_of_dptrs", "1"
        RTMODEL "__rt_version", "1"

        RSEG DOVERLAY:DATA:NOROOT(0)
        RSEG IOVERLAY:IDATA:NOROOT(0)
        RSEG ISTACK:IDATA:NOROOT(0)
        RSEG PSTACK:XDATA:NOROOT(0)
        RSEG XSTACK:XDATA:NOROOT(0)

        EXTERN ?BDISPATCH
        EXTERN ?BRET
        EXTERN ?DEALLOC_XSTACK8
        EXTERN ?PUSH_XSTACK8_X_TWO
        EXTERN __INIT_XDATA_I
        EXTERN __INIT_XDATA_Z

        PUBLIC `??NIB_init::?relay`
        FUNCTION `??NIB_init::?relay`,0203H
        PUBLIC `??nwk_Status::?relay`
        FUNCTION `??nwk_Status::?relay`,0203H
        PUBLIC `??nwk_UpdateStatistics::?relay`
        FUNCTION `??nwk_UpdateStatistics::?relay`,0203H
        PUBLIC `??nwk_globals_init::?relay`
        FUNCTION `??nwk_globals_init::?relay`,0203H
        PUBLIC AssociatedDevList
        PUBLIC BindingTable
        PUBLIC Cskip
        PUBLIC CskipChldrn
        PUBLIC CskipRtrs
        PUBLIC NIB_init
        FUNCTION NIB_init,021203H
        ARGFRAME XSTACK, 0, STACK
        LOCFRAME ISTACK, 2, STACK
        PUBLIC apsEndDeviceBroadcastTable
        PUBLIC bcastHoldAckMask
        PUBLIC bcastHoldHandle
        PUBLIC bcastTable
        PUBLIC defaultKey
        PUBLIC defaultTCLinkKey
        PUBLIC gAPS_MAX_ENDDEVICE_BROADCAST_ENTRIES
        PUBLIC gAPS_MAX_GROUPS
        PUBLIC gBIND_REC_SIZE
        PUBLIC gDEFAULT_ROUTE_REQUEST_RADIUS
        PUBLIC gDEF_NWK_RADIUS
        PUBLIC gLINK_DOWN_TRIGGER
        PUBLIC gLINK_STATUS_JITTER_MASK
        PUBLIC gMAX_BCAST
        PUBLIC gMAX_BINDING_CLUSTER_IDS
        PUBLIC gMAX_BROADCAST_QUEUED
        PUBLIC gMAX_NEIGHBOR_ENTRIES
        PUBLIC gMAX_PASSIVE_ACK_CNT
        PUBLIC gMAX_RREQ_ENTRIES
        PUBLIC gMAX_RTG_ENTRIES
        PUBLIC gMAX_RTG_SRC_ENTRIES
        PUBLIC gMAX_SOURCE_ROUTE
        PUBLIC gMIN_TREE_LINK_COST
        PUBLIC gMTO_ROUTE_EXPIRY_TIME
        PUBLIC gMTO_RREQ_LIMIT_TIME
        PUBLIC gNWK_FREQ_AGILITY_ALL_MAC_ERRS
        PUBLIC gNWK_INDIRECT_CNT_RTG_TMR
        PUBLIC gNWK_INDIRECT_MSG_MAX_ALL
        PUBLIC gNWK_INDIRECT_MSG_MAX_PER
        PUBLIC gNWK_MAX_BINDING_ENTRIES
        PUBLIC gNWK_MAX_DATABUFS_CONFIRMED
        PUBLIC gNWK_MAX_DATABUFS_SCHEDULED
        PUBLIC gNWK_MAX_DATABUFS_TOTAL
        PUBLIC gNWK_MAX_DATABUFS_WAITING
        PUBLIC gNWK_MAX_DEVICE_LIST
        PUBLIC gNWK_MAX_SLEEPING_END_DEVICES
        PUBLIC gNWK_TREE_ALLOCATE_ROUTERADDR_FOR_ENDDEVICE
        PUBLIC neighborTable
        PUBLIC nwk_Status
        FUNCTION nwk_Status,0203H
        ARGFRAME XSTACK, 0, STACK
        PUBLIC nwk_UpdateStatistics
        FUNCTION nwk_UpdateStatistics,0203H
        ARGFRAME XSTACK, 0, STACK
        PUBLIC nwk_globals_init
        FUNCTION nwk_globals_init,021203H
        ARGFRAME XSTACK, 0, STACK
        LOCFRAME ISTACK, 2, STACK
        LOCFRAME XSTACK, 2, STACK
        PUBLIC rtDiscTable
        PUBLIC rtgTable
        
          CFI Names cfiNames0
          CFI StackFrame CFA_SP SP IDATA
          CFI StackFrame CFA_PSP16 PSP16 XDATA
          CFI StackFrame CFA_XSP16 XSP16 XDATA
          CFI StaticOverlayFrame CFA_IOVERLAY IOVERLAY
          CFI StaticOverlayFrame CFA_DOVERLAY DOVERLAY
          CFI Resource `PSW.CY`:1, `B.BR0`:1, `B.BR1`:1, `B.BR2`:1, `B.BR3`:1
          CFI Resource `B.BR4`:1, `B.BR5`:1, `B.BR6`:1, `B.BR7`:1, `VB.BR8`:1
          CFI Resource `VB.BR9`:1, `VB.BR10`:1, `VB.BR11`:1, `VB.BR12`:1
          CFI Resource `VB.BR13`:1, `VB.BR14`:1, `VB.BR15`:1, VB:8, B:8, A:8
          CFI Resource PSW:8, DPL0:8, DPH0:8, R0:8, R1:8, R2:8, R3:8, R4:8, R5:8
          CFI Resource R6:8, R7:8, V0:8, V1:8, V2:8, V3:8, V4:8, V5:8, V6:8, V7:8
          CFI Resource SP:8, PSPH:8, PSPL:8, PSP16:16, XSPH:8, XSPL:8, XSP16:16
          CFI VirtualResource ?RET:24
          CFI Resource ?BRET_EXT:8
          CFI VirtualResource ?RET_HIGH:8, ?RET_LOW:8
          CFI ResourceParts PSP16 PSPH, PSPL
          CFI ResourceParts XSP16 XSPH, XSPL
          CFI ResourceParts ?RET ?BRET_EXT, ?RET_HIGH, ?RET_LOW
          CFI EndNames cfiNames0
        
          CFI Common cfiCommon0 Using cfiNames0
          CFI CodeAlign 1
          CFI DataAlign -1
          CFI ReturnAddress ?RET CODE
          CFI CFA_DOVERLAY Used
          CFI CFA_IOVERLAY Used
          CFI CFA_SP SP+-3
          CFI CFA_PSP16 PSP16+0
          CFI CFA_XSP16 XSP16+0
          CFI `PSW.CY` SameValue
          CFI `B.BR0` SameValue
          CFI `B.BR1` SameValue
          CFI `B.BR2` SameValue
          CFI `B.BR3` SameValue
          CFI `B.BR4` SameValue
          CFI `B.BR5` SameValue
          CFI `B.BR6` SameValue
          CFI `B.BR7` SameValue
          CFI `VB.BR8` SameValue
          CFI `VB.BR9` SameValue
          CFI `VB.BR10` SameValue
          CFI `VB.BR11` SameValue
          CFI `VB.BR12` SameValue
          CFI `VB.BR13` SameValue
          CFI `VB.BR14` SameValue
          CFI `VB.BR15` SameValue
          CFI VB SameValue
          CFI B Undefined
          CFI A Undefined
          CFI PSW SameValue
          CFI DPL0 SameValue
          CFI DPH0 SameValue
          CFI R0 Undefined
          CFI R1 Undefined
          CFI R2 Undefined
          CFI R3 Undefined
          CFI R4 Undefined
          CFI R5 Undefined
          CFI R6 SameValue
          CFI R7 SameValue
          CFI V0 SameValue
          CFI V1 SameValue
          CFI V2 SameValue
          CFI V3 SameValue
          CFI V4 SameValue
          CFI V5 SameValue
          CFI V6 SameValue
          CFI V7 SameValue
          CFI PSPH Undefined
          CFI PSPL Undefined
          CFI XSPH Undefined
          CFI XSPL Undefined
          CFI ?RET Concat
          CFI ?BRET_EXT Frame(CFA_SP, 3)
          CFI ?RET_HIGH Frame(CFA_SP, 2)
          CFI ?RET_LOW Frame(CFA_SP, 1)
          CFI EndCommon cfiCommon0
        
        
          CFI Common cfiCommon1 Using cfiNames0
          CFI CodeAlign 1
          CFI DataAlign -1
          CFI ReturnAddress ?RET CODE
          CFI CFA_DOVERLAY Used
          CFI CFA_IOVERLAY Used
          CFI CFA_SP SP+-2
          CFI CFA_PSP16 PSP16+0
          CFI CFA_XSP16 XSP16+0
          CFI `PSW.CY` SameValue
          CFI `B.BR0` SameValue
          CFI `B.BR1` SameValue
          CFI `B.BR2` SameValue
          CFI `B.BR3` SameValue
          CFI `B.BR4` SameValue
          CFI `B.BR5` SameValue
          CFI `B.BR6` SameValue
          CFI `B.BR7` SameValue
          CFI `VB.BR8` SameValue
          CFI `VB.BR9` SameValue
          CFI `VB.BR10` SameValue
          CFI `VB.BR11` SameValue
          CFI `VB.BR12` SameValue
          CFI `VB.BR13` SameValue
          CFI `VB.BR14` SameValue
          CFI `VB.BR15` SameValue
          CFI VB SameValue
          CFI B SameValue
          CFI A SameValue
          CFI PSW SameValue
          CFI DPL0 SameValue
          CFI DPH0 SameValue
          CFI R0 SameValue
          CFI R1 SameValue
          CFI R2 SameValue
          CFI R3 SameValue
          CFI R4 SameValue
          CFI R5 SameValue
          CFI R6 SameValue
          CFI R7 SameValue
          CFI V0 SameValue
          CFI V1 SameValue
          CFI V2 SameValue
          CFI V3 SameValue
          CFI V4 SameValue
          CFI V5 SameValue
          CFI V6 SameValue
          CFI V7 SameValue
          CFI PSPH Undefined
          CFI PSPL Undefined
          CFI XSPH Undefined
          CFI XSPL Undefined
          CFI ?RET Concat
          CFI ?BRET_EXT SameValue
          CFI ?RET_HIGH Frame(CFA_SP, 2)
          CFI ?RET_LOW Frame(CFA_SP, 1)
          CFI EndCommon cfiCommon1
        
AddrMgrInit         SYMBOL "AddrMgrInit"
`??AddrMgrInit::?relay` SYMBOL "?relay", AddrMgrInit
NLME_InitTreeAddressing SYMBOL "NLME_InitTreeAddressing"
`??NLME_InitTreeAddressing::?relay` SYMBOL "?relay", NLME_InitTreeAddressing
NwkFreqAgilityInit  SYMBOL "NwkFreqAgilityInit"
`??NwkFreqAgilityInit::?relay` SYMBOL "?relay", NwkFreqAgilityInit
RTG_FillCSkipTable  SYMBOL "RTG_FillCSkipTable"
`??RTG_FillCSkipTable::?relay` SYMBOL "?relay", RTG_FillCSkipTable
osal_mem_alloc      SYMBOL "osal_mem_alloc"
`??osal_mem_alloc::?relay` SYMBOL "?relay", osal_mem_alloc
osal_memset         SYMBOL "osal_memset"
`??osal_memset::?relay` SYMBOL "?relay", osal_memset
osal_rand           SYMBOL "osal_rand"
`??osal_rand::?relay` SYMBOL "?relay", osal_rand
sAddrExtCpy         SYMBOL "sAddrExtCpy"
`??sAddrExtCpy::?relay` SYMBOL "?relay", sAddrExtCpy
NIB_init            SYMBOL "NIB_init"
`??NIB_init::?relay` SYMBOL "?relay", NIB_init
nwk_Status          SYMBOL "nwk_Status"
`??nwk_Status::?relay` SYMBOL "?relay", nwk_Status
nwk_UpdateStatistics SYMBOL "nwk_UpdateStatistics"
`??nwk_UpdateStatistics::?relay` SYMBOL "?relay", nwk_UpdateStatistics
nwk_globals_init    SYMBOL "nwk_globals_init"
`??nwk_globals_init::?relay` SYMBOL "?relay", nwk_globals_init

        EXTERN `??AddrMgrInit::?relay`
        FUNCTION `??AddrMgrInit::?relay`,00H
        EXTERN `??NLME_InitTreeAddressing::?relay`
        FUNCTION `??NLME_InitTreeAddressing::?relay`,00H
        EXTERN `??NwkFreqAgilityInit::?relay`
        FUNCTION `??NwkFreqAgilityInit::?relay`,00H
        EXTERN `??RTG_FillCSkipTable::?relay`
        FUNCTION `??RTG_FillCSkipTable::?relay`,00H
        EXTERN `??osal_mem_alloc::?relay`
        FUNCTION `??osal_mem_alloc::?relay`,00H
        EXTERN `??osal_memset::?relay`
        FUNCTION `??osal_memset::?relay`,00H
        EXTERN `??osal_rand::?relay`
        FUNCTION `??osal_rand::?relay`,00H
        EXTERN `??sAddrExtCpy::?relay`
        FUNCTION `??sAddrExtCpy::?relay`,00H
        EXTERN AddrMgrInit
        FUNCTION AddrMgrInit,0202H
        ARGFRAME ISTACK, 2, STACK
        ARGFRAME PSTACK, 0, STACK
        ARGFRAME XSTACK, 0, STACK
        ARGFRAME IOVERLAY, 0, STATIC
        ARGFRAME DOVERLAY, 0, STATIC
        EXTERN NLME_InitTreeAddressing
        FUNCTION NLME_InitTreeAddressing,0202H
        ARGFRAME ISTACK, 2, STACK
        ARGFRAME PSTACK, 0, STACK
        ARGFRAME XSTACK, 0, STACK
        ARGFRAME IOVERLAY, 0, STATIC
        ARGFRAME DOVERLAY, 0, STATIC
        EXTERN NwkFreqAgilityInit
        FUNCTION NwkFreqAgilityInit,0202H
        ARGFRAME ISTACK, 2, STACK
        ARGFRAME PSTACK, 0, STACK
        ARGFRAME XSTACK, 0, STACK
        ARGFRAME IOVERLAY, 0, STATIC
        ARGFRAME DOVERLAY, 0, STATIC
        EXTERN RTG_FillCSkipTable
        FUNCTION RTG_FillCSkipTable,0202H
        ARGFRAME ISTACK, 2, STACK
        ARGFRAME PSTACK, 0, STACK
        ARGFRAME XSTACK, 2, STACK
        ARGFRAME IOVERLAY, 0, STATIC
        ARGFRAME DOVERLAY, 0, STATIC
        EXTERN ZDO_Config_Node_Descriptor
        EXTERN _NIB
        EXTERN osal_mem_alloc
        FUNCTION osal_mem_alloc,0202H
        ARGFRAME ISTACK, 2, STACK
        ARGFRAME PSTACK, 0, STACK
        ARGFRAME XSTACK, 0, STACK
        ARGFRAME IOVERLAY, 0, STATIC
        ARGFRAME DOVERLAY, 0, STATIC
        EXTERN osal_memset
        FUNCTION osal_memset,0202H
        ARGFRAME ISTACK, 2, STACK
        ARGFRAME PSTACK, 0, STACK
        ARGFRAME XSTACK, 0, STACK
        ARGFRAME IOVERLAY, 0, STATIC
        ARGFRAME DOVERLAY, 0, STATIC
        EXTERN osal_rand
        FUNCTION osal_rand,0202H
        ARGFRAME ISTACK, 2, STACK
        ARGFRAME PSTACK, 0, STACK
        ARGFRAME XSTACK, 0, STACK
        ARGFRAME IOVERLAY, 0, STATIC
        ARGFRAME DOVERLAY, 0, STATIC
        EXTERN sAddrExtCpy
        FUNCTION sAddrExtCpy,0202H
        ARGFRAME ISTACK, 2, STACK
        ARGFRAME PSTACK, 0, STACK
        ARGFRAME XSTACK, 0, STACK
        ARGFRAME IOVERLAY, 0, STATIC
        ARGFRAME DOVERLAY, 0, STATIC
        EXTERN zgBcastDeliveryTime
        EXTERN zgConcentratorDiscoveryTime
        EXTERN zgConcentratorEnable
        EXTERN zgConcentratorRadius
        EXTERN zgDeviceLogicalType
        EXTERN zgExtendedPANID
        EXTERN zgIndirectMsgTimeout
        EXTERN zgMaxBcastRetires
        EXTERN zgPassiveAckTimeout
        EXTERN zgRouteDiscoveryTime
        EXTERN zgRouteExpiryTime

// C:\Texas Instruments\ZStack-CC2530-2.4.0-1.4.0\Components\stack\nwk\nwk_globals.c
//    1 /**************************************************************************************************
//    2   Filename:       nwk_globals.c
//    3   Revised:        $Date: 2010-09-09 09:46:48 -0700 (Thu, 09 Sep 2010) $
//    4   Revision:       $Revision: 23706 $
//    5 
//    6   Description:    User definable Network Parameters.
//    7 
//    8 
//    9   Copyright 2004-2010 Texas Instruments Incorporated. All rights reserved.
//   10 
//   11   IMPORTANT: Your use of this Software is limited to those specific rights
//   12   granted under the terms of a software license agreement between the user
//   13   who downloaded the software, his/her employer (which must be your employer)
//   14   and Texas Instruments Incorporated (the "License").  You may not use this
//   15   Software unless you agree to abide by the terms of the License. The License
//   16   limits your use, and you acknowledge, that the Software may not be modified,
//   17   copied or distributed unless embedded on a Texas Instruments microcontroller
//   18   or used solely and exclusively in conjunction with a Texas Instruments radio
//   19   frequency transceiver, which is integrated into your product.  Other than for
//   20   the foregoing purpose, you may not use, reproduce, copy, prepare derivative
//   21   works of, modify, distribute, perform, display or sell this Software and/or
//   22   its documentation for any purpose.
//   23 
//   24   YOU FURTHER ACKNOWLEDGE AND AGREE THAT THE SOFTWARE AND DOCUMENTATION ARE
//   25   PROVIDED “AS IS?WITHOUT WARRANTY OF ANY KIND, EITHER EXPRESS OR IMPLIED,
//   26   INCLUDING WITHOUT LIMITATION, ANY WARRANTY OF MERCHANTABILITY, TITLE,
//   27   NON-INFRINGEMENT AND FITNESS FOR A PARTICULAR PURPOSE. IN NO EVENT SHALL
//   28   TEXAS INSTRUMENTS OR ITS LICENSORS BE LIABLE OR OBLIGATED UNDER CONTRACT,
//   29   NEGLIGENCE, STRICT LIABILITY, CONTRIBUTION, BREACH OF WARRANTY, OR OTHER
//   30   LEGAL EQUITABLE THEORY ANY DIRECT OR INDIRECT DAMAGES OR EXPENSES
//   31   INCLUDING BUT NOT LIMITED TO ANY INCIDENTAL, SPECIAL, INDIRECT, PUNITIVE
//   32   OR CONSEQUENTIAL DAMAGES, LOST PROFITS OR LOST DATA, COST OF PROCUREMENT
//   33   OF SUBSTITUTE GOODS, TECHNOLOGY, SERVICES, OR ANY CLAIMS BY THIRD PARTIES
//   34   (INCLUDING BUT NOT LIMITED TO ANY DEFENSE THEREOF), OR OTHER SIMILAR COSTS.
//   35 
//   36   Should you have any questions regarding your right to use this Software,
//   37   contact Texas Instruments Incorporated at www.TI.com.
//   38 **************************************************************************************************/
//   39 
//   40 /*********************************************************************
//   41  * INCLUDES
//   42  */
//   43 #include "ZComdef.h"
//   44 #include "OSAL.h"
//   45 #include "AddrMgr.h"
//   46 #include "AssocList.h"
//   47 #include "BindingTable.h"
//   48 #include "nwk_util.h"
//   49 #include "nwk_globals.h"
//   50 #include "APS.h"
//   51 #include "ssp.h"
//   52 #include "rtg.h"
//   53 #include "ZDConfig.h"
//   54 #include "ZGlobals.h"
//   55 
//   56 #if defined ( LCD_SUPPORTED )
//   57   #include "OnBoard.h"
//   58 #endif
//   59 
//   60 /* HAL */
//   61 #include "hal_lcd.h"
//   62 
//   63 /*********************************************************************
//   64  * MACROS
//   65  */
//   66 
//   67 /*********************************************************************
//   68  * CONSTANTS
//   69  */
//   70 
//   71 // Maximums for the data buffer queue
//   72 #define NWK_MAX_DATABUFS_WAITING    8     // Waiting to be sent to MAC
//   73 #define NWK_MAX_DATABUFS_SCHEDULED  5     // Timed messages to be sent
//   74 #define NWK_MAX_DATABUFS_CONFIRMED  5     // Held after MAC confirms
//   75 #define NWK_MAX_DATABUFS_TOTAL      12    // Total number of buffers
//   76 
//   77 // 1-255 (0 -> 256) X RTG_TIMER_INTERVAL
//   78 // A known shortcoming is that when a message is enqueued as "hold" for a
//   79 // sleeping device, the timer tick may have counted down to 1, so that msg
//   80 // will not be held as long as expected. If NWK_INDIRECT_MSG_TIMEOUT is set to 1
//   81 // the hold time will vary randomly from 0 - CNT_RTG_TIMER ticks.
//   82 // So the hold time will vary within this interval:
//   83 // { (NWK_INDIRECT_MSG_TIMEOUT-1)*CNT_RTG_TIMER,
//   84 //                                    NWK_INDIRECT_MSG_TIMEOUT*CNT_RTG_TIMER }
//   85 #define NWK_INDIRECT_CNT_RTG_TMR    1
//   86 // To hold msg for sleeping end devices for 30 secs:
//   87 // #define CNT_RTG_TIMER            1
//   88 // #define NWK_INDIRECT_MSG_TIMEOUT 30
//   89 // To hold msg for sleeping end devices for 30 mins:
//   90 // #define CNT_RTG_TIMER            60
//   91 // #define NWK_INDIRECT_MSG_TIMEOUT 30
//   92 // To hold msg for sleeping end devices for 30 days:
//   93 // #define CNT_RTG_TIMER            60
//   94 // #define NWK_INDIRECT_MSG_TIMEOUT (30 * 24 * 60)
//   95 // Maximum msgs to hold per associated device.
//   96 #define NWK_INDIRECT_MSG_MAX_PER    3
//   97 // Maximum total msgs to hold for all associated devices.
//   98 #define NWK_INDIRECT_MSG_MAX_ALL    \ 
//   99                             (NWK_MAX_DATABUFS_TOTAL - NWK_INDIRECT_MSG_MAX_PER)
//  100 
//  101 /*********************************************************************
//  102  * TYPEDEFS
//  103  */
//  104 
//  105 /*********************************************************************
//  106  * NWK GLOBAL VARIABLES
//  107  */
//  108 
//  109 // Variables for MAX list size

        RSEG CODE_C:CODE:REORDER:NOROOT(0)
        DATA16
//  110 CONST uint16 gNWK_MAX_DEVICE_LIST = NWK_MAX_DEVICES;
gNWK_MAX_DEVICE_LIST:
        DW 21
//  111 
//  112 // Variables for MAX Sleeping End Devices

        RSEG CODE_C:CODE:REORDER:NOROOT(0)
        DATA8
//  113 CONST uint8 gNWK_MAX_SLEEPING_END_DEVICES = NWK_MAX_DEVICES - NWK_MAX_ROUTERS;
gNWK_MAX_SLEEPING_END_DEVICES:
        DB 15
//  114 
//  115 // Variables for MAX data buffer levels

        RSEG CODE_C:CODE:REORDER:NOROOT(0)
        DATA8
//  116 CONST uint8 gNWK_MAX_DATABUFS_WAITING = NWK_MAX_DATABUFS_WAITING;
gNWK_MAX_DATABUFS_WAITING:
        DB 8

        RSEG CODE_C:CODE:REORDER:NOROOT(0)
        DATA8
//  117 CONST uint8 gNWK_MAX_DATABUFS_SCHEDULED = NWK_MAX_DATABUFS_SCHEDULED;
gNWK_MAX_DATABUFS_SCHEDULED:
        DB 5

        RSEG CODE_C:CODE:REORDER:NOROOT(0)
        DATA8
//  118 CONST uint8 gNWK_MAX_DATABUFS_CONFIRMED = NWK_MAX_DATABUFS_CONFIRMED;
gNWK_MAX_DATABUFS_CONFIRMED:
        DB 5

        RSEG CODE_C:CODE:REORDER:NOROOT(0)
        DATA8
//  119 CONST uint8 gNWK_MAX_DATABUFS_TOTAL = NWK_MAX_DATABUFS_TOTAL;
gNWK_MAX_DATABUFS_TOTAL:
        DB 12
//  120 

        RSEG CODE_C:CODE:REORDER:NOROOT(0)
        DATA8
//  121 CONST uint8 gNWK_INDIRECT_CNT_RTG_TMR = NWK_INDIRECT_CNT_RTG_TMR;
gNWK_INDIRECT_CNT_RTG_TMR:
        DB 1

        RSEG CODE_C:CODE:REORDER:NOROOT(0)
        DATA8
//  122 CONST uint8 gNWK_INDIRECT_MSG_MAX_PER = NWK_INDIRECT_MSG_MAX_PER;
gNWK_INDIRECT_MSG_MAX_PER:
        DB 3

        RSEG CODE_C:CODE:REORDER:NOROOT(0)
        DATA8
//  123 CONST uint8 gNWK_INDIRECT_MSG_MAX_ALL = NWK_INDIRECT_MSG_MAX_ALL;
gNWK_INDIRECT_MSG_MAX_ALL:
        DB 9
//  124 
//  125 // change this if using a different stack profile...
//  126 // Cskip array

        RSEG XDATA_Z:XDATA:NOROOT(0)
        DATA16
//  127 uint16 *Cskip;
Cskip:
        DS 2
        REQUIRE __INIT_XDATA_Z
//  128 
//  129 #if ( STACK_PROFILE_ID == ZIGBEEPRO_PROFILE )
//  130   uint8 CskipRtrs[1] = {0};
//  131   uint8 CskipChldrn[1] = {0};
//  132 #elif ( STACK_PROFILE_ID == HOME_CONTROLS )
//  133 #if defined (STARTEST)

        RSEG XDATA_I:XDATA:NOROOT(0)
//  134   uint8 CskipRtrs[MAX_NODE_DEPTH+1] = {5,0,0,0,0,0};
CskipRtrs:
        DATA8
        DS 6
        REQUIRE `?<Initializer for CskipRtrs>`
        REQUIRE __INIT_XDATA_I

        RSEG XDATA_I:XDATA:NOROOT(0)
//  135   uint8 CskipChldrn[MAX_NODE_DEPTH+1] = {10,0,0,0,0,0};
CskipChldrn:
        DATA8
        DS 6
        REQUIRE `?<Initializer for CskipChldrn>`
        REQUIRE __INIT_XDATA_I
//  136 #elif defined (TREETEST)
//  137   uint8 CskipRtrs[MAX_NODE_DEPTH+1] = {1,1,1,1,1,0};
//  138   uint8 CskipChldrn[MAX_NODE_DEPTH+1] = {2,2,2,2,2,0};
//  139 #else  
//  140   uint8 CskipRtrs[MAX_NODE_DEPTH+1] = {6,6,6,6,6,0};
//  141   uint8 CskipChldrn[MAX_NODE_DEPTH+1] = {20,20,20,20,20,0};
//  142 #endif  
//  143 #elif ( STACK_PROFILE_ID == GENERIC_STAR )
//  144   uint8 CskipRtrs[MAX_NODE_DEPTH+1] = {5,5,5,5,5,0};
//  145   uint8 CskipChldrn[MAX_NODE_DEPTH+1] = {5,5,5,5,5,0};
//  146 #elif ( STACK_PROFILE_ID == NETWORK_SPECIFIC )
//  147   uint8 CskipRtrs[MAX_NODE_DEPTH+1] = {5,5,5,5,5,0};
//  148   uint8 CskipChldrn[MAX_NODE_DEPTH+1] = {5,5,5,5,5,0};
//  149 #endif // STACK_PROFILE_ID
//  150 
//  151 // Minimum lqi value that is required for association

        RSEG XDATA_I:XDATA:NOROOT(0)
//  152 uint8 gMIN_TREE_LINK_COST = MIN_LQI_COST_3;
gMIN_TREE_LINK_COST:
        DATA8
        DS 1
        REQUIRE `?<Initializer for gMIN_TREE_LINK_COST>`
        REQUIRE __INIT_XDATA_I
//  153 
//  154 // Statically defined Associated Device List

        RSEG XDATA_Z:XDATA:NOROOT(0)
        DATA8
//  155 associated_devices_t AssociatedDevList[NWK_MAX_DEVICES];
AssociatedDevList:
        DS 378
        REQUIRE __INIT_XDATA_Z
//  156 

        RSEG CODE_C:CODE:REORDER:NOROOT(0)
        DATA16
//  157 CONST uint16 gMAX_RTG_ENTRIES = MAX_RTG_ENTRIES;
gMAX_RTG_ENTRIES:
        DW 40

        RSEG CODE_C:CODE:REORDER:NOROOT(0)
        DATA16
//  158 CONST uint16 gMAX_RTG_SRC_ENTRIES = MAX_RTG_SRC_ENTRIES;
gMAX_RTG_SRC_ENTRIES:
        DW 12

        RSEG CODE_C:CODE:REORDER:NOROOT(0)
        DATA8
//  159 CONST uint8 gMAX_RREQ_ENTRIES = MAX_RREQ_ENTRIES;
gMAX_RREQ_ENTRIES:
        DB 8
//  160 

        RSEG CODE_C:CODE:REORDER:NOROOT(0)
        DATA8
//  161 CONST uint8 gMAX_NEIGHBOR_ENTRIES = MAX_NEIGHBOR_ENTRIES;
gMAX_NEIGHBOR_ENTRIES:
        DB 16
//  162 
//  163  // Table of neighboring nodes (not including child nodes)

        RSEG XDATA_Z:XDATA:NOROOT(0)
        DATA8
//  164 neighborEntry_t neighborTable[MAX_NEIGHBOR_ENTRIES];
neighborTable:
        DS 368
        REQUIRE __INIT_XDATA_Z
//  165 

        RSEG CODE_C:CODE:REORDER:NOROOT(0)
        DATA8
//  166 CONST uint8 gMAX_SOURCE_ROUTE = MAX_SOURCE_ROUTE;
gMAX_SOURCE_ROUTE:
        DB 12
//  167 

        RSEG CODE_C:CODE:REORDER:NOROOT(0)
        DATA8
//  168 CONST uint8 gMAX_BROADCAST_QUEUED = MAX_BROADCAST_QUEUED;
gMAX_BROADCAST_QUEUED:
        DB 10
//  169 

        RSEG CODE_C:CODE:REORDER:NOROOT(0)
        DATA8
//  170 CONST uint8 gLINK_DOWN_TRIGGER = LINK_DOWN_TRIGGER;
gLINK_DOWN_TRIGGER:
        DB 3
//  171 

        RSEG CODE_C:CODE:REORDER:NOROOT(0)
        DATA8
//  172 CONST uint8 gMAX_PASSIVE_ACK_CNT = MAX_PASSIVE_ACK_CNT;
gMAX_PASSIVE_ACK_CNT:
        DB 8
//  173 
//  174 // Routing table

        RSEG XDATA_Z:XDATA:NOROOT(0)
        DATA8
//  175 rtgEntry_t rtgTable[MAX_RTG_ENTRIES];
rtgTable:
        DS 280
        REQUIRE __INIT_XDATA_Z
//  176 
//  177 #if defined ( ZIGBEE_SOURCE_ROUTING )
//  178   rtgSrcEntry_t rtgSrcTable[MAX_RTG_SRC_ENTRIES];
//  179   uint16 rtgSrcRelayList[MAX_SOURCE_ROUTE];
//  180 #endif
//  181 
//  182 // Table of current RREQ packets in the network

        RSEG XDATA_Z:XDATA:NOROOT(0)
        DATA8
//  183 rtDiscEntry_t rtDiscTable[MAX_RREQ_ENTRIES];
rtDiscTable:
        DS 64
        REQUIRE __INIT_XDATA_Z
//  184 
//  185 // Table of data broadcast packets currently in circulation.

        RSEG XDATA_Z:XDATA:NOROOT(0)
        DATA8
//  186 bcastEntry_t bcastTable[MAX_BCAST];
bcastTable:
        DS 72
        REQUIRE __INIT_XDATA_Z
//  187 
//  188 // These 2 arrays are to be used as an array of struct { uint8, uint32 }.

        RSEG XDATA_Z:XDATA:NOROOT(0)
        DATA8
//  189 uint8 bcastHoldHandle[MAX_BCAST];
bcastHoldHandle:
        DS 9
        REQUIRE __INIT_XDATA_Z

        RSEG XDATA_Z:XDATA:NOROOT(0)
        DATA8
//  190 uint32 bcastHoldAckMask[MAX_BCAST];
bcastHoldAckMask:
        DS 36
        REQUIRE __INIT_XDATA_Z
//  191 

        RSEG CODE_C:CODE:REORDER:NOROOT(0)
        DATA8
//  192 CONST uint8 gMAX_BCAST = MAX_BCAST;
gMAX_BCAST:
        DB 9
//  193 
//  194 // For tree addressing, this switch allows the allocation of a
//  195 // router address to an end device when end device address are
//  196 // all used up.  If this option is enabled, address space
//  197 // could be limited.

        RSEG CODE_C:CODE:REORDER:NOROOT(0)
        DATA8
//  198 CONST uint8 gNWK_TREE_ALLOCATE_ROUTERADDR_FOR_ENDDEVICE = FALSE;
gNWK_TREE_ALLOCATE_ROUTERADDR_FOR_ENDDEVICE:
        DB 0
//  199 
//  200 #if defined ( ZIGBEE_STOCHASTIC_ADDRESSING )
//  201 // number of link status periods after the last received address conflict report
//  202 // (network status command)
//  203 CONST uint8 gNWK_CONFLICTED_ADDR_EXPIRY_TIME = NWK_CONFLICTED_ADDR_EXPIRY_TIME;
//  204 #endif
//  205 
//  206 #if defined ( ZIGBEE_FREQ_AGILITY )

        RSEG CODE_C:CODE:REORDER:NOROOT(0)
        DATA8
//  207 CONST uint8 gNWK_FREQ_AGILITY_ALL_MAC_ERRS = NWK_FREQ_AGILITY_ALL_MAC_ERRS;
gNWK_FREQ_AGILITY_ALL_MAC_ERRS:
        DB 0
//  208 #endif
//  209 
//  210 // The time limited to one MTO RReq (Concentrator Announce) in milliseconds.

        RSEG CODE_C:CODE:REORDER:NOROOT(0)
        DATA16
//  211 CONST uint16 gMTO_RREQ_LIMIT_TIME = MTO_RREQ_LIMIT_TIME;
gMTO_RREQ_LIMIT_TIME:
        DW 1000
//  212 
//  213 // The number of seconds a MTO routing entry will last.

        RSEG CODE_C:CODE:REORDER:NOROOT(0)
        DATA8
//  214 CONST uint8 gMTO_ROUTE_EXPIRY_TIME = MTO_ROUTE_EXPIRY_TIME;
gMTO_ROUTE_EXPIRY_TIME:
        DB 255
//  215 
//  216 // Route Discovery Request Default Radius

        RSEG CODE_C:CODE:REORDER:NOROOT(0)
        DATA8
//  217 CONST uint8 gDEFAULT_ROUTE_REQUEST_RADIUS = DEFAULT_ROUTE_REQUEST_RADIUS;
gDEFAULT_ROUTE_REQUEST_RADIUS:
        DB 30
//  218 
//  219 // Network message radius

        RSEG CODE_C:CODE:REORDER:NOROOT(0)
        DATA8
//  220 CONST uint8 gDEF_NWK_RADIUS = DEF_NWK_RADIUS;
gDEF_NWK_RADIUS:
        DB 30
//  221 
//  222 #if ( ZSTACK_ROUTER_BUILD )

        RSEG CODE_C:CODE:REORDER:NOROOT(0)
        DATA16
//  223 CONST uint16 gLINK_STATUS_JITTER_MASK = LINK_STATUS_JITTER_MASK;
gLINK_STATUS_JITTER_MASK:
        DW 127
//  224 #endif
//  225 
//  226 /*********************************************************************
//  227  * APS GLOBAL VARIABLES
//  228  */
//  229 
//  230 // The Maximum number of binding records
//  231 // This number is defined in BindingTable.h - change it there.

        RSEG CODE_C:CODE:REORDER:NOROOT(0)
        DATA16
//  232 CONST uint16 gNWK_MAX_BINDING_ENTRIES = NWK_MAX_BINDING_ENTRIES;
gNWK_MAX_BINDING_ENTRIES:
        DW 4
//  233 
//  234 #if defined ( REFLECTOR )
//  235   // The Maximum number of cluster IDs in a binding record
//  236   // This number is defined in BindingTable.h - change it there.

        RSEG CODE_C:CODE:REORDER:NOROOT(0)
        DATA8
//  237   CONST uint8 gMAX_BINDING_CLUSTER_IDS = MAX_BINDING_CLUSTER_IDS;
gMAX_BINDING_CLUSTER_IDS:
        DB 4
//  238 

        RSEG CODE_C:CODE:REORDER:NOROOT(0)
        DATA16
//  239   CONST uint16 gBIND_REC_SIZE = sizeof( BindingEntry_t );
gBIND_REC_SIZE:
        DW 14
//  240 
//  241   // Binding Table

        RSEG XDATA_Z:XDATA:NOROOT(0)
        DATA8
//  242   BindingEntry_t BindingTable[NWK_MAX_BINDING_ENTRIES];
BindingTable:
        DS 56
        REQUIRE __INIT_XDATA_Z
//  243 #endif
//  244 
//  245 // Maximum number allowed in the groups table.

        RSEG CODE_C:CODE:REORDER:NOROOT(0)
        DATA8
//  246 CONST uint8 gAPS_MAX_GROUPS = APS_MAX_GROUPS;
gAPS_MAX_GROUPS:
        DB 16
//  247 
//  248 // APS End Device Broadcast Table
//  249 #if ( ZG_BUILD_ENDDEVICE_TYPE )

        RSEG XDATA_Z:XDATA:NOROOT(0)
        DATA8
//  250   apsEndDeviceBroadcast_t apsEndDeviceBroadcastTable[APS_MAX_ENDDEVICE_BROADCAST_ENTRIES];
apsEndDeviceBroadcastTable:
        DS 90
        REQUIRE __INIT_XDATA_Z

        RSEG XDATA_I:XDATA:NOROOT(0)
//  251   uint8 gAPS_MAX_ENDDEVICE_BROADCAST_ENTRIES = APS_MAX_ENDDEVICE_BROADCAST_ENTRIES;
gAPS_MAX_ENDDEVICE_BROADCAST_ENTRIES:
        DATA8
        DS 1
        REQUIRE `?<Initializer for gAPS_MAX_ENDDEVICE_BROADCAST`
        REQUIRE __INIT_XDATA_I
//  252 #endif
//  253 
//  254 /*********************************************************************
//  255  * SECURITY GLOBAL VARIABLES
//  256  */
//  257 
//  258 // This is the default pre-configured key,
//  259 // change this to make a unique key
//  260 // SEC_KEY_LEN is defined in ssp.h.
//  261 
//  262 #if defined ( DEFAULT_KEY )

        RSEG CODE_C:CODE:REORDER:NOROOT(0)
        DATA8
//  263 CONST uint8 defaultKey[SEC_KEY_LEN] = DEFAULT_KEY;
defaultKey:
        DB 1
        DB 3
        DB 5
        DB 7
        DB 9
        DB 11
        DB 13
        DB 15
        DB 0
        DB 2
        DB 4
        DB 6
        DB 8
        DB 10
        DB 12
        DB 13
//  264 #else
//  265 CONST uint8 defaultKey[SEC_KEY_LEN] =
//  266 {
//  267 #if defined ( APP_TP ) || defined ( APP_TP2 )
//  268   // Key for ZigBee Conformance Testing
//  269   0xbb, 0xbb, 0xbb, 0xbb, 0xbb, 0xbb, 0xbb, 0xbb,
//  270   0xaa, 0xaa, 0xaa, 0xaa, 0xaa, 0xaa, 0xaa, 0xaa
//  271 #else
//  272   // Key for In-House Testing
//  273   0x00, 0x01, 0x02, 0x03, 0x04, 0x05, 0x06, 0x07,
//  274   0x08, 0x09, 0x0A, 0x0B, 0x0C, 0x0D, 0x0E, 0x0F
//  275 #endif
//  276 };
//  277 #endif
//  278 
//  279 // This is the default pre-configured Trust Center Link key,
//  280 // change this to make a unique key, SEC_KEY_LEN is defined in ssp.h.

        RSEG CODE_C:CODE:REORDER:NOROOT(0)
        DATA8
//  281 CONST uint8 defaultTCLinkKey[SEC_KEY_LEN] =
defaultTCLinkKey:
        DB 86
        DB 119
        DB 119
        DB 119
        DB 119
        DB 119
        DB 119
        DB 119
        DB 119
        DB 119
        DB 119
        DB 119
        DB 119
        DB 119
        DB 119
        DB 119
//  282 {
//  283   0x56, 0x77, 0x77, 0x77, 0x77, 0x77, 0x77, 0x77,
//  284   0x77, 0x77, 0x77, 0x77, 0x77, 0x77, 0x77, 0x77
//  285 };
//  286 
//  287 /*********************************************************************
//  288  * GLOBAL VARIABLES - Statistics
//  289  */
//  290 
//  291 #if defined ( PACKET_FILTER_STATS )
//  292   uint32 apsInvalidPackets = 0;
//  293   uint32 apsSecurityFailures = 0;
//  294   uint32 nwkInvalidPackets = 0;
//  295   uint32 nwkSecurityFailures = 0;
//  296 #endif
//  297 
//  298 /*********************************************************************
//  299  * STATUS STRINGS
//  300  */
//  301 #if defined ( LCD_SUPPORTED )
//  302   const char PingStr[]         = "Ping Rcvd from";
//  303   const char AssocCnfStr[]     = "Assoc Cnf";
//  304   const char SuccessStr[]      = "Success";
//  305   const char EndDeviceStr[]    = "EndDevice:";
//  306   const char ParentStr[]       = "Parent:";
//  307   const char ZigbeeCoordStr[]  = "ZigBee Coord";
//  308   const char NetworkIDStr[]    = "Network ID:";
//  309   const char RouterStr[]       = "Router:";
//  310   const char OrphanRspStr[]    = "Orphan Response";
//  311   const char SentStr[]         = "Sent";
//  312   const char FailedStr[]       = "Failed";
//  313   const char AssocRspFailStr[] = "Assoc Rsp fail";
//  314   const char AssocIndStr[]     = "Assoc Ind";
//  315   const char AssocCnfFailStr[] = "Assoc Cnf fail";
//  316   const char EnergyLevelStr[]  = "Energy Level";
//  317   const char ScanFailedStr[]   = "Scan Failed";
//  318 #endif
//  319 
//  320 /*********************************************************************
//  321  * @fn       nwk_globals_init()
//  322  *
//  323  * @brief
//  324  *
//  325  *   Initialize nwk layer globals.  These are the system defaults and
//  326  *   should be changed by the user here.  The default definitions are
//  327  *   defined in nwk.h or NLMEDE.h.
//  328  *
//  329  * @param   none
//  330  *
//  331  * @return  none
//  332  */

        RSEG BANKED_CODE:HUGECODE:NOROOT(0)
//  333 void nwk_globals_init( void )
nwk_globals_init:
          CFI Block cfiBlock0 Using cfiCommon0
          CFI Function nwk_globals_init
        CODE
//  334 {
        FUNCALL nwk_globals_init, AddrMgrInit
        LOCFRAME ISTACK, 2, STACK
        LOCFRAME PSTACK, 0, STACK
        LOCFRAME XSTACK, 0, STACK
        LOCFRAME IOVERLAY, 0, STATIC
        LOCFRAME DOVERLAY, 0, STATIC
        ARGFRAME ISTACK, 2, STACK
        ARGFRAME PSTACK, 0, STACK
        ARGFRAME XSTACK, 0, STACK
        ARGFRAME IOVERLAY, 0, STATIC
        ARGFRAME DOVERLAY, 0, STATIC
        FUNCALL nwk_globals_init, osal_mem_alloc
        LOCFRAME ISTACK, 2, STACK
        LOCFRAME PSTACK, 0, STACK
        LOCFRAME XSTACK, 0, STACK
        LOCFRAME IOVERLAY, 0, STATIC
        LOCFRAME DOVERLAY, 0, STATIC
        ARGFRAME ISTACK, 2, STACK
        ARGFRAME PSTACK, 0, STACK
        ARGFRAME XSTACK, 0, STACK
        ARGFRAME IOVERLAY, 0, STATIC
        ARGFRAME DOVERLAY, 0, STATIC
        FUNCALL nwk_globals_init, RTG_FillCSkipTable
        LOCFRAME ISTACK, 2, STACK
        LOCFRAME PSTACK, 0, STACK
        LOCFRAME XSTACK, 2, STACK
        LOCFRAME IOVERLAY, 0, STATIC
        LOCFRAME DOVERLAY, 0, STATIC
        ARGFRAME ISTACK, 2, STACK
        ARGFRAME PSTACK, 0, STACK
        ARGFRAME XSTACK, 2, STACK
        ARGFRAME IOVERLAY, 0, STATIC
        ARGFRAME DOVERLAY, 0, STATIC
        FUNCALL nwk_globals_init, NwkFreqAgilityInit
        LOCFRAME ISTACK, 2, STACK
        LOCFRAME PSTACK, 0, STACK
        LOCFRAME XSTACK, 0, STACK
        LOCFRAME IOVERLAY, 0, STATIC
        LOCFRAME DOVERLAY, 0, STATIC
        ARGFRAME ISTACK, 2, STACK
        ARGFRAME PSTACK, 0, STACK
        ARGFRAME XSTACK, 0, STACK
        ARGFRAME IOVERLAY, 0, STATIC
        ARGFRAME DOVERLAY, 0, STATIC
        PUSH    DPL
          CFI DPL0 Frame(CFA_SP, 4)
          CFI CFA_SP SP+-4
        PUSH    DPH
          CFI DPH0 Frame(CFA_SP, 5)
          CFI CFA_SP SP+-5
        ; Saved register size: 2
        ; Auto size: 0
//  335   AddrMgrInit( NWK_MAX_ADDRESSES );
        ; Setup parameters for call to function AddrMgrInit
        MOV     R2,#0x1a
        MOV     R3,#0x0
        LCALL   `??AddrMgrInit::?relay`; Banked call to: AddrMgrInit
//  336 
//  337 #if !defined ( ZIGBEE_STOCHASTIC_ADDRESSING )
//  338   if ( ZSTACK_ROUTER_BUILD )
        MOV     DPTR,#zgDeviceLogicalType
        MOVX    A,@DPTR
        JZ      ??nwk_globals_init_0
        XRL     A,#0x1
        JNZ     ??nwk_globals_init_1
//  339   {
//  340     // Initialize the Cskip Table
//  341     Cskip = osal_mem_alloc(sizeof(uint16) *(MAX_NODE_DEPTH+1));
??nwk_globals_init_0:
        ; Setup parameters for call to function osal_mem_alloc
        MOV     R2,#0xc
        MOV     R3,#0x0
        LCALL   `??osal_mem_alloc::?relay`; Banked call to: osal_mem_alloc
        MOV     DPTR,#Cskip
        MOV     A,R2
        MOVX    @DPTR,A
        INC     DPTR
        MOV     A,R3
        MOVX    @DPTR,A
//  342     RTG_FillCSkipTable(CskipChldrn, CskipRtrs, MAX_NODE_DEPTH, Cskip);
        ; Setup parameters for call to function RTG_FillCSkipTable
        MOV     DPTR,#Cskip
        LCALL   ?PUSH_XSTACK8_X_TWO
          CFI CFA_XSP16 add(XSP16, 2)
        MOV     R1,#0x5
        MOV     R4,#CskipRtrs & 0xff
        MOV     R5,#(CskipRtrs >> 8) & 0xff
        MOV     R2,#CskipChldrn & 0xff
        MOV     R3,#(CskipChldrn >> 8) & 0xff
        LCALL   `??RTG_FillCSkipTable::?relay`; Banked call to: RTG_FillCSkipTable
        MOV     A,#0x2
        LCALL   ?DEALLOC_XSTACK8
          CFI CFA_XSP16 XSP16+0
//  343   }
//  344 #endif
//  345 
//  346   // To compile out the Link Status Feature, set NWK_LINK_STATUS_PERIOD
//  347   // to 0 (compiler flag).
//  348   if ( ZSTACK_ROUTER_BUILD && NWK_LINK_STATUS_PERIOD )
//  349   {
//  350     NLME_InitLinkStatus();
//  351   }
//  352 
//  353 #if defined ( ZIGBEE_FREQ_AGILITY )
//  354   NwkFreqAgilityInit();
??nwk_globals_init_1:
        ; Setup parameters for call to function NwkFreqAgilityInit
        LCALL   `??NwkFreqAgilityInit::?relay`; Banked call to: NwkFreqAgilityInit
//  355 #endif
//  356 }
          CFI EndBlock cfiBlock0
        REQUIRE ?Subroutine0
        ; // Fall through to label ?Subroutine0

        RSEG BANKED_CODE:HUGECODE:NOROOT(0)
?Subroutine0:
          CFI Block cfiBlock1 Using cfiCommon0
          CFI NoFunction
          CFI CFA_SP SP+-5
          CFI DPL0 Frame(CFA_SP, 4)
          CFI DPH0 Frame(CFA_SP, 5)
        POP     DPH
          CFI CFA_SP SP+-4
          CFI DPH0 SameValue
        POP     DPL
          CFI CFA_SP SP+-3
          CFI DPL0 SameValue
        LJMP    ?BRET
          CFI EndBlock cfiBlock1
//  357 
//  358 /*********************************************************************
//  359  * @fn       NIB_init()
//  360  *
//  361  * @brief
//  362  *
//  363  *   Initialize attribute values in NIB
//  364  *
//  365  * @param   none
//  366  *
//  367  * @return  none
//  368  */

        RSEG BANKED_CODE:HUGECODE:NOROOT(0)
//  369 void NIB_init()
NIB_init:
          CFI Block cfiBlock2 Using cfiCommon0
          CFI Function NIB_init
        CODE
//  370 {
        FUNCALL NIB_init, osal_rand
        LOCFRAME ISTACK, 2, STACK
        LOCFRAME PSTACK, 0, STACK
        LOCFRAME XSTACK, 0, STACK
        LOCFRAME IOVERLAY, 0, STATIC
        LOCFRAME DOVERLAY, 0, STATIC
        ARGFRAME ISTACK, 2, STACK
        ARGFRAME PSTACK, 0, STACK
        ARGFRAME XSTACK, 0, STACK
        ARGFRAME IOVERLAY, 0, STATIC
        ARGFRAME DOVERLAY, 0, STATIC
        FUNCALL NIB_init, osal_memset
        LOCFRAME ISTACK, 2, STACK
        LOCFRAME PSTACK, 0, STACK
        LOCFRAME XSTACK, 0, STACK
        LOCFRAME IOVERLAY, 0, STATIC
        LOCFRAME DOVERLAY, 0, STATIC
        ARGFRAME ISTACK, 2, STACK
        ARGFRAME PSTACK, 0, STACK
        ARGFRAME XSTACK, 0, STACK
        ARGFRAME IOVERLAY, 0, STATIC
        ARGFRAME DOVERLAY, 0, STATIC
        FUNCALL NIB_init, sAddrExtCpy
        LOCFRAME ISTACK, 2, STACK
        LOCFRAME PSTACK, 0, STACK
        LOCFRAME XSTACK, 0, STACK
        LOCFRAME IOVERLAY, 0, STATIC
        LOCFRAME DOVERLAY, 0, STATIC
        ARGFRAME ISTACK, 2, STACK
        ARGFRAME PSTACK, 0, STACK
        ARGFRAME XSTACK, 0, STACK
        ARGFRAME IOVERLAY, 0, STATIC
        ARGFRAME DOVERLAY, 0, STATIC
        FUNCALL NIB_init, NLME_InitTreeAddressing
        LOCFRAME ISTACK, 2, STACK
        LOCFRAME PSTACK, 0, STACK
        LOCFRAME XSTACK, 0, STACK
        LOCFRAME IOVERLAY, 0, STATIC
        LOCFRAME DOVERLAY, 0, STATIC
        ARGFRAME ISTACK, 2, STACK
        ARGFRAME PSTACK, 0, STACK
        ARGFRAME XSTACK, 0, STACK
        ARGFRAME IOVERLAY, 0, STATIC
        ARGFRAME DOVERLAY, 0, STATIC
        PUSH    DPL
          CFI DPL0 Frame(CFA_SP, 4)
          CFI CFA_SP SP+-4
        PUSH    DPH
          CFI DPH0 Frame(CFA_SP, 5)
          CFI CFA_SP SP+-5
        ; Saved register size: 2
        ; Auto size: 0
//  371   _NIB.SequenceNum = LO_UINT16(osal_rand());
        ; Setup parameters for call to function osal_rand
        LCALL   `??osal_rand::?relay`; Banked call to: osal_rand
        MOV     A,R2
        MOV     DPTR,#_NIB
        MOVX    @DPTR,A
//  372 
//  373   _NIB.nwkProtocolVersion = ZB_PROT_VERS;
        MOV     DPTR,#_NIB + 17
        MOV     A,#0x2
        MOVX    @DPTR,A
//  374   _NIB.MaxDepth = MAX_NODE_DEPTH;
        MOV     DPTR,#_NIB + 4
        MOV     A,#0x5
        MOVX    @DPTR,A
//  375 
//  376 #if ( NWK_MODE == NWK_MODE_MESH )
//  377   _NIB.beaconOrder = BEACON_ORDER_NO_BEACONS;
//  378   _NIB.superFrameOrder = BEACON_ORDER_NO_BEACONS;
//  379 #endif
//  380 
//  381   // BROADCAST SETTINGS:
//  382   // *******************
//  383   //   Broadcast Delivery Time
//  384   //     - set to multiples of 100ms
//  385   //     - should be 500ms more than the retry time
//  386   //       -  "retry time" = PassiveAckTimeout * (MaxBroadcastRetries + 1)
//  387   //   Passive Ack Timeout
//  388   //     - set to multiples of 100ms
//  389   _NIB.BroadcastDeliveryTime = zgBcastDeliveryTime;
        MOV     DPTR,#zgBcastDeliveryTime
        MOVX    A,@DPTR
        MOV     DPTR,#_NIB + 7
        MOVX    @DPTR,A
//  390   _NIB.PassiveAckTimeout     = zgPassiveAckTimeout;
        MOV     DPTR,#zgPassiveAckTimeout
        MOVX    A,@DPTR
        MOV     DPTR,#_NIB + 1
        MOVX    @DPTR,A
//  391   _NIB.MaxBroadcastRetries   = zgMaxBcastRetires;
        MOV     DPTR,#zgMaxBcastRetires
        MOVX    A,@DPTR
        MOV     DPTR,#_NIB + 2
        MOVX    @DPTR,A
//  392 
//  393   _NIB.ReportConstantCost = 0;
        MOV     DPTR,#_NIB + 8
        CLR     A
        MOVX    @DPTR,A
//  394   _NIB.RouteDiscRetries = 0;
        INC     DPTR
        MOVX    @DPTR,A
//  395   _NIB.SecureAllFrames = USE_NWK_SECURITY;
        MOV     DPTR,#_NIB + 11
        MOVX    @DPTR,A
//  396   _NIB.nwkAllFresh = NWK_ALL_FRESH;
        MOV     DPTR,#_NIB + 104
        INC     A
        MOVX    @DPTR,A
//  397 
//  398   if ( ZG_SECURE_ENABLED )
//  399   {
//  400     _NIB.SecurityLevel = SECURITY_LEVEL;
//  401   }
//  402   else
//  403   {
//  404     _NIB.SecurityLevel = 0;
        MOV     DPTR,#_NIB + 12
        CLR     A
        MOVX    @DPTR,A
//  405   }
//  406 
//  407 #if defined ( ZIGBEEPRO )
//  408   _NIB.SymLink = FALSE;
//  409 #else
//  410   _NIB.SymLink = TRUE;
        INC     DPTR
        INC     A
        MOVX    @DPTR,A
//  411 #endif
//  412 
//  413   _NIB.CapabilityFlags = ZDO_Config_Node_Descriptor.CapabilityFlags;
        MOV     DPTR,#ZDO_Config_Node_Descriptor + 2
        MOVX    A,@DPTR
        MOV     DPTR,#_NIB + 14
        MOVX    @DPTR,A
//  414 
//  415   _NIB.TransactionPersistenceTime = zgIndirectMsgTimeout;
        MOV     DPTR,#zgIndirectMsgTimeout
        MOVX    A,@DPTR
        MOV     DPTR,#_NIB + 15
        MOVX    @DPTR,A
        INC     DPTR
        CLR     A
        MOVX    @DPTR,A
//  416 
//  417   _NIB.RouteDiscoveryTime = zgRouteDiscoveryTime;
        MOV     DPTR,#zgRouteDiscoveryTime
        MOVX    A,@DPTR
        MOV     DPTR,#_NIB + 18
        MOVX    @DPTR,A
//  418   _NIB.RouteExpiryTime = zgRouteExpiryTime;
        MOV     DPTR,#zgRouteExpiryTime
        MOVX    A,@DPTR
        MOV     DPTR,#_NIB + 19
        MOVX    @DPTR,A
//  419 
//  420   _NIB.nwkDevAddress = INVALID_NODE_ADDR;
        INC     DPTR
        MOV     A,#-0x2
        LCALL   ?Subroutine1 & 0xFFFF
//  421   _NIB.nwkLogicalChannel = 0;
//  422   _NIB.nwkCoordAddress = INVALID_NODE_ADDR;
??CrossCallReturnLabel_0:
        MOV     A,#-0x2
        MOVX    @DPTR,A
        INC     DPTR
        INC     A
        MOVX    @DPTR,A
//  423   osal_memset( _NIB.nwkCoordExtAddress, 0, Z_EXTADDR_LEN );
        ; Setup parameters for call to function osal_memset
        MOV     R4,#0x8
        MOV     R5,#0x0
        MOV     R1,#0x0
        MOV     R2,#(_NIB + 25) & 0xff
        MOV     R3,#((_NIB + 25) >> 8) & 0xff
        LCALL   `??osal_memset::?relay`; Banked call to: osal_memset
//  424   _NIB.nwkPanId = INVALID_NODE_ADDR;
        MOV     DPTR,#_NIB + 33
        MOV     A,#-0x2
        MOVX    @DPTR,A
        INC     DPTR
        INC     A
        MOVX    @DPTR,A
//  425 
//  426   osal_cpyExtAddr( _NIB.extendedPANID, zgExtendedPANID );
        ; Setup parameters for call to function sAddrExtCpy
        MOV     R4,#zgExtendedPANID & 0xff
        MOV     R5,#(zgExtendedPANID >> 8) & 0xff
        MOV     R2,#(_NIB + 53) & 0xff
        MOV     R3,#((_NIB + 53) >> 8) & 0xff
        LCALL   `??sAddrExtCpy::?relay`; Banked call to: sAddrExtCpy
//  427 
//  428   _NIB.nwkKeyLoaded = FALSE;
        MOV     DPTR,#_NIB + 61
        CLR     A
        MOVX    @DPTR,A
//  429 
//  430 #if defined ( ZIGBEE_STOCHASTIC_ADDRESSING )
//  431   _NIB.nwkAddrAlloc  = NWK_ADDRESSING_STOCHASTIC;
//  432   _NIB.nwkUniqueAddr = FALSE;
//  433 #else
//  434   _NIB.nwkAddrAlloc  = NWK_ADDRESSING_DISTRIBUTED;
        MOV     DPTR,#_NIB + 96
        LCALL   ?Subroutine1 & 0xFFFF
//  435   _NIB.nwkUniqueAddr = TRUE;
//  436 #endif
//  437 
//  438   _NIB.nwkLinkStatusPeriod = NWK_LINK_STATUS_PERIOD;
//  439   _NIB.nwkRouterAgeLimit = NWK_ROUTE_AGE_LIMIT;
??CrossCallReturnLabel_1:
        MOV     A,#0x3
        MOVX    @DPTR,A
//  440 
//  441   //MTO and source routing
//  442   _NIB.nwkConcentratorDiscoveryTime = zgConcentratorDiscoveryTime;
        MOV     DPTR,#zgConcentratorDiscoveryTime
        MOVX    A,@DPTR
        MOV     DPTR,#_NIB + 102
        MOVX    @DPTR,A
//  443   _NIB.nwkIsConcentrator = zgConcentratorEnable;
        MOV     DPTR,#zgConcentratorEnable
        MOVX    A,@DPTR
        MOV     DPTR,#_NIB + 101
        MOVX    @DPTR,A
//  444   _NIB.nwkConcentratorRadius = zgConcentratorRadius;
        MOV     DPTR,#zgConcentratorRadius
        MOVX    A,@DPTR
        MOV     DPTR,#_NIB + 103
        MOVX    @DPTR,A
//  445 
//  446 #if defined ( ZIGBEE_MULTICAST )
//  447   _NIB.nwkUseMultiCast = TRUE;
//  448 #else
//  449   _NIB.nwkUseMultiCast = FALSE;
        MOV     DPTR,#_NIB + 100
        CLR     A
        MOVX    @DPTR,A
//  450 #endif
//  451   _NIB.nwkManagerAddr = 0x0000;
        MOV     DPTR,#_NIB + 105
        MOVX    @DPTR,A
        INC     DPTR
        MOVX    @DPTR,A
//  452   _NIB.nwkUpdateId = 0;
        MOV     DPTR,#_NIB + 109
        MOVX    @DPTR,A
//  453   _NIB.nwkTotalTransmissions = 0;
        MOV     DPTR,#_NIB + 107
        MOVX    @DPTR,A
        INC     DPTR
        MOVX    @DPTR,A
//  454 
//  455   if ( ZSTACK_ROUTER_BUILD )
        MOV     DPTR,#zgDeviceLogicalType
        MOVX    A,@DPTR
        JZ      ??NIB_init_0
        XRL     A,#0x1
        JNZ     ??NIB_init_1
//  456   {
//  457 #if defined ( ZIGBEE_STOCHASTIC_ADDRESSING )
//  458     NLME_InitStochasticAddressing();
//  459 #else
//  460     NLME_InitTreeAddressing();
??NIB_init_0:
        ; Setup parameters for call to function NLME_InitTreeAddressing
        LCALL   `??NLME_InitTreeAddressing::?relay`; Banked call to: NLME_InitTreeAddressing
//  461 #endif
//  462   }
//  463 }
??NIB_init_1:
        LJMP    ?Subroutine0 & 0xFFFF
          CFI EndBlock cfiBlock2

        RSEG BANKED_CODE:HUGECODE:NOROOT(0)
?Subroutine1:
          CFI Block cfiCond3 Using cfiCommon0
          CFI Function NIB_init
          CFI Conditional ??CrossCallReturnLabel_0
          CFI DPL0 Frame(CFA_SP, 4)
          CFI DPH0 Frame(CFA_SP, 5)
          CFI CFA_SP SP+-7
          CFI Block cfiCond4 Using cfiCommon0
          CFI (cfiCond4) Function NIB_init
          CFI (cfiCond4) Conditional ??CrossCallReturnLabel_1
          CFI (cfiCond4) DPL0 Frame(CFA_SP, 4)
          CFI (cfiCond4) DPH0 Frame(CFA_SP, 5)
          CFI (cfiCond4) CFA_SP SP+-7
          CFI Block cfiPicker5 Using cfiCommon1
          CFI (cfiPicker5) NoFunction
          CFI (cfiPicker5) Picker
        MOVX    @DPTR,A
        INC     DPTR
        INC     A
        MOVX    @DPTR,A
        INC     DPTR
        CLR     A
        MOVX    @DPTR,A
        INC     DPTR
        RET
          CFI EndBlock cfiCond3
          CFI EndBlock cfiCond4
          CFI EndBlock cfiPicker5
//  464 
//  465 /*********************************************************************
//  466  * @fn       nwk_Status()
//  467  *
//  468  * @brief
//  469  *
//  470  *   Status report.
//  471  *
//  472  * @param   statusCode
//  473  * @param   statusValue
//  474  *
//  475  * @return  none
//  476  */

        RSEG BANKED_CODE:HUGECODE:NOROOT(0)
//  477 void nwk_Status( uint16 statusCode, uint16 statusValue )
nwk_Status:
          CFI Block cfiBlock6 Using cfiCommon0
          CFI Function nwk_Status
        CODE
//  478 {
        ; Saved register size: 0
        ; Auto size: 0
//  479 #if defined ( LCD_SUPPORTED )
//  480   switch ( statusCode )
//  481   {
//  482     case NWK_STATUS_COORD_ADDR:
//  483       if ( ZSTACK_ROUTER_BUILD )
//  484       {
//  485         HalLcdWriteString( (char*)ZigbeeCoordStr, HAL_LCD_LINE_1 );
//  486         HalLcdWriteStringValue( (char*)NetworkIDStr, statusValue, 16, HAL_LCD_LINE_2 );
//  487         BuzzerControl( BUZZER_BLIP );
//  488       }
//  489       break;
//  490 
//  491     case NWK_STATUS_ROUTER_ADDR:
//  492       if ( ZSTACK_ROUTER_BUILD )
//  493       {
//  494         HalLcdWriteStringValue( (char*)RouterStr, statusValue, 16, HAL_LCD_LINE_1 );
//  495       }
//  496       break;
//  497 
//  498     case NWK_STATUS_ORPHAN_RSP:
//  499       if ( ZSTACK_ROUTER_BUILD )
//  500       {
//  501         if ( statusValue == ZSuccess )
//  502           HalLcdWriteScreen( (char*)OrphanRspStr, (char*)SentStr );
//  503         else
//  504           HalLcdWriteScreen( (char*)OrphanRspStr, (char*)FailedStr );
//  505       }
//  506       break;
//  507 
//  508     case NWK_ERROR_ASSOC_RSP:
//  509       if ( ZSTACK_ROUTER_BUILD )
//  510       {
//  511         HalLcdWriteString( (char*)AssocRspFailStr, HAL_LCD_LINE_1 );
//  512         HalLcdWriteValue( (uint32)(statusValue), 16, HAL_LCD_LINE_2 );
//  513       }
//  514       break;
//  515 
//  516     case NWK_STATUS_ED_ADDR:
//  517       if ( ZSTACK_END_DEVICE_BUILD )
//  518       {
//  519         HalLcdWriteStringValue( (char*)EndDeviceStr, statusValue, 16, HAL_LCD_LINE_1 );
//  520       }
//  521       break;
//  522 
//  523     case NWK_STATUS_PARENT_ADDR:
//  524             HalLcdWriteStringValue( (char*)ParentStr, statusValue, 16, HAL_LCD_LINE_2 );
//  525       break;
//  526 
//  527     case NWK_STATUS_ASSOC_CNF:
//  528       HalLcdWriteScreen( (char*)AssocCnfStr, (char*)SuccessStr );
//  529       break;
//  530 
//  531     case NWK_ERROR_ASSOC_CNF_DENIED:
//  532       HalLcdWriteString((char*)AssocCnfFailStr, HAL_LCD_LINE_1 );
//  533       HalLcdWriteValue( (uint32)(statusValue), 16, HAL_LCD_LINE_2 );
//  534       break;
//  535 
//  536     case NWK_ERROR_ENERGY_SCAN_FAILED:
//  537       HalLcdWriteScreen( (char*)EnergyLevelStr, (char*)ScanFailedStr );
//  538       break;
//  539   }
//  540 #endif
//  541 }
        LJMP    ?BRET
          CFI EndBlock cfiBlock6
//  542 
//  543 /*********************************************************************
//  544  * @fn       nwk_UpdateStatistics()
//  545  *
//  546  * @brief   Update network layer statistic counters
//  547  *
//  548  * @param   statisticCode
//  549  *
//  550  * @return  none
//  551  */

        RSEG BANKED_CODE:HUGECODE:NOROOT(0)
//  552 void nwk_UpdateStatistics( uint8 statisticCode )
nwk_UpdateStatistics:
          CFI Block cfiBlock7 Using cfiCommon0
          CFI Function nwk_UpdateStatistics
        CODE
//  553 {
        ; Saved register size: 0
        ; Auto size: 0
//  554 #if defined ( PACKET_FILTER_STATS )
//  555   switch ( statisticCode )
//  556   {
//  557     case STAT_NWK_INVALID_PACKET:
//  558       nwkInvalidPackets++;
//  559       break;
//  560 
//  561     case STAT_NWK_SECURITY_FAILURE:
//  562       nwkInvalidPackets++;
//  563       nwkSecurityFailures++;
//  564       break;
//  565 
//  566     case STAT_APS_INVALID_PACKET:
//  567       apsInvalidPackets++;
//  568       break;
//  569 
//  570     case STAT_APS_SECURITY_FAILURE:
//  571       apsSecurityFailures++;
//  572       break;
//  573   }
//  574 #endif
//  575 }
        LJMP    ?BRET
          CFI EndBlock cfiBlock7

        RSEG XDATA_ID:CODE:NOROOT(0)
`?<Initializer for CskipRtrs>`:
        DATA8
        DB 5
        DB 0
        DB 0
        DB 0
        DB 0
        DB 0

        RSEG XDATA_ID:CODE:NOROOT(0)
`?<Initializer for CskipChldrn>`:
        DATA8
        DB 10
        DB 0
        DB 0
        DB 0
        DB 0
        DB 0

        RSEG XDATA_ID:CODE:NOROOT(0)
`?<Initializer for gMIN_TREE_LINK_COST>`:
        DATA8
        DB 6

        RSEG XDATA_ID:CODE:NOROOT(0)
`?<Initializer for gAPS_MAX_ENDDEVICE_BROADCAST`:
        DATA8
        DB 18

        RSEG BANK_RELAYS:CODE:REORDER:NOROOT(0)
`??nwk_globals_init::?relay`:
        CODE
        LCALL   ?BDISPATCH
        DATA24
        DC24    nwk_globals_init

        RSEG BANK_RELAYS:CODE:REORDER:NOROOT(0)
`??NIB_init::?relay`:
        CODE
        LCALL   ?BDISPATCH
        DATA24
        DC24    NIB_init

        RSEG BANK_RELAYS:CODE:REORDER:NOROOT(0)
`??nwk_Status::?relay`:
        CODE
        LCALL   ?BDISPATCH
        DATA24
        DC24    nwk_Status

        RSEG BANK_RELAYS:CODE:REORDER:NOROOT(0)
`??nwk_UpdateStatistics::?relay`:
        CODE
        LCALL   ?BDISPATCH
        DATA24
        DC24    nwk_UpdateStatistics

        END
//  576 
//  577 /*********************************************************************
//  578 *********************************************************************/
// 
//   312 bytes in segment BANKED_CODE
//    24 bytes in segment BANK_RELAYS
//    68 bytes in segment CODE_C
//    14 bytes in segment XDATA_I
//    14 bytes in segment XDATA_ID
// 1 355 bytes in segment XDATA_Z
// 
//   106 bytes of CODE     memory
//   312 bytes of HUGECODE memory
// 1 369 bytes of XDATA    memory
//
//Errors: none
//Warnings: none
